
STM32F746_DISCO_PROJECT.elf:     file format elf32-littlearm

Sections:
Idx Name          Size      VMA       LMA       File off  Algn
  0 .isr_vector   000001c8  08000000  08000000  00001000  2**0
                  CONTENTS, ALLOC, LOAD, READONLY, DATA
  1 .text         000068f4  080001c8  080001c8  000011c8  2**2
                  CONTENTS, ALLOC, LOAD, READONLY, CODE
  2 .rodata       00000024  08006abc  08006abc  00007abc  2**0
                  CONTENTS, ALLOC, LOAD, READONLY, DATA
  3 .ARM.extab    00000000  08006ae0  08006ae0  000080d0  2**0
                  CONTENTS
  4 .ARM          00000008  08006ae0  08006ae0  00007ae0  2**2
                  CONTENTS, ALLOC, LOAD, READONLY, DATA
  5 .preinit_array 00000000  08006ae8  08006ae8  000080d0  2**0
                  CONTENTS, ALLOC, LOAD, DATA
  6 .init_array   00000004  08006ae8  08006ae8  00007ae8  2**2
                  CONTENTS, ALLOC, LOAD, READONLY, DATA
  7 .fini_array   00000004  08006aec  08006aec  00007aec  2**2
                  CONTENTS, ALLOC, LOAD, READONLY, DATA
  8 .data         000000d0  20000000  08006af0  00008000  2**2
                  CONTENTS, ALLOC, LOAD, DATA
  9 .bss          00000ff0  200000d0  08006bc0  000080d0  2**2
                  ALLOC
 10 ._user_heap_stack 00000600  200010c0  08006bc0  000090c0  2**0
                  ALLOC
 11 .ARM.attributes 00000030  00000000  00000000  000080d0  2**0
                  CONTENTS, READONLY
 12 .comment      00000043  00000000  00000000  00008100  2**0
                  CONTENTS, READONLY
 13 .debug_frame  0000040c  00000000  00000000  00008144  2**2
                  CONTENTS, READONLY, DEBUGGING, OCTETS

Disassembly of section .text:

080001c8 <__do_global_dtors_aux>:
 80001c8:	b510      	push	{r4, lr}
 80001ca:	4c05      	ldr	r4, [pc, #20]	@ (80001e0 <__do_global_dtors_aux+0x18>)
 80001cc:	7823      	ldrb	r3, [r4, #0]
 80001ce:	b933      	cbnz	r3, 80001de <__do_global_dtors_aux+0x16>
 80001d0:	4b04      	ldr	r3, [pc, #16]	@ (80001e4 <__do_global_dtors_aux+0x1c>)
 80001d2:	b113      	cbz	r3, 80001da <__do_global_dtors_aux+0x12>
 80001d4:	4804      	ldr	r0, [pc, #16]	@ (80001e8 <__do_global_dtors_aux+0x20>)
 80001d6:	f3af 8000 	nop.w
 80001da:	2301      	movs	r3, #1
 80001dc:	7023      	strb	r3, [r4, #0]
 80001de:	bd10      	pop	{r4, pc}
 80001e0:	200000d0 	.word	0x200000d0
 80001e4:	00000000 	.word	0x00000000
 80001e8:	08006aa4 	.word	0x08006aa4

080001ec <frame_dummy>:
 80001ec:	b508      	push	{r3, lr}
 80001ee:	4b03      	ldr	r3, [pc, #12]	@ (80001fc <frame_dummy+0x10>)
 80001f0:	b11b      	cbz	r3, 80001fa <frame_dummy+0xe>
 80001f2:	4903      	ldr	r1, [pc, #12]	@ (8000200 <frame_dummy+0x14>)
 80001f4:	4803      	ldr	r0, [pc, #12]	@ (8000204 <frame_dummy+0x18>)
 80001f6:	f3af 8000 	nop.w
 80001fa:	bd08      	pop	{r3, pc}
 80001fc:	00000000 	.word	0x00000000
 8000200:	200000d4 	.word	0x200000d4
 8000204:	08006aa4 	.word	0x08006aa4

08000208 <__aeabi_uldivmod>:
 8000208:	b953      	cbnz	r3, 8000220 <__aeabi_uldivmod+0x18>
 800020a:	b94a      	cbnz	r2, 8000220 <__aeabi_uldivmod+0x18>
 800020c:	2900      	cmp	r1, #0
 800020e:	bf08      	it	eq
 8000210:	2800      	cmpeq	r0, #0
 8000212:	bf1c      	itt	ne
 8000214:	f04f 31ff 	movne.w	r1, #4294967295	@ 0xffffffff
 8000218:	f04f 30ff 	movne.w	r0, #4294967295	@ 0xffffffff
 800021c:	f000 b96a 	b.w	80004f4 <__aeabi_idiv0>
 8000220:	f1ad 0c08 	sub.w	ip, sp, #8
 8000224:	e96d ce04 	strd	ip, lr, [sp, #-16]!
 8000228:	f000 f806 	bl	8000238 <__udivmoddi4>
 800022c:	f8dd e004 	ldr.w	lr, [sp, #4]
 8000230:	e9dd 2302 	ldrd	r2, r3, [sp, #8]
 8000234:	b004      	add	sp, #16
 8000236:	4770      	bx	lr

08000238 <__udivmoddi4>:
 8000238:	e92d 47f0 	stmdb	sp!, {r4, r5, r6, r7, r8, r9, sl, lr}
 800023c:	9d08      	ldr	r5, [sp, #32]
 800023e:	460c      	mov	r4, r1
 8000240:	2b00      	cmp	r3, #0
 8000242:	d14e      	bne.n	80002e2 <__udivmoddi4+0xaa>
 8000244:	4694      	mov	ip, r2
 8000246:	458c      	cmp	ip, r1
 8000248:	4686      	mov	lr, r0
 800024a:	fab2 f282 	clz	r2, r2
 800024e:	d962      	bls.n	8000316 <__udivmoddi4+0xde>
 8000250:	b14a      	cbz	r2, 8000266 <__udivmoddi4+0x2e>
 8000252:	f1c2 0320 	rsb	r3, r2, #32
 8000256:	4091      	lsls	r1, r2
 8000258:	fa20 f303 	lsr.w	r3, r0, r3
 800025c:	fa0c fc02 	lsl.w	ip, ip, r2
 8000260:	4319      	orrs	r1, r3
 8000262:	fa00 fe02 	lsl.w	lr, r0, r2
 8000266:	ea4f 471c 	mov.w	r7, ip, lsr #16
 800026a:	fa1f f68c 	uxth.w	r6, ip
 800026e:	fbb1 f4f7 	udiv	r4, r1, r7
 8000272:	ea4f 431e 	mov.w	r3, lr, lsr #16
 8000276:	fb07 1114 	mls	r1, r7, r4, r1
 800027a:	ea43 4301 	orr.w	r3, r3, r1, lsl #16
 800027e:	fb04 f106 	mul.w	r1, r4, r6
 8000282:	4299      	cmp	r1, r3
 8000284:	d90a      	bls.n	800029c <__udivmoddi4+0x64>
 8000286:	eb1c 0303 	adds.w	r3, ip, r3
 800028a:	f104 30ff 	add.w	r0, r4, #4294967295	@ 0xffffffff
 800028e:	f080 8112 	bcs.w	80004b6 <__udivmoddi4+0x27e>
 8000292:	4299      	cmp	r1, r3
 8000294:	f240 810f 	bls.w	80004b6 <__udivmoddi4+0x27e>
 8000298:	3c02      	subs	r4, #2
 800029a:	4463      	add	r3, ip
 800029c:	1a59      	subs	r1, r3, r1
 800029e:	fa1f f38e 	uxth.w	r3, lr
 80002a2:	fbb1 f0f7 	udiv	r0, r1, r7
 80002a6:	fb07 1110 	mls	r1, r7, r0, r1
 80002aa:	ea43 4301 	orr.w	r3, r3, r1, lsl #16
 80002ae:	fb00 f606 	mul.w	r6, r0, r6
 80002b2:	429e      	cmp	r6, r3
 80002b4:	d90a      	bls.n	80002cc <__udivmoddi4+0x94>
 80002b6:	eb1c 0303 	adds.w	r3, ip, r3
 80002ba:	f100 31ff 	add.w	r1, r0, #4294967295	@ 0xffffffff
 80002be:	f080 80fc 	bcs.w	80004ba <__udivmoddi4+0x282>
 80002c2:	429e      	cmp	r6, r3
 80002c4:	f240 80f9 	bls.w	80004ba <__udivmoddi4+0x282>
 80002c8:	4463      	add	r3, ip
 80002ca:	3802      	subs	r0, #2
 80002cc:	1b9b      	subs	r3, r3, r6
 80002ce:	ea40 4004 	orr.w	r0, r0, r4, lsl #16
 80002d2:	2100      	movs	r1, #0
 80002d4:	b11d      	cbz	r5, 80002de <__udivmoddi4+0xa6>
 80002d6:	40d3      	lsrs	r3, r2
 80002d8:	2200      	movs	r2, #0
 80002da:	e9c5 3200 	strd	r3, r2, [r5]
 80002de:	e8bd 87f0 	ldmia.w	sp!, {r4, r5, r6, r7, r8, r9, sl, pc}
 80002e2:	428b      	cmp	r3, r1
 80002e4:	d905      	bls.n	80002f2 <__udivmoddi4+0xba>
 80002e6:	b10d      	cbz	r5, 80002ec <__udivmoddi4+0xb4>
 80002e8:	e9c5 0100 	strd	r0, r1, [r5]
 80002ec:	2100      	movs	r1, #0
 80002ee:	4608      	mov	r0, r1
 80002f0:	e7f5      	b.n	80002de <__udivmoddi4+0xa6>
 80002f2:	fab3 f183 	clz	r1, r3
 80002f6:	2900      	cmp	r1, #0
 80002f8:	d146      	bne.n	8000388 <__udivmoddi4+0x150>
 80002fa:	42a3      	cmp	r3, r4
 80002fc:	d302      	bcc.n	8000304 <__udivmoddi4+0xcc>
 80002fe:	4290      	cmp	r0, r2
 8000300:	f0c0 80f0 	bcc.w	80004e4 <__udivmoddi4+0x2ac>
 8000304:	1a86      	subs	r6, r0, r2
 8000306:	eb64 0303 	sbc.w	r3, r4, r3
 800030a:	2001      	movs	r0, #1
 800030c:	2d00      	cmp	r5, #0
 800030e:	d0e6      	beq.n	80002de <__udivmoddi4+0xa6>
 8000310:	e9c5 6300 	strd	r6, r3, [r5]
 8000314:	e7e3      	b.n	80002de <__udivmoddi4+0xa6>
 8000316:	2a00      	cmp	r2, #0
 8000318:	f040 8090 	bne.w	800043c <__udivmoddi4+0x204>
 800031c:	eba1 040c 	sub.w	r4, r1, ip
 8000320:	ea4f 481c 	mov.w	r8, ip, lsr #16
 8000324:	fa1f f78c 	uxth.w	r7, ip
 8000328:	2101      	movs	r1, #1
 800032a:	fbb4 f6f8 	udiv	r6, r4, r8
 800032e:	ea4f 431e 	mov.w	r3, lr, lsr #16
 8000332:	fb08 4416 	mls	r4, r8, r6, r4
 8000336:	ea43 4304 	orr.w	r3, r3, r4, lsl #16
 800033a:	fb07 f006 	mul.w	r0, r7, r6
 800033e:	4298      	cmp	r0, r3
 8000340:	d908      	bls.n	8000354 <__udivmoddi4+0x11c>
 8000342:	eb1c 0303 	adds.w	r3, ip, r3
 8000346:	f106 34ff 	add.w	r4, r6, #4294967295	@ 0xffffffff
 800034a:	d202      	bcs.n	8000352 <__udivmoddi4+0x11a>
 800034c:	4298      	cmp	r0, r3
 800034e:	f200 80cd 	bhi.w	80004ec <__udivmoddi4+0x2b4>
 8000352:	4626      	mov	r6, r4
 8000354:	1a1c      	subs	r4, r3, r0
 8000356:	fa1f f38e 	uxth.w	r3, lr
 800035a:	fbb4 f0f8 	udiv	r0, r4, r8
 800035e:	fb08 4410 	mls	r4, r8, r0, r4
 8000362:	ea43 4304 	orr.w	r3, r3, r4, lsl #16
 8000366:	fb00 f707 	mul.w	r7, r0, r7
 800036a:	429f      	cmp	r7, r3
 800036c:	d908      	bls.n	8000380 <__udivmoddi4+0x148>
 800036e:	eb1c 0303 	adds.w	r3, ip, r3
 8000372:	f100 34ff 	add.w	r4, r0, #4294967295	@ 0xffffffff
 8000376:	d202      	bcs.n	800037e <__udivmoddi4+0x146>
 8000378:	429f      	cmp	r7, r3
 800037a:	f200 80b0 	bhi.w	80004de <__udivmoddi4+0x2a6>
 800037e:	4620      	mov	r0, r4
 8000380:	1bdb      	subs	r3, r3, r7
 8000382:	ea40 4006 	orr.w	r0, r0, r6, lsl #16
 8000386:	e7a5      	b.n	80002d4 <__udivmoddi4+0x9c>
 8000388:	f1c1 0620 	rsb	r6, r1, #32
 800038c:	408b      	lsls	r3, r1
 800038e:	fa22 f706 	lsr.w	r7, r2, r6
 8000392:	431f      	orrs	r7, r3
 8000394:	fa20 fc06 	lsr.w	ip, r0, r6
 8000398:	fa04 f301 	lsl.w	r3, r4, r1
 800039c:	ea43 030c 	orr.w	r3, r3, ip
 80003a0:	40f4      	lsrs	r4, r6
 80003a2:	fa00 f801 	lsl.w	r8, r0, r1
 80003a6:	0c38      	lsrs	r0, r7, #16
 80003a8:	ea4f 4913 	mov.w	r9, r3, lsr #16
 80003ac:	fbb4 fef0 	udiv	lr, r4, r0
 80003b0:	fa1f fc87 	uxth.w	ip, r7
 80003b4:	fb00 441e 	mls	r4, r0, lr, r4
 80003b8:	ea49 4404 	orr.w	r4, r9, r4, lsl #16
 80003bc:	fb0e f90c 	mul.w	r9, lr, ip
 80003c0:	45a1      	cmp	r9, r4
 80003c2:	fa02 f201 	lsl.w	r2, r2, r1
 80003c6:	d90a      	bls.n	80003de <__udivmoddi4+0x1a6>
 80003c8:	193c      	adds	r4, r7, r4
 80003ca:	f10e 3aff 	add.w	sl, lr, #4294967295	@ 0xffffffff
 80003ce:	f080 8084 	bcs.w	80004da <__udivmoddi4+0x2a2>
 80003d2:	45a1      	cmp	r9, r4
 80003d4:	f240 8081 	bls.w	80004da <__udivmoddi4+0x2a2>
 80003d8:	f1ae 0e02 	sub.w	lr, lr, #2
 80003dc:	443c      	add	r4, r7
 80003de:	eba4 0409 	sub.w	r4, r4, r9
 80003e2:	fa1f f983 	uxth.w	r9, r3
 80003e6:	fbb4 f3f0 	udiv	r3, r4, r0
 80003ea:	fb00 4413 	mls	r4, r0, r3, r4
 80003ee:	ea49 4404 	orr.w	r4, r9, r4, lsl #16
 80003f2:	fb03 fc0c 	mul.w	ip, r3, ip
 80003f6:	45a4      	cmp	ip, r4
 80003f8:	d907      	bls.n	800040a <__udivmoddi4+0x1d2>
 80003fa:	193c      	adds	r4, r7, r4
 80003fc:	f103 30ff 	add.w	r0, r3, #4294967295	@ 0xffffffff
 8000400:	d267      	bcs.n	80004d2 <__udivmoddi4+0x29a>
 8000402:	45a4      	cmp	ip, r4
 8000404:	d965      	bls.n	80004d2 <__udivmoddi4+0x29a>
 8000406:	3b02      	subs	r3, #2
 8000408:	443c      	add	r4, r7
 800040a:	ea43 400e 	orr.w	r0, r3, lr, lsl #16
 800040e:	fba0 9302 	umull	r9, r3, r0, r2
 8000412:	eba4 040c 	sub.w	r4, r4, ip
 8000416:	429c      	cmp	r4, r3
 8000418:	46ce      	mov	lr, r9
 800041a:	469c      	mov	ip, r3
 800041c:	d351      	bcc.n	80004c2 <__udivmoddi4+0x28a>
 800041e:	d04e      	beq.n	80004be <__udivmoddi4+0x286>
 8000420:	b155      	cbz	r5, 8000438 <__udivmoddi4+0x200>
 8000422:	ebb8 030e 	subs.w	r3, r8, lr
 8000426:	eb64 040c 	sbc.w	r4, r4, ip
 800042a:	fa04 f606 	lsl.w	r6, r4, r6
 800042e:	40cb      	lsrs	r3, r1
 8000430:	431e      	orrs	r6, r3
 8000432:	40cc      	lsrs	r4, r1
 8000434:	e9c5 6400 	strd	r6, r4, [r5]
 8000438:	2100      	movs	r1, #0
 800043a:	e750      	b.n	80002de <__udivmoddi4+0xa6>
 800043c:	f1c2 0320 	rsb	r3, r2, #32
 8000440:	fa20 f103 	lsr.w	r1, r0, r3
 8000444:	fa0c fc02 	lsl.w	ip, ip, r2
 8000448:	fa24 f303 	lsr.w	r3, r4, r3
 800044c:	4094      	lsls	r4, r2
 800044e:	430c      	orrs	r4, r1
 8000450:	ea4f 481c 	mov.w	r8, ip, lsr #16
 8000454:	fa00 fe02 	lsl.w	lr, r0, r2
 8000458:	fa1f f78c 	uxth.w	r7, ip
 800045c:	fbb3 f0f8 	udiv	r0, r3, r8
 8000460:	fb08 3110 	mls	r1, r8, r0, r3
 8000464:	0c23      	lsrs	r3, r4, #16
 8000466:	ea43 4301 	orr.w	r3, r3, r1, lsl #16
 800046a:	fb00 f107 	mul.w	r1, r0, r7
 800046e:	4299      	cmp	r1, r3
 8000470:	d908      	bls.n	8000484 <__udivmoddi4+0x24c>
 8000472:	eb1c 0303 	adds.w	r3, ip, r3
 8000476:	f100 36ff 	add.w	r6, r0, #4294967295	@ 0xffffffff
 800047a:	d22c      	bcs.n	80004d6 <__udivmoddi4+0x29e>
 800047c:	4299      	cmp	r1, r3
 800047e:	d92a      	bls.n	80004d6 <__udivmoddi4+0x29e>
 8000480:	3802      	subs	r0, #2
 8000482:	4463      	add	r3, ip
 8000484:	1a5b      	subs	r3, r3, r1
 8000486:	b2a4      	uxth	r4, r4
 8000488:	fbb3 f1f8 	udiv	r1, r3, r8
 800048c:	fb08 3311 	mls	r3, r8, r1, r3
 8000490:	ea44 4403 	orr.w	r4, r4, r3, lsl #16
 8000494:	fb01 f307 	mul.w	r3, r1, r7
 8000498:	42a3      	cmp	r3, r4
 800049a:	d908      	bls.n	80004ae <__udivmoddi4+0x276>
 800049c:	eb1c 0404 	adds.w	r4, ip, r4
 80004a0:	f101 36ff 	add.w	r6, r1, #4294967295	@ 0xffffffff
 80004a4:	d213      	bcs.n	80004ce <__udivmoddi4+0x296>
 80004a6:	42a3      	cmp	r3, r4
 80004a8:	d911      	bls.n	80004ce <__udivmoddi4+0x296>
 80004aa:	3902      	subs	r1, #2
 80004ac:	4464      	add	r4, ip
 80004ae:	1ae4      	subs	r4, r4, r3
 80004b0:	ea41 4100 	orr.w	r1, r1, r0, lsl #16
 80004b4:	e739      	b.n	800032a <__udivmoddi4+0xf2>
 80004b6:	4604      	mov	r4, r0
 80004b8:	e6f0      	b.n	800029c <__udivmoddi4+0x64>
 80004ba:	4608      	mov	r0, r1
 80004bc:	e706      	b.n	80002cc <__udivmoddi4+0x94>
 80004be:	45c8      	cmp	r8, r9
 80004c0:	d2ae      	bcs.n	8000420 <__udivmoddi4+0x1e8>
 80004c2:	ebb9 0e02 	subs.w	lr, r9, r2
 80004c6:	eb63 0c07 	sbc.w	ip, r3, r7
 80004ca:	3801      	subs	r0, #1
 80004cc:	e7a8      	b.n	8000420 <__udivmoddi4+0x1e8>
 80004ce:	4631      	mov	r1, r6
 80004d0:	e7ed      	b.n	80004ae <__udivmoddi4+0x276>
 80004d2:	4603      	mov	r3, r0
 80004d4:	e799      	b.n	800040a <__udivmoddi4+0x1d2>
 80004d6:	4630      	mov	r0, r6
 80004d8:	e7d4      	b.n	8000484 <__udivmoddi4+0x24c>
 80004da:	46d6      	mov	lr, sl
 80004dc:	e77f      	b.n	80003de <__udivmoddi4+0x1a6>
 80004de:	4463      	add	r3, ip
 80004e0:	3802      	subs	r0, #2
 80004e2:	e74d      	b.n	8000380 <__udivmoddi4+0x148>
 80004e4:	4606      	mov	r6, r0
 80004e6:	4623      	mov	r3, r4
 80004e8:	4608      	mov	r0, r1
 80004ea:	e70f      	b.n	800030c <__udivmoddi4+0xd4>
 80004ec:	3e02      	subs	r6, #2
 80004ee:	4463      	add	r3, ip
 80004f0:	e730      	b.n	8000354 <__udivmoddi4+0x11c>
 80004f2:	bf00      	nop

080004f4 <__aeabi_idiv0>:
 80004f4:	4770      	bx	lr
 80004f6:	bf00      	nop

080004f8 <HAL_SAI_TxHalfCpltCallback>:
 80004f8:	4770      	bx	lr

080004fa <HAL_SAI_TxCpltCallback>:
 80004fa:	4770      	bx	lr

080004fc <HAL_SAI_RxHalfCpltCallback>:
 80004fc:	4770      	bx	lr

080004fe <HAL_SAI_RxCpltCallback>:
 80004fe:	4770      	bx	lr

08000500 <SystemClock_Config>:
 8000500:	b510      	push	{r4, lr}
 8000502:	b094      	sub	sp, #80	@ 0x50
 8000504:	2230      	movs	r2, #48	@ 0x30
 8000506:	2100      	movs	r1, #0
 8000508:	2402      	movs	r4, #2
 800050a:	a808      	add	r0, sp, #32
 800050c:	f006 fa3c 	bl	8006988 <memset>
 8000510:	2214      	movs	r2, #20
 8000512:	2100      	movs	r1, #0
 8000514:	a803      	add	r0, sp, #12
 8000516:	f006 fa37 	bl	8006988 <memset>
 800051a:	f001 ffa9 	bl	8002470 <HAL_PWR_EnableBkUpAccess>
 800051e:	4b22      	ldr	r3, [pc, #136]	@ (80005a8 <SystemClock_Config+0xa8>)
 8000520:	f44f 0180 	mov.w	r1, #4194304	@ 0x400000
 8000524:	a808      	add	r0, sp, #32
 8000526:	6c1a      	ldr	r2, [r3, #64]	@ 0x40
 8000528:	f042 5280 	orr.w	r2, r2, #268435456	@ 0x10000000
 800052c:	641a      	str	r2, [r3, #64]	@ 0x40
 800052e:	6c1b      	ldr	r3, [r3, #64]	@ 0x40
 8000530:	f003 5380 	and.w	r3, r3, #268435456	@ 0x10000000
 8000534:	9301      	str	r3, [sp, #4]
 8000536:	9b01      	ldr	r3, [sp, #4]
 8000538:	4b1c      	ldr	r3, [pc, #112]	@ (80005ac <SystemClock_Config+0xac>)
 800053a:	681a      	ldr	r2, [r3, #0]
 800053c:	f442 4240 	orr.w	r2, r2, #49152	@ 0xc000
 8000540:	601a      	str	r2, [r3, #0]
 8000542:	f44f 3280 	mov.w	r2, #65536	@ 0x10000
 8000546:	681b      	ldr	r3, [r3, #0]
 8000548:	f403 4340 	and.w	r3, r3, #49152	@ 0xc000
 800054c:	9302      	str	r3, [sp, #8]
 800054e:	9b02      	ldr	r3, [sp, #8]
 8000550:	2309      	movs	r3, #9
 8000552:	e9cd 3208 	strd	r3, r2, [sp, #32]
 8000556:	2201      	movs	r2, #1
 8000558:	9313      	str	r3, [sp, #76]	@ 0x4c
 800055a:	e9cd 240d 	strd	r2, r4, [sp, #52]	@ 0x34
 800055e:	2219      	movs	r2, #25
 8000560:	e9cd 120f 	strd	r1, r2, [sp, #60]	@ 0x3c
 8000564:	f44f 72c8 	mov.w	r2, #400	@ 0x190
 8000568:	e9cd 2411 	strd	r2, r4, [sp, #68]	@ 0x44
 800056c:	f001 ffc0 	bl	80024f0 <HAL_RCC_OscConfig>
 8000570:	b108      	cbz	r0, 8000576 <SystemClock_Config+0x76>
 8000572:	b672      	cpsid	i
 8000574:	e7fe      	b.n	8000574 <SystemClock_Config+0x74>
 8000576:	f001 ff83 	bl	8002480 <HAL_PWREx_EnableOverDrive>
 800057a:	b108      	cbz	r0, 8000580 <SystemClock_Config+0x80>
 800057c:	b672      	cpsid	i
 800057e:	e7fe      	b.n	800057e <SystemClock_Config+0x7e>
 8000580:	230f      	movs	r3, #15
 8000582:	f44f 52a0 	mov.w	r2, #5120	@ 0x1400
 8000586:	9005      	str	r0, [sp, #20]
 8000588:	2106      	movs	r1, #6
 800058a:	a803      	add	r0, sp, #12
 800058c:	e9cd 3403 	strd	r3, r4, [sp, #12]
 8000590:	f44f 5380 	mov.w	r3, #4096	@ 0x1000
 8000594:	e9cd 2306 	strd	r2, r3, [sp, #24]
 8000598:	f002 f992 	bl	80028c0 <HAL_RCC_ClockConfig>
 800059c:	b108      	cbz	r0, 80005a2 <SystemClock_Config+0xa2>
 800059e:	b672      	cpsid	i
 80005a0:	e7fe      	b.n	80005a0 <SystemClock_Config+0xa0>
 80005a2:	b014      	add	sp, #80	@ 0x50
 80005a4:	bd10      	pop	{r4, pc}
 80005a6:	bf00      	nop
 80005a8:	40023800 	.word	0x40023800
 80005ac:	40007000 	.word	0x40007000

080005b0 <PeriphCommonClock_Config>:
 80005b0:	b500      	push	{lr}
 80005b2:	b0a3      	sub	sp, #140	@ 0x8c
 80005b4:	2280      	movs	r2, #128	@ 0x80
 80005b6:	2100      	movs	r1, #0
 80005b8:	a802      	add	r0, sp, #8
 80005ba:	f006 f9e5 	bl	8006988 <memset>
 80005be:	f44f 1340 	mov.w	r3, #3145728	@ 0x300000
 80005c2:	2005      	movs	r0, #5
 80005c4:	f04f 0e01 	mov.w	lr, #1
 80005c8:	9301      	str	r3, [sp, #4]
 80005ca:	f44f 73c0 	mov.w	r3, #384	@ 0x180
 80005ce:	9306      	str	r3, [sp, #24]
 80005d0:	2302      	movs	r3, #2
 80005d2:	e9cd 3007 	strd	r3, r0, [sp, #28]
 80005d6:	2303      	movs	r3, #3
 80005d8:	a801      	add	r0, sp, #4
 80005da:	9309      	str	r3, [sp, #36]	@ 0x24
 80005dc:	f44f 3300 	mov.w	r3, #131072	@ 0x20000
 80005e0:	e9cd e30b 	strd	lr, r3, [sp, #44]	@ 0x2c
 80005e4:	f04f 6300 	mov.w	r3, #134217728	@ 0x8000000
 80005e8:	9320      	str	r3, [sp, #128]	@ 0x80
 80005ea:	f002 fa35 	bl	8002a58 <HAL_RCCEx_PeriphCLKConfig>
 80005ee:	b108      	cbz	r0, 80005f4 <PeriphCommonClock_Config+0x44>
 80005f0:	b672      	cpsid	i
 80005f2:	e7fe      	b.n	80005f2 <PeriphCommonClock_Config+0x42>
 80005f4:	b023      	add	sp, #140	@ 0x8c
 80005f6:	f85d fb04 	ldr.w	pc, [sp], #4
	...

080005fc <main>:
 80005fc:	e92d 4ff0 	stmdb	sp!, {r4, r5, r6, r7, r8, r9, sl, fp, lr}
 8000600:	b09d      	sub	sp, #116	@ 0x74
 8000602:	4ec2      	ldr	r6, [pc, #776]	@ (800090c <main+0x310>)
 8000604:	f000 fdff 	bl	8001206 <HAL_Init>
 8000608:	2400      	movs	r4, #0
 800060a:	f7ff ff79 	bl	8000500 <SystemClock_Config>
 800060e:	2502      	movs	r5, #2
 8000610:	f7ff ffce 	bl	80005b0 <PeriphCommonClock_Config>
 8000614:	2214      	movs	r2, #20
 8000616:	2100      	movs	r1, #0
 8000618:	a812      	add	r0, sp, #72	@ 0x48
 800061a:	f006 f9b5 	bl	8006988 <memset>
 800061e:	6b33      	ldr	r3, [r6, #48]	@ 0x30
 8000620:	2201      	movs	r2, #1
 8000622:	2120      	movs	r1, #32
 8000624:	f043 0310 	orr.w	r3, r3, #16
 8000628:	48b9      	ldr	r0, [pc, #740]	@ (8000910 <main+0x314>)
 800062a:	f04f 0a0e 	mov.w	sl, #14
 800062e:	2703      	movs	r7, #3
 8000630:	6333      	str	r3, [r6, #48]	@ 0x30
 8000632:	f04f 090c 	mov.w	r9, #12
 8000636:	6b33      	ldr	r3, [r6, #48]	@ 0x30
 8000638:	f04f 0801 	mov.w	r8, #1
 800063c:	f04f 0b80 	mov.w	fp, #128	@ 0x80
 8000640:	f003 0310 	and.w	r3, r3, #16
 8000644:	9302      	str	r3, [sp, #8]
 8000646:	9b02      	ldr	r3, [sp, #8]
 8000648:	6b33      	ldr	r3, [r6, #48]	@ 0x30
 800064a:	f043 0340 	orr.w	r3, r3, #64	@ 0x40
 800064e:	6333      	str	r3, [r6, #48]	@ 0x30
 8000650:	6b33      	ldr	r3, [r6, #48]	@ 0x30
 8000652:	f003 0340 	and.w	r3, r3, #64	@ 0x40
 8000656:	9303      	str	r3, [sp, #12]
 8000658:	9b03      	ldr	r3, [sp, #12]
 800065a:	6b33      	ldr	r3, [r6, #48]	@ 0x30
 800065c:	f043 0302 	orr.w	r3, r3, #2
 8000660:	6333      	str	r3, [r6, #48]	@ 0x30
 8000662:	6b33      	ldr	r3, [r6, #48]	@ 0x30
 8000664:	f003 0302 	and.w	r3, r3, #2
 8000668:	9304      	str	r3, [sp, #16]
 800066a:	9b04      	ldr	r3, [sp, #16]
 800066c:	6b33      	ldr	r3, [r6, #48]	@ 0x30
 800066e:	f043 0308 	orr.w	r3, r3, #8
 8000672:	6333      	str	r3, [r6, #48]	@ 0x30
 8000674:	6b33      	ldr	r3, [r6, #48]	@ 0x30
 8000676:	f003 0308 	and.w	r3, r3, #8
 800067a:	9305      	str	r3, [sp, #20]
 800067c:	9b05      	ldr	r3, [sp, #20]
 800067e:	6b33      	ldr	r3, [r6, #48]	@ 0x30
 8000680:	f043 0304 	orr.w	r3, r3, #4
 8000684:	6333      	str	r3, [r6, #48]	@ 0x30
 8000686:	6b33      	ldr	r3, [r6, #48]	@ 0x30
 8000688:	f003 0304 	and.w	r3, r3, #4
 800068c:	9306      	str	r3, [sp, #24]
 800068e:	9b06      	ldr	r3, [sp, #24]
 8000690:	6b33      	ldr	r3, [r6, #48]	@ 0x30
 8000692:	f043 0301 	orr.w	r3, r3, #1
 8000696:	6333      	str	r3, [r6, #48]	@ 0x30
 8000698:	6b33      	ldr	r3, [r6, #48]	@ 0x30
 800069a:	f003 0301 	and.w	r3, r3, #1
 800069e:	9307      	str	r3, [sp, #28]
 80006a0:	9b07      	ldr	r3, [sp, #28]
 80006a2:	6b33      	ldr	r3, [r6, #48]	@ 0x30
 80006a4:	f443 7300 	orr.w	r3, r3, #512	@ 0x200
 80006a8:	6333      	str	r3, [r6, #48]	@ 0x30
 80006aa:	6b33      	ldr	r3, [r6, #48]	@ 0x30
 80006ac:	f403 7300 	and.w	r3, r3, #512	@ 0x200
 80006b0:	9308      	str	r3, [sp, #32]
 80006b2:	9b08      	ldr	r3, [sp, #32]
 80006b4:	6b33      	ldr	r3, [r6, #48]	@ 0x30
 80006b6:	f443 7380 	orr.w	r3, r3, #256	@ 0x100
 80006ba:	6333      	str	r3, [r6, #48]	@ 0x30
 80006bc:	6b33      	ldr	r3, [r6, #48]	@ 0x30
 80006be:	f403 7380 	and.w	r3, r3, #256	@ 0x100
 80006c2:	9309      	str	r3, [sp, #36]	@ 0x24
 80006c4:	9b09      	ldr	r3, [sp, #36]	@ 0x24
 80006c6:	6b33      	ldr	r3, [r6, #48]	@ 0x30
 80006c8:	f443 6380 	orr.w	r3, r3, #1024	@ 0x400
 80006cc:	6333      	str	r3, [r6, #48]	@ 0x30
 80006ce:	6b33      	ldr	r3, [r6, #48]	@ 0x30
 80006d0:	f403 6380 	and.w	r3, r3, #1024	@ 0x400
 80006d4:	930a      	str	r3, [sp, #40]	@ 0x28
 80006d6:	9b0a      	ldr	r3, [sp, #40]	@ 0x28
 80006d8:	6b33      	ldr	r3, [r6, #48]	@ 0x30
 80006da:	f043 0320 	orr.w	r3, r3, #32
 80006de:	6333      	str	r3, [r6, #48]	@ 0x30
 80006e0:	6b33      	ldr	r3, [r6, #48]	@ 0x30
 80006e2:	f003 0320 	and.w	r3, r3, #32
 80006e6:	930b      	str	r3, [sp, #44]	@ 0x2c
 80006e8:	9b0b      	ldr	r3, [sp, #44]	@ 0x2c
 80006ea:	6b33      	ldr	r3, [r6, #48]	@ 0x30
 80006ec:	f043 0380 	orr.w	r3, r3, #128	@ 0x80
 80006f0:	6333      	str	r3, [r6, #48]	@ 0x30
 80006f2:	6b33      	ldr	r3, [r6, #48]	@ 0x30
 80006f4:	f003 0380 	and.w	r3, r3, #128	@ 0x80
 80006f8:	930c      	str	r3, [sp, #48]	@ 0x30
 80006fa:	9b0c      	ldr	r3, [sp, #48]	@ 0x30
 80006fc:	f001 f878 	bl	80017f0 <HAL_GPIO_WritePin>
 8000700:	2200      	movs	r2, #0
 8000702:	210c      	movs	r1, #12
 8000704:	4883      	ldr	r0, [pc, #524]	@ (8000914 <main+0x318>)
 8000706:	f001 f873 	bl	80017f0 <HAL_GPIO_WritePin>
 800070a:	2201      	movs	r2, #1
 800070c:	2108      	movs	r1, #8
 800070e:	4882      	ldr	r0, [pc, #520]	@ (8000918 <main+0x31c>)
 8000710:	f001 f86e 	bl	80017f0 <HAL_GPIO_WritePin>
 8000714:	2201      	movs	r2, #1
 8000716:	f44f 5180 	mov.w	r1, #4096	@ 0x1000
 800071a:	487e      	ldr	r0, [pc, #504]	@ (8000914 <main+0x318>)
 800071c:	f001 f868 	bl	80017f0 <HAL_GPIO_WritePin>
 8000720:	2200      	movs	r2, #0
 8000722:	f44f 5100 	mov.w	r1, #8192	@ 0x2000
 8000726:	487d      	ldr	r0, [pc, #500]	@ (800091c <main+0x320>)
 8000728:	f001 f862 	bl	80017f0 <HAL_GPIO_WritePin>
 800072c:	2200      	movs	r2, #0
 800072e:	21c8      	movs	r1, #200	@ 0xc8
 8000730:	487b      	ldr	r0, [pc, #492]	@ (8000920 <main+0x324>)
 8000732:	f001 f85d 	bl	80017f0 <HAL_GPIO_WritePin>
 8000736:	2310      	movs	r3, #16
 8000738:	a912      	add	r1, sp, #72	@ 0x48
 800073a:	487a      	ldr	r0, [pc, #488]	@ (8000924 <main+0x328>)
 800073c:	f8cd a058 	str.w	sl, [sp, #88]	@ 0x58
 8000740:	e9cd 3512 	strd	r3, r5, [sp, #72]	@ 0x48
 8000744:	e9cd 4414 	strd	r4, r4, [sp, #80]	@ 0x50
 8000748:	f000 ff6e 	bl	8001628 <HAL_GPIO_Init>
 800074c:	2308      	movs	r3, #8
 800074e:	a912      	add	r1, sp, #72	@ 0x48
 8000750:	4874      	ldr	r0, [pc, #464]	@ (8000924 <main+0x328>)
 8000752:	9414      	str	r4, [sp, #80]	@ 0x50
 8000754:	e9cd 3412 	strd	r3, r4, [sp, #72]	@ 0x48
 8000758:	f000 ff66 	bl	8001628 <HAL_GPIO_Init>
 800075c:	2304      	movs	r3, #4
 800075e:	a912      	add	r1, sp, #72	@ 0x48
 8000760:	4870      	ldr	r0, [pc, #448]	@ (8000924 <main+0x328>)
 8000762:	9414      	str	r4, [sp, #80]	@ 0x50
 8000764:	e9cd 3512 	strd	r3, r5, [sp, #72]	@ 0x48
 8000768:	2309      	movs	r3, #9
 800076a:	e9cd 7315 	strd	r7, r3, [sp, #84]	@ 0x54
 800076e:	f000 ff5b 	bl	8001628 <HAL_GPIO_Init>
 8000772:	f44f 43d0 	mov.w	r3, #26624	@ 0x6800
 8000776:	a912      	add	r1, sp, #72	@ 0x48
 8000778:	4869      	ldr	r0, [pc, #420]	@ (8000920 <main+0x324>)
 800077a:	e9cd 3512 	strd	r3, r5, [sp, #72]	@ 0x48
 800077e:	230b      	movs	r3, #11
 8000780:	e9cd 4714 	strd	r4, r7, [sp, #80]	@ 0x50
 8000784:	9316      	str	r3, [sp, #88]	@ 0x58
 8000786:	f000 ff4f 	bl	8001628 <HAL_GPIO_Init>
 800078a:	f64f 7383 	movw	r3, #65411	@ 0xff83
 800078e:	a912      	add	r1, sp, #72	@ 0x48
 8000790:	4864      	ldr	r0, [pc, #400]	@ (8000924 <main+0x328>)
 8000792:	f8cd 9058 	str.w	r9, [sp, #88]	@ 0x58
 8000796:	e9cd 3512 	strd	r3, r5, [sp, #72]	@ 0x48
 800079a:	e9cd 4714 	strd	r4, r7, [sp, #80]	@ 0x50
 800079e:	f000 ff43 	bl	8001628 <HAL_GPIO_Init>
 80007a2:	f44f 7040 	mov.w	r0, #768	@ 0x300
 80007a6:	2312      	movs	r3, #18
 80007a8:	a912      	add	r1, sp, #72	@ 0x48
 80007aa:	e9cd 0312 	strd	r0, r3, [sp, #72]	@ 0x48
 80007ae:	2304      	movs	r3, #4
 80007b0:	485d      	ldr	r0, [pc, #372]	@ (8000928 <main+0x32c>)
 80007b2:	9316      	str	r3, [sp, #88]	@ 0x58
 80007b4:	e9cd 8414 	strd	r8, r4, [sp, #80]	@ 0x50
 80007b8:	f000 ff36 	bl	8001628 <HAL_GPIO_Init>
 80007bc:	f643 4323 	movw	r3, #15395	@ 0x3c23
 80007c0:	a912      	add	r1, sp, #72	@ 0x48
 80007c2:	4859      	ldr	r0, [pc, #356]	@ (8000928 <main+0x32c>)
 80007c4:	e9cd 3512 	strd	r3, r5, [sp, #72]	@ 0x48
 80007c8:	230a      	movs	r3, #10
 80007ca:	e9cd 4714 	strd	r4, r7, [sp, #80]	@ 0x50
 80007ce:	9316      	str	r3, [sp, #88]	@ 0x58
 80007d0:	f000 ff2a 	bl	8001628 <HAL_GPIO_Init>
 80007d4:	2310      	movs	r3, #16
 80007d6:	a912      	add	r1, sp, #72	@ 0x48
 80007d8:	4853      	ldr	r0, [pc, #332]	@ (8000928 <main+0x32c>)
 80007da:	9516      	str	r5, [sp, #88]	@ 0x58
 80007dc:	e9cd 3512 	strd	r3, r5, [sp, #72]	@ 0x48
 80007e0:	e9cd 4414 	strd	r4, r4, [sp, #80]	@ 0x50
 80007e4:	f000 ff20 	bl	8001628 <HAL_GPIO_Init>
 80007e8:	2308      	movs	r3, #8
 80007ea:	a912      	add	r1, sp, #72	@ 0x48
 80007ec:	4848      	ldr	r0, [pc, #288]	@ (8000910 <main+0x314>)
 80007ee:	9316      	str	r3, [sp, #88]	@ 0x58
 80007f0:	e9cd b512 	strd	fp, r5, [sp, #72]	@ 0x48
 80007f4:	e9cd 4414 	strd	r4, r4, [sp, #80]	@ 0x50
 80007f8:	f000 ff16 	bl	8001628 <HAL_GPIO_Init>
 80007fc:	f44f 53f8 	mov.w	r3, #7936	@ 0x1f00
 8000800:	a912      	add	r1, sp, #72	@ 0x48
 8000802:	484a      	ldr	r0, [pc, #296]	@ (800092c <main+0x330>)
 8000804:	f8cd 9058 	str.w	r9, [sp, #88]	@ 0x58
 8000808:	e9cd 3512 	strd	r3, r5, [sp, #72]	@ 0x48
 800080c:	e9cd 4714 	strd	r4, r7, [sp, #80]	@ 0x50
 8000810:	f000 ff0a 	bl	8001628 <HAL_GPIO_Init>
 8000814:	f44f 4300 	mov.w	r3, #32768	@ 0x8000
 8000818:	a912      	add	r1, sp, #72	@ 0x48
 800081a:	4845      	ldr	r0, [pc, #276]	@ (8000930 <main+0x334>)
 800081c:	f8cd 8058 	str.w	r8, [sp, #88]	@ 0x58
 8000820:	e9cd 3512 	strd	r3, r5, [sp, #72]	@ 0x48
 8000824:	e9cd 4414 	strd	r4, r4, [sp, #80]	@ 0x50
 8000828:	f000 fefe 	bl	8001628 <HAL_GPIO_Init>
 800082c:	2360      	movs	r3, #96	@ 0x60
 800082e:	a912      	add	r1, sp, #72	@ 0x48
 8000830:	483c      	ldr	r0, [pc, #240]	@ (8000924 <main+0x328>)
 8000832:	e9cd 3512 	strd	r3, r5, [sp, #72]	@ 0x48
 8000836:	230d      	movs	r3, #13
 8000838:	e9cd 4414 	strd	r4, r4, [sp, #80]	@ 0x50
 800083c:	9316      	str	r3, [sp, #88]	@ 0x58
 800083e:	f000 fef3 	bl	8001628 <HAL_GPIO_Init>
 8000842:	2307      	movs	r3, #7
 8000844:	a912      	add	r1, sp, #72	@ 0x48
 8000846:	4838      	ldr	r0, [pc, #224]	@ (8000928 <main+0x32c>)
 8000848:	9316      	str	r3, [sp, #88]	@ 0x58
 800084a:	e9cd b512 	strd	fp, r5, [sp, #72]	@ 0x48
 800084e:	e9cd 4414 	strd	r4, r4, [sp, #80]	@ 0x50
 8000852:	f000 fee9 	bl	8001628 <HAL_GPIO_Init>
 8000856:	2340      	movs	r3, #64	@ 0x40
 8000858:	a912      	add	r1, sp, #72	@ 0x48
 800085a:	4833      	ldr	r0, [pc, #204]	@ (8000928 <main+0x32c>)
 800085c:	f44f 5b80 	mov.w	fp, #4096	@ 0x1000
 8000860:	e9cd 3512 	strd	r3, r5, [sp, #72]	@ 0x48
 8000864:	230a      	movs	r3, #10
 8000866:	e9cd 4714 	strd	r4, r7, [sp, #80]	@ 0x50
 800086a:	9316      	str	r3, [sp, #88]	@ 0x58
 800086c:	f000 fedc 	bl	8001628 <HAL_GPIO_Init>
 8000870:	f248 1333 	movw	r3, #33075	@ 0x8133
 8000874:	a912      	add	r1, sp, #72	@ 0x48
 8000876:	482a      	ldr	r0, [pc, #168]	@ (8000920 <main+0x324>)
 8000878:	f8cd 9058 	str.w	r9, [sp, #88]	@ 0x58
 800087c:	e9cd 3512 	strd	r3, r5, [sp, #72]	@ 0x48
 8000880:	e9cd 4714 	strd	r4, r7, [sp, #80]	@ 0x50
 8000884:	f000 fed0 	bl	8001628 <HAL_GPIO_Init>
 8000888:	f64e 73ff 	movw	r3, #61439	@ 0xefff
 800088c:	a912      	add	r1, sp, #72	@ 0x48
 800088e:	4829      	ldr	r0, [pc, #164]	@ (8000934 <main+0x338>)
 8000890:	f8cd a058 	str.w	sl, [sp, #88]	@ 0x58
 8000894:	e9cd 3512 	strd	r3, r5, [sp, #72]	@ 0x48
 8000898:	e9cd 4414 	strd	r4, r4, [sp, #80]	@ 0x50
 800089c:	f000 fec4 	bl	8001628 <HAL_GPIO_Init>
 80008a0:	a912      	add	r1, sp, #72	@ 0x48
 80008a2:	4824      	ldr	r0, [pc, #144]	@ (8000934 <main+0x338>)
 80008a4:	9414      	str	r4, [sp, #80]	@ 0x50
 80008a6:	e9cd b412 	strd	fp, r4, [sp, #72]	@ 0x48
 80008aa:	f000 febd 	bl	8001628 <HAL_GPIO_Init>
 80008ae:	f44f 1290 	mov.w	r2, #1179648	@ 0x120000
 80008b2:	2340      	movs	r3, #64	@ 0x40
 80008b4:	a912      	add	r1, sp, #72	@ 0x48
 80008b6:	4816      	ldr	r0, [pc, #88]	@ (8000910 <main+0x314>)
 80008b8:	9414      	str	r4, [sp, #80]	@ 0x50
 80008ba:	e9cd 3212 	strd	r3, r2, [sp, #72]	@ 0x48
 80008be:	f000 feb3 	bl	8001628 <HAL_GPIO_Init>
 80008c2:	f24c 7303 	movw	r3, #50947	@ 0xc703
 80008c6:	a912      	add	r1, sp, #72	@ 0x48
 80008c8:	4811      	ldr	r0, [pc, #68]	@ (8000910 <main+0x314>)
 80008ca:	f8cd 9058 	str.w	r9, [sp, #88]	@ 0x58
 80008ce:	e9cd 3512 	strd	r3, r5, [sp, #72]	@ 0x48
 80008d2:	e9cd 4714 	strd	r4, r7, [sp, #80]	@ 0x50
 80008d6:	f000 fea7 	bl	8001628 <HAL_GPIO_Init>
 80008da:	23f7      	movs	r3, #247	@ 0xf7
 80008dc:	a912      	add	r1, sp, #72	@ 0x48
 80008de:	480e      	ldr	r0, [pc, #56]	@ (8000918 <main+0x31c>)
 80008e0:	f8cd a058 	str.w	sl, [sp, #88]	@ 0x58
 80008e4:	e9cd 3512 	strd	r3, r5, [sp, #72]	@ 0x48
 80008e8:	e9cd 4414 	strd	r4, r4, [sp, #80]	@ 0x50
 80008ec:	f000 fe9c 	bl	8001628 <HAL_GPIO_Init>
 80008f0:	2309      	movs	r3, #9
 80008f2:	a912      	add	r1, sp, #72	@ 0x48
 80008f4:	480a      	ldr	r0, [pc, #40]	@ (8000920 <main+0x324>)
 80008f6:	9316      	str	r3, [sp, #88]	@ 0x58
 80008f8:	e9cd b512 	strd	fp, r5, [sp, #72]	@ 0x48
 80008fc:	e9cd 4414 	strd	r4, r4, [sp, #80]	@ 0x50
 8000900:	f000 fe92 	bl	8001628 <HAL_GPIO_Init>
 8000904:	2320      	movs	r3, #32
 8000906:	a912      	add	r1, sp, #72	@ 0x48
 8000908:	e016      	b.n	8000938 <main+0x33c>
 800090a:	bf00      	nop
 800090c:	40023800 	.word	0x40023800
 8000910:	40020c00 	.word	0x40020c00
 8000914:	40022000 	.word	0x40022000
 8000918:	40022800 	.word	0x40022800
 800091c:	40021c00 	.word	0x40021c00
 8000920:	40021800 	.word	0x40021800
 8000924:	40021000 	.word	0x40021000
 8000928:	40020400 	.word	0x40020400
 800092c:	40020800 	.word	0x40020800
 8000930:	40020000 	.word	0x40020000
 8000934:	40022400 	.word	0x40022400
 8000938:	48c9      	ldr	r0, [pc, #804]	@ (8000c60 <main+0x664>)
 800093a:	f44f 7b00 	mov.w	fp, #512	@ 0x200
 800093e:	e9cd 3812 	strd	r3, r8, [sp, #72]	@ 0x48
 8000942:	e9cd 4414 	strd	r4, r4, [sp, #80]	@ 0x50
 8000946:	f000 fe6f 	bl	8001628 <HAL_GPIO_Init>
 800094a:	2308      	movs	r3, #8
 800094c:	a912      	add	r1, sp, #72	@ 0x48
 800094e:	48c4      	ldr	r0, [pc, #784]	@ (8000c60 <main+0x664>)
 8000950:	e9cd 3512 	strd	r3, r5, [sp, #72]	@ 0x48
 8000954:	230d      	movs	r3, #13
 8000956:	e9cd 4414 	strd	r4, r4, [sp, #80]	@ 0x50
 800095a:	9316      	str	r3, [sp, #88]	@ 0x58
 800095c:	f000 fe64 	bl	8001628 <HAL_GPIO_Init>
 8000960:	f241 030c 	movw	r3, #4108	@ 0x100c
 8000964:	a912      	add	r1, sp, #72	@ 0x48
 8000966:	48bf      	ldr	r0, [pc, #764]	@ (8000c64 <main+0x668>)
 8000968:	e9cd 3812 	strd	r3, r8, [sp, #72]	@ 0x48
 800096c:	e9cd 4414 	strd	r4, r4, [sp, #80]	@ 0x50
 8000970:	f000 fe5a 	bl	8001628 <HAL_GPIO_Init>
 8000974:	f44f 5300 	mov.w	r3, #8192	@ 0x2000
 8000978:	a912      	add	r1, sp, #72	@ 0x48
 800097a:	48bb      	ldr	r0, [pc, #748]	@ (8000c68 <main+0x66c>)
 800097c:	9414      	str	r4, [sp, #80]	@ 0x50
 800097e:	e9cd 3412 	strd	r3, r4, [sp, #72]	@ 0x48
 8000982:	f000 fe51 	bl	8001628 <HAL_GPIO_Init>
 8000986:	f64f 033f 	movw	r3, #63551	@ 0xf83f
 800098a:	a912      	add	r1, sp, #72	@ 0x48
 800098c:	48b7      	ldr	r0, [pc, #732]	@ (8000c6c <main+0x670>)
 800098e:	f8cd 9058 	str.w	r9, [sp, #88]	@ 0x58
 8000992:	e9cd 3512 	strd	r3, r5, [sp, #72]	@ 0x48
 8000996:	e9cd 4714 	strd	r4, r7, [sp, #80]	@ 0x50
 800099a:	f000 fe45 	bl	8001628 <HAL_GPIO_Init>
 800099e:	f44f 4346 	mov.w	r3, #50688	@ 0xc600
 80009a2:	a912      	add	r1, sp, #72	@ 0x48
 80009a4:	48af      	ldr	r0, [pc, #700]	@ (8000c64 <main+0x668>)
 80009a6:	f8cd a058 	str.w	sl, [sp, #88]	@ 0x58
 80009aa:	f04f 0a28 	mov.w	sl, #40	@ 0x28
 80009ae:	e9cd 3512 	strd	r3, r5, [sp, #72]	@ 0x48
 80009b2:	e9cd 4414 	strd	r4, r4, [sp, #80]	@ 0x50
 80009b6:	f000 fe37 	bl	8001628 <HAL_GPIO_Init>
 80009ba:	2308      	movs	r3, #8
 80009bc:	a912      	add	r1, sp, #72	@ 0x48
 80009be:	48ac      	ldr	r0, [pc, #688]	@ (8000c70 <main+0x674>)
 80009c0:	e9cd 3812 	strd	r3, r8, [sp, #72]	@ 0x48
 80009c4:	e9cd 4414 	strd	r4, r4, [sp, #80]	@ 0x50
 80009c8:	f000 fe2e 	bl	8001628 <HAL_GPIO_Init>
 80009cc:	230d      	movs	r3, #13
 80009ce:	a912      	add	r1, sp, #72	@ 0x48
 80009d0:	48a8      	ldr	r0, [pc, #672]	@ (8000c74 <main+0x678>)
 80009d2:	9316      	str	r3, [sp, #88]	@ 0x58
 80009d4:	e9cd b512 	strd	fp, r5, [sp, #72]	@ 0x48
 80009d8:	e9cd 4414 	strd	r4, r4, [sp, #80]	@ 0x50
 80009dc:	f000 fe24 	bl	8001628 <HAL_GPIO_Init>
 80009e0:	2310      	movs	r3, #16
 80009e2:	a912      	add	r1, sp, #72	@ 0x48
 80009e4:	489e      	ldr	r0, [pc, #632]	@ (8000c60 <main+0x664>)
 80009e6:	9414      	str	r4, [sp, #80]	@ 0x50
 80009e8:	e9cd 3412 	strd	r3, r4, [sp, #72]	@ 0x48
 80009ec:	f000 fe1c 	bl	8001628 <HAL_GPIO_Init>
 80009f0:	2304      	movs	r3, #4
 80009f2:	a912      	add	r1, sp, #72	@ 0x48
 80009f4:	489a      	ldr	r0, [pc, #616]	@ (8000c60 <main+0x664>)
 80009f6:	f8cd 9058 	str.w	r9, [sp, #88]	@ 0x58
 80009fa:	e9cd 3512 	strd	r3, r5, [sp, #72]	@ 0x48
 80009fe:	e9cd 4714 	strd	r4, r7, [sp, #80]	@ 0x50
 8000a02:	f000 fe11 	bl	8001628 <HAL_GPIO_Init>
 8000a06:	f248 0304 	movw	r3, #32772	@ 0x8004
 8000a0a:	a912      	add	r1, sp, #72	@ 0x48
 8000a0c:	489a      	ldr	r0, [pc, #616]	@ (8000c78 <main+0x67c>)
 8000a0e:	9414      	str	r4, [sp, #80]	@ 0x50
 8000a10:	e9cd 3412 	strd	r3, r4, [sp, #72]	@ 0x48
 8000a14:	f000 fe08 	bl	8001628 <HAL_GPIO_Init>
 8000a18:	2305      	movs	r3, #5
 8000a1a:	a912      	add	r1, sp, #72	@ 0x48
 8000a1c:	4891      	ldr	r0, [pc, #580]	@ (8000c64 <main+0x668>)
 8000a1e:	9316      	str	r3, [sp, #88]	@ 0x58
 8000a20:	e9cd 5512 	strd	r5, r5, [sp, #72]	@ 0x48
 8000a24:	e9cd 4414 	strd	r4, r4, [sp, #80]	@ 0x50
 8000a28:	f000 fdfe 	bl	8001628 <HAL_GPIO_Init>
 8000a2c:	f44f 5300 	mov.w	r3, #8192	@ 0x2000
 8000a30:	a912      	add	r1, sp, #72	@ 0x48
 8000a32:	4891      	ldr	r0, [pc, #580]	@ (8000c78 <main+0x67c>)
 8000a34:	e9cd 3812 	strd	r3, r8, [sp, #72]	@ 0x48
 8000a38:	e9cd 4414 	strd	r4, r4, [sp, #80]	@ 0x50
 8000a3c:	f000 fdf4 	bl	8001628 <HAL_GPIO_Init>
 8000a40:	f44f 41bc 	mov.w	r1, #24064	@ 0x5e00
 8000a44:	230d      	movs	r3, #13
 8000a46:	488c      	ldr	r0, [pc, #560]	@ (8000c78 <main+0x67c>)
 8000a48:	e9cd 1512 	strd	r1, r5, [sp, #72]	@ 0x48
 8000a4c:	a912      	add	r1, sp, #72	@ 0x48
 8000a4e:	9316      	str	r3, [sp, #88]	@ 0x58
 8000a50:	e9cd 4414 	strd	r4, r4, [sp, #80]	@ 0x50
 8000a54:	f000 fde8 	bl	8001628 <HAL_GPIO_Init>
 8000a58:	a912      	add	r1, sp, #72	@ 0x48
 8000a5a:	4882      	ldr	r0, [pc, #520]	@ (8000c64 <main+0x668>)
 8000a5c:	9516      	str	r5, [sp, #88]	@ 0x58
 8000a5e:	e9cd 8512 	strd	r8, r5, [sp, #72]	@ 0x48
 8000a62:	e9cd 4414 	strd	r4, r4, [sp, #80]	@ 0x50
 8000a66:	f000 fddf 	bl	8001628 <HAL_GPIO_Init>
 8000a6a:	2307      	movs	r3, #7
 8000a6c:	a912      	add	r1, sp, #72	@ 0x48
 8000a6e:	4883      	ldr	r0, [pc, #524]	@ (8000c7c <main+0x680>)
 8000a70:	9316      	str	r3, [sp, #88]	@ 0x58
 8000a72:	e9cd b512 	strd	fp, r5, [sp, #72]	@ 0x48
 8000a76:	e9cd 4414 	strd	r4, r4, [sp, #80]	@ 0x50
 8000a7a:	f000 fdd5 	bl	8001628 <HAL_GPIO_Init>
 8000a7e:	f44f 7380 	mov.w	r3, #256	@ 0x100
 8000a82:	a912      	add	r1, sp, #72	@ 0x48
 8000a84:	487d      	ldr	r0, [pc, #500]	@ (8000c7c <main+0x680>)
 8000a86:	f8cd 8058 	str.w	r8, [sp, #88]	@ 0x58
 8000a8a:	e9cd 3512 	strd	r3, r5, [sp, #72]	@ 0x48
 8000a8e:	e9cd 4414 	strd	r4, r4, [sp, #80]	@ 0x50
 8000a92:	f000 fdc9 	bl	8001628 <HAL_GPIO_Init>
 8000a96:	f44f 5300 	mov.w	r3, #8192	@ 0x2000
 8000a9a:	f44f 1290 	mov.w	r2, #1179648	@ 0x120000
 8000a9e:	a912      	add	r1, sp, #72	@ 0x48
 8000aa0:	4870      	ldr	r0, [pc, #448]	@ (8000c64 <main+0x668>)
 8000aa2:	9414      	str	r4, [sp, #80]	@ 0x50
 8000aa4:	e9cd 3212 	strd	r3, r2, [sp, #72]	@ 0x48
 8000aa8:	f000 fdbe 	bl	8001628 <HAL_GPIO_Init>
 8000aac:	22c0      	movs	r2, #192	@ 0xc0
 8000aae:	2308      	movs	r3, #8
 8000ab0:	a912      	add	r1, sp, #72	@ 0x48
 8000ab2:	486d      	ldr	r0, [pc, #436]	@ (8000c68 <main+0x66c>)
 8000ab4:	9316      	str	r3, [sp, #88]	@ 0x58
 8000ab6:	e9cd 2512 	strd	r2, r5, [sp, #72]	@ 0x48
 8000aba:	e9cd 4714 	strd	r4, r7, [sp, #80]	@ 0x50
 8000abe:	f000 fdb3 	bl	8001628 <HAL_GPIO_Init>
 8000ac2:	2310      	movs	r3, #16
 8000ac4:	a912      	add	r1, sp, #72	@ 0x48
 8000ac6:	486c      	ldr	r0, [pc, #432]	@ (8000c78 <main+0x67c>)
 8000ac8:	e9cd 3512 	strd	r3, r5, [sp, #72]	@ 0x48
 8000acc:	230a      	movs	r3, #10
 8000ace:	e9cd 4714 	strd	r4, r7, [sp, #80]	@ 0x50
 8000ad2:	9316      	str	r3, [sp, #88]	@ 0x58
 8000ad4:	f000 fda8 	bl	8001628 <HAL_GPIO_Init>
 8000ad8:	a912      	add	r1, sp, #72	@ 0x48
 8000ada:	4867      	ldr	r0, [pc, #412]	@ (8000c78 <main+0x67c>)
 8000adc:	f8cd 9058 	str.w	r9, [sp, #88]	@ 0x58
 8000ae0:	e9cd 4714 	strd	r4, r7, [sp, #80]	@ 0x50
 8000ae4:	e9cd a512 	strd	sl, r5, [sp, #72]	@ 0x48
 8000ae8:	f000 fd9e 	bl	8001628 <HAL_GPIO_Init>
 8000aec:	22c8      	movs	r2, #200	@ 0xc8
 8000aee:	a912      	add	r1, sp, #72	@ 0x48
 8000af0:	4860      	ldr	r0, [pc, #384]	@ (8000c74 <main+0x678>)
 8000af2:	e9cd 2812 	strd	r2, r8, [sp, #72]	@ 0x48
 8000af6:	e9cd 4414 	strd	r4, r4, [sp, #80]	@ 0x50
 8000afa:	f000 fd95 	bl	8001628 <HAL_GPIO_Init>
 8000afe:	f44f 62f8 	mov.w	r2, #1984	@ 0x7c0
 8000b02:	a912      	add	r1, sp, #72	@ 0x48
 8000b04:	4859      	ldr	r0, [pc, #356]	@ (8000c6c <main+0x670>)
 8000b06:	9414      	str	r4, [sp, #80]	@ 0x50
 8000b08:	e9cd 2712 	strd	r2, r7, [sp, #72]	@ 0x48
 8000b0c:	f000 fd8c 	bl	8001628 <HAL_GPIO_Init>
 8000b10:	2308      	movs	r3, #8
 8000b12:	a912      	add	r1, sp, #72	@ 0x48
 8000b14:	4854      	ldr	r0, [pc, #336]	@ (8000c68 <main+0x66c>)
 8000b16:	f8cd 9058 	str.w	r9, [sp, #88]	@ 0x58
 8000b1a:	e9cd 3512 	strd	r3, r5, [sp, #72]	@ 0x48
 8000b1e:	e9cd 4714 	strd	r4, r7, [sp, #80]	@ 0x50
 8000b22:	f000 fd81 	bl	8001628 <HAL_GPIO_Init>
 8000b26:	2305      	movs	r3, #5
 8000b28:	a912      	add	r1, sp, #72	@ 0x48
 8000b2a:	484f      	ldr	r0, [pc, #316]	@ (8000c68 <main+0x66c>)
 8000b2c:	e9cd 3512 	strd	r3, r5, [sp, #72]	@ 0x48
 8000b30:	230a      	movs	r3, #10
 8000b32:	e9cd 4714 	strd	r4, r7, [sp, #80]	@ 0x50
 8000b36:	9316      	str	r3, [sp, #88]	@ 0x58
 8000b38:	f000 fd76 	bl	8001628 <HAL_GPIO_Init>
 8000b3c:	2232      	movs	r2, #50	@ 0x32
 8000b3e:	230b      	movs	r3, #11
 8000b40:	a912      	add	r1, sp, #72	@ 0x48
 8000b42:	4849      	ldr	r0, [pc, #292]	@ (8000c68 <main+0x66c>)
 8000b44:	9316      	str	r3, [sp, #88]	@ 0x58
 8000b46:	e9cd 2512 	strd	r2, r5, [sp, #72]	@ 0x48
 8000b4a:	e9cd 4714 	strd	r4, r7, [sp, #80]	@ 0x50
 8000b4e:	f000 fd6b 	bl	8001628 <HAL_GPIO_Init>
 8000b52:	2304      	movs	r3, #4
 8000b54:	a912      	add	r1, sp, #72	@ 0x48
 8000b56:	484a      	ldr	r0, [pc, #296]	@ (8000c80 <main+0x684>)
 8000b58:	e9cd 3512 	strd	r3, r5, [sp, #72]	@ 0x48
 8000b5c:	2309      	movs	r3, #9
 8000b5e:	e9cd 4714 	strd	r4, r7, [sp, #80]	@ 0x50
 8000b62:	9316      	str	r3, [sp, #88]	@ 0x58
 8000b64:	f000 fd60 	bl	8001628 <HAL_GPIO_Init>
 8000b68:	f44f 5260 	mov.w	r2, #14336	@ 0x3800
 8000b6c:	2309      	movs	r3, #9
 8000b6e:	a912      	add	r1, sp, #72	@ 0x48
 8000b70:	483b      	ldr	r0, [pc, #236]	@ (8000c60 <main+0x664>)
 8000b72:	9316      	str	r3, [sp, #88]	@ 0x58
 8000b74:	e9cd 2512 	strd	r2, r5, [sp, #72]	@ 0x48
 8000b78:	e9cd 4714 	strd	r4, r7, [sp, #80]	@ 0x50
 8000b7c:	f000 fd54 	bl	8001628 <HAL_GPIO_Init>
 8000b80:	2304      	movs	r3, #4
 8000b82:	a912      	add	r1, sp, #72	@ 0x48
 8000b84:	483b      	ldr	r0, [pc, #236]	@ (8000c74 <main+0x678>)
 8000b86:	9414      	str	r4, [sp, #80]	@ 0x50
 8000b88:	e9cd 3412 	strd	r3, r4, [sp, #72]	@ 0x48
 8000b8c:	f000 fd4c 	bl	8001628 <HAL_GPIO_Init>
 8000b90:	2286      	movs	r2, #134	@ 0x86
 8000b92:	230b      	movs	r3, #11
 8000b94:	a912      	add	r1, sp, #72	@ 0x48
 8000b96:	4839      	ldr	r0, [pc, #228]	@ (8000c7c <main+0x680>)
 8000b98:	9316      	str	r3, [sp, #88]	@ 0x58
 8000b9a:	e9cd 2512 	strd	r2, r5, [sp, #72]	@ 0x48
 8000b9e:	e9cd 4714 	strd	r4, r7, [sp, #80]	@ 0x50
 8000ba2:	f000 fd41 	bl	8001628 <HAL_GPIO_Init>
 8000ba6:	a912      	add	r1, sp, #72	@ 0x48
 8000ba8:	4834      	ldr	r0, [pc, #208]	@ (8000c7c <main+0x680>)
 8000baa:	9414      	str	r4, [sp, #80]	@ 0x50
 8000bac:	e9cd 8712 	strd	r8, r7, [sp, #72]	@ 0x48
 8000bb0:	f000 fd3a 	bl	8001628 <HAL_GPIO_Init>
 8000bb4:	2250      	movs	r2, #80	@ 0x50
 8000bb6:	230d      	movs	r3, #13
 8000bb8:	a912      	add	r1, sp, #72	@ 0x48
 8000bba:	4830      	ldr	r0, [pc, #192]	@ (8000c7c <main+0x680>)
 8000bbc:	9316      	str	r3, [sp, #88]	@ 0x58
 8000bbe:	e9cd 2512 	strd	r2, r5, [sp, #72]	@ 0x48
 8000bc2:	e9cd 4414 	strd	r4, r4, [sp, #80]	@ 0x50
 8000bc6:	f000 fd2f 	bl	8001628 <HAL_GPIO_Init>
 8000bca:	230a      	movs	r3, #10
 8000bcc:	a912      	add	r1, sp, #72	@ 0x48
 8000bce:	482b      	ldr	r0, [pc, #172]	@ (8000c7c <main+0x680>)
 8000bd0:	9316      	str	r3, [sp, #88]	@ 0x58
 8000bd2:	e9cd 4714 	strd	r4, r7, [sp, #80]	@ 0x50
 8000bd6:	e9cd a512 	strd	sl, r5, [sp, #72]	@ 0x48
 8000bda:	f000 fd25 	bl	8001628 <HAL_GPIO_Init>
 8000bde:	2340      	movs	r3, #64	@ 0x40
 8000be0:	a912      	add	r1, sp, #72	@ 0x48
 8000be2:	4825      	ldr	r0, [pc, #148]	@ (8000c78 <main+0x67c>)
 8000be4:	4f27      	ldr	r7, [pc, #156]	@ (8000c84 <main+0x688>)
 8000be6:	e9cd 3512 	strd	r3, r5, [sp, #72]	@ 0x48
 8000bea:	2309      	movs	r3, #9
 8000bec:	e9cd 4414 	strd	r4, r4, [sp, #80]	@ 0x50
 8000bf0:	9316      	str	r3, [sp, #88]	@ 0x58
 8000bf2:	f000 fd19 	bl	8001628 <HAL_GPIO_Init>
 8000bf6:	f44f 4240 	mov.w	r2, #49152	@ 0xc000
 8000bfa:	2305      	movs	r3, #5
 8000bfc:	a912      	add	r1, sp, #72	@ 0x48
 8000bfe:	4820      	ldr	r0, [pc, #128]	@ (8000c80 <main+0x684>)
 8000c00:	9316      	str	r3, [sp, #88]	@ 0x58
 8000c02:	e9cd 2512 	strd	r2, r5, [sp, #72]	@ 0x48
 8000c06:	e9cd 4414 	strd	r4, r4, [sp, #80]	@ 0x50
 8000c0a:	f000 fd0d 	bl	8001628 <HAL_GPIO_Init>
 8000c0e:	6b33      	ldr	r3, [r6, #48]	@ 0x30
 8000c10:	4622      	mov	r2, r4
 8000c12:	4621      	mov	r1, r4
 8000c14:	f443 0380 	orr.w	r3, r3, #4194304	@ 0x400000
 8000c18:	203c      	movs	r0, #60	@ 0x3c
 8000c1a:	6333      	str	r3, [r6, #48]	@ 0x30
 8000c1c:	6b33      	ldr	r3, [r6, #48]	@ 0x30
 8000c1e:	4e1a      	ldr	r6, [pc, #104]	@ (8000c88 <main+0x68c>)
 8000c20:	f403 0380 	and.w	r3, r3, #4194304	@ 0x400000
 8000c24:	9301      	str	r3, [sp, #4]
 8000c26:	9b01      	ldr	r3, [sp, #4]
 8000c28:	f000 fb2e 	bl	8001288 <HAL_NVIC_SetPriority>
 8000c2c:	203c      	movs	r0, #60	@ 0x3c
 8000c2e:	f000 fb5d 	bl	80012ec <HAL_NVIC_EnableIRQ>
 8000c32:	4621      	mov	r1, r4
 8000c34:	4622      	mov	r2, r4
 8000c36:	2045      	movs	r0, #69	@ 0x45
 8000c38:	f000 fb26 	bl	8001288 <HAL_NVIC_SetPriority>
 8000c3c:	2045      	movs	r0, #69	@ 0x45
 8000c3e:	f000 fb55 	bl	80012ec <HAL_NVIC_EnableIRQ>
 8000c42:	4b12      	ldr	r3, [pc, #72]	@ (8000c8c <main+0x690>)
 8000c44:	4630      	mov	r0, r6
 8000c46:	6234      	str	r4, [r6, #32]
 8000c48:	e9c6 7300 	strd	r7, r3, [r6]
 8000c4c:	e9c6 4802 	strd	r4, r8, [r6, #8]
 8000c50:	e9c6 4404 	strd	r4, r4, [r6, #16]
 8000c54:	e9c6 4406 	strd	r4, r4, [r6, #24]
 8000c58:	f001 fb69 	bl	800232e <HAL_I2C_Init>
 8000c5c:	4601      	mov	r1, r0
 8000c5e:	e017      	b.n	8000c90 <main+0x694>
 8000c60:	40020c00 	.word	0x40020c00
 8000c64:	40022000 	.word	0x40022000
 8000c68:	40020800 	.word	0x40020800
 8000c6c:	40021400 	.word	0x40021400
 8000c70:	40022800 	.word	0x40022800
 8000c74:	40021800 	.word	0x40021800
 8000c78:	40021c00 	.word	0x40021c00
 8000c7c:	40020000 	.word	0x40020000
 8000c80:	40020400 	.word	0x40020400
 8000c84:	40005c00 	.word	0x40005c00
 8000c88:	200002d4 	.word	0x200002d4
 8000c8c:	00c0eaff 	.word	0x00c0eaff
 8000c90:	b108      	cbz	r0, 8000c96 <main+0x69a>
 8000c92:	b672      	cpsid	i
 8000c94:	e7fe      	b.n	8000c94 <main+0x698>
 8000c96:	4630      	mov	r0, r6
 8000c98:	f001 fb9e 	bl	80023d8 <HAL_I2CEx_ConfigAnalogFilter>
 8000c9c:	4601      	mov	r1, r0
 8000c9e:	b108      	cbz	r0, 8000ca4 <main+0x6a8>
 8000ca0:	b672      	cpsid	i
 8000ca2:	e7fe      	b.n	8000ca2 <main+0x6a6>
 8000ca4:	4630      	mov	r0, r6
 8000ca6:	f001 fbbd 	bl	8002424 <HAL_I2CEx_ConfigDigitalFilter>
 8000caa:	4606      	mov	r6, r0
 8000cac:	b108      	cbz	r0, 8000cb2 <main+0x6b6>
 8000cae:	b672      	cpsid	i
 8000cb0:	e7fe      	b.n	8000cb0 <main+0x6b4>
 8000cb2:	4601      	mov	r1, r0
 8000cb4:	2214      	movs	r2, #20
 8000cb6:	a80d      	add	r0, sp, #52	@ 0x34
 8000cb8:	4c52      	ldr	r4, [pc, #328]	@ (8000e04 <main+0x808>)
 8000cba:	f005 fe65 	bl	8006988 <memset>
 8000cbe:	4631      	mov	r1, r6
 8000cc0:	4652      	mov	r2, sl
 8000cc2:	a812      	add	r0, sp, #72	@ 0x48
 8000cc4:	9600      	str	r6, [sp, #0]
 8000cc6:	f005 fe5f 	bl	8006988 <memset>
 8000cca:	4b4f      	ldr	r3, [pc, #316]	@ (8000e08 <main+0x80c>)
 8000ccc:	217f      	movs	r1, #127	@ 0x7f
 8000cce:	4620      	mov	r0, r4
 8000cd0:	61a6      	str	r6, [r4, #24]
 8000cd2:	e9c4 3600 	strd	r3, r6, [r4]
 8000cd6:	23ff      	movs	r3, #255	@ 0xff
 8000cd8:	e9c4 6604 	strd	r6, r6, [r4, #16]
 8000cdc:	e9c4 1302 	strd	r1, r3, [r4, #8]
 8000ce0:	f002 f9f9 	bl	80030d6 <HAL_RTC_Init>
 8000ce4:	b108      	cbz	r0, 8000cea <main+0x6ee>
 8000ce6:	b672      	cpsid	i
 8000ce8:	e7fe      	b.n	8000ce8 <main+0x6ec>
 8000cea:	f8ad 0034 	strh.w	r0, [sp, #52]	@ 0x34
 8000cee:	4642      	mov	r2, r8
 8000cf0:	f88d 0036 	strb.w	r0, [sp, #54]	@ 0x36
 8000cf4:	a90d      	add	r1, sp, #52	@ 0x34
 8000cf6:	e9cd 0010 	strd	r0, r0, [sp, #64]	@ 0x40
 8000cfa:	4620      	mov	r0, r4
 8000cfc:	f002 fa3e 	bl	800317c <HAL_RTC_SetTime>
 8000d00:	b108      	cbz	r0, 8000d06 <main+0x70a>
 8000d02:	b672      	cpsid	i
 8000d04:	e7fe      	b.n	8000d04 <main+0x708>
 8000d06:	4b41      	ldr	r3, [pc, #260]	@ (8000e0c <main+0x810>)
 8000d08:	4642      	mov	r2, r8
 8000d0a:	4669      	mov	r1, sp
 8000d0c:	4620      	mov	r0, r4
 8000d0e:	9300      	str	r3, [sp, #0]
 8000d10:	f002 fa8d 	bl	800322e <HAL_RTC_SetDate>
 8000d14:	b108      	cbz	r0, 8000d1a <main+0x71e>
 8000d16:	b672      	cpsid	i
 8000d18:	e7fe      	b.n	8000d18 <main+0x71c>
 8000d1a:	f44f 7380 	mov.w	r3, #256	@ 0x100
 8000d1e:	f8ad 0048 	strh.w	r0, [sp, #72]	@ 0x48
 8000d22:	f88d 004a 	strb.w	r0, [sp, #74]	@ 0x4a
 8000d26:	4642      	mov	r2, r8
 8000d28:	9013      	str	r0, [sp, #76]	@ 0x4c
 8000d2a:	a912      	add	r1, sp, #72	@ 0x48
 8000d2c:	9019      	str	r0, [sp, #100]	@ 0x64
 8000d2e:	f88d 8068 	strb.w	r8, [sp, #104]	@ 0x68
 8000d32:	931b      	str	r3, [sp, #108]	@ 0x6c
 8000d34:	e9cd 0015 	strd	r0, r0, [sp, #84]	@ 0x54
 8000d38:	e9cd 0017 	strd	r0, r0, [sp, #92]	@ 0x5c
 8000d3c:	4620      	mov	r0, r4
 8000d3e:	f002 fabc 	bl	80032ba <HAL_RTC_SetAlarm>
 8000d42:	b108      	cbz	r0, 8000d48 <main+0x74c>
 8000d44:	b672      	cpsid	i
 8000d46:	e7fe      	b.n	8000d46 <main+0x74a>
 8000d48:	a912      	add	r1, sp, #72	@ 0x48
 8000d4a:	4642      	mov	r2, r8
 8000d4c:	4620      	mov	r0, r4
 8000d4e:	f8cd b06c 	str.w	fp, [sp, #108]	@ 0x6c
 8000d52:	f002 fab2 	bl	80032ba <HAL_RTC_SetAlarm>
 8000d56:	4601      	mov	r1, r0
 8000d58:	b108      	cbz	r0, 8000d5e <main+0x762>
 8000d5a:	b672      	cpsid	i
 8000d5c:	e7fe      	b.n	8000d5c <main+0x760>
 8000d5e:	462a      	mov	r2, r5
 8000d60:	4620      	mov	r0, r4
 8000d62:	f002 fb50 	bl	8003406 <HAL_RTCEx_SetTimeStamp>
 8000d66:	4601      	mov	r1, r0
 8000d68:	b108      	cbz	r0, 8000d6e <main+0x772>
 8000d6a:	b672      	cpsid	i
 8000d6c:	e7fe      	b.n	8000d6c <main+0x770>
 8000d6e:	4828      	ldr	r0, [pc, #160]	@ (8000e10 <main+0x814>)
 8000d70:	462a      	mov	r2, r5
 8000d72:	4b28      	ldr	r3, [pc, #160]	@ (8000e14 <main+0x818>)
 8000d74:	6081      	str	r1, [r0, #8]
 8000d76:	6181      	str	r1, [r0, #24]
 8000d78:	60c1      	str	r1, [r0, #12]
 8000d7a:	62c1      	str	r1, [r0, #44]	@ 0x2c
 8000d7c:	e9c0 3100 	strd	r3, r1, [r0]
 8000d80:	f64a 4344 	movw	r3, #44100	@ 0xac44
 8000d84:	61c3      	str	r3, [r0, #28]
 8000d86:	462b      	mov	r3, r5
 8000d88:	e9c0 1104 	strd	r1, r1, [r0, #16]
 8000d8c:	e9c0 1109 	strd	r1, r1, [r0, #36]	@ 0x24
 8000d90:	f002 fc76 	bl	8003680 <HAL_SAI_InitProtocol>
 8000d94:	b108      	cbz	r0, 8000d9a <main+0x79e>
 8000d96:	b672      	cpsid	i
 8000d98:	e7fe      	b.n	8000d98 <main+0x79c>
 8000d9a:	4c1f      	ldr	r4, [pc, #124]	@ (8000e18 <main+0x81c>)
 8000d9c:	2303      	movs	r3, #3
 8000d9e:	4a1f      	ldr	r2, [pc, #124]	@ (8000e1c <main+0x820>)
 8000da0:	2100      	movs	r1, #0
 8000da2:	4620      	mov	r0, r4
 8000da4:	6121      	str	r1, [r4, #16]
 8000da6:	61a1      	str	r1, [r4, #24]
 8000da8:	60e1      	str	r1, [r4, #12]
 8000daa:	62e1      	str	r1, [r4, #44]	@ 0x2c
 8000dac:	e9c4 2300 	strd	r2, r3, [r4]
 8000db0:	2301      	movs	r3, #1
 8000db2:	60a3      	str	r3, [r4, #8]
 8000db4:	2302      	movs	r3, #2
 8000db6:	461a      	mov	r2, r3
 8000db8:	e9c4 1109 	strd	r1, r1, [r4, #36]	@ 0x24
 8000dbc:	f002 fc60 	bl	8003680 <HAL_SAI_InitProtocol>
 8000dc0:	b108      	cbz	r0, 8000dc6 <main+0x7ca>
 8000dc2:	b672      	cpsid	i
 8000dc4:	e7fe      	b.n	8000dc4 <main+0x7c8>
 8000dc6:	4d16      	ldr	r5, [pc, #88]	@ (8000e20 <main+0x824>)
 8000dc8:	f005 fbec 	bl	80065a4 <MX_USB_HOST_Init>
 8000dcc:	4e15      	ldr	r6, [pc, #84]	@ (8000e24 <main+0x828>)
 8000dce:	f64b 3180 	movw	r1, #48000	@ 0xbb80
 8000dd2:	6828      	ldr	r0, [r5, #0]
 8000dd4:	69f3      	ldr	r3, [r6, #28]
 8000dd6:	4798      	blx	r3
 8000dd8:	6b73      	ldr	r3, [r6, #52]	@ 0x34
 8000dda:	2104      	movs	r1, #4
 8000ddc:	6828      	ldr	r0, [r5, #0]
 8000dde:	4798      	blx	r3
 8000de0:	4a11      	ldr	r2, [pc, #68]	@ (8000e28 <main+0x82c>)
 8000de2:	6833      	ldr	r3, [r6, #0]
 8000de4:	6811      	ldr	r1, [r2, #0]
 8000de6:	6828      	ldr	r0, [r5, #0]
 8000de8:	4798      	blx	r3
 8000dea:	2280      	movs	r2, #128	@ 0x80
 8000dec:	490f      	ldr	r1, [pc, #60]	@ (8000e2c <main+0x830>)
 8000dee:	4808      	ldr	r0, [pc, #32]	@ (8000e10 <main+0x814>)
 8000df0:	f002 fcda 	bl	80037a8 <HAL_SAI_Transmit_DMA>
 8000df4:	2280      	movs	r2, #128	@ 0x80
 8000df6:	490e      	ldr	r1, [pc, #56]	@ (8000e30 <main+0x834>)
 8000df8:	4620      	mov	r0, r4
 8000dfa:	f002 fd41 	bl	8003880 <HAL_SAI_Receive_DMA>
 8000dfe:	f005 fbf1 	bl	80065e4 <MX_USB_HOST_Process>
 8000e02:	e7fc      	b.n	8000dfe <main+0x802>
 8000e04:	200002b4 	.word	0x200002b4
 8000e08:	40002800 	.word	0x40002800
 8000e0c:	00010101 	.word	0x00010101
 8000e10:	20000230 	.word	0x20000230
 8000e14:	40015c04 	.word	0x40015c04
 8000e18:	200001ac 	.word	0x200001ac
 8000e1c:	40015c24 	.word	0x40015c24
 8000e20:	20000004 	.word	0x20000004
 8000e24:	20000018 	.word	0x20000018
 8000e28:	20000000 	.word	0x20000000
 8000e2c:	20000364 	.word	0x20000364
 8000e30:	20000564 	.word	0x20000564

08000e34 <HAL_TIM_PeriodElapsedCallback>:
 8000e34:	6802      	ldr	r2, [r0, #0]
 8000e36:	4b03      	ldr	r3, [pc, #12]	@ (8000e44 <HAL_TIM_PeriodElapsedCallback+0x10>)
 8000e38:	429a      	cmp	r2, r3
 8000e3a:	d101      	bne.n	8000e40 <HAL_TIM_PeriodElapsedCallback+0xc>
 8000e3c:	f000 b9ee 	b.w	800121c <HAL_IncTick>
 8000e40:	4770      	bx	lr
 8000e42:	bf00      	nop
 8000e44:	40001000 	.word	0x40001000

08000e48 <Error_Handler>:
 8000e48:	b672      	cpsid	i
 8000e4a:	e7fe      	b.n	8000e4a <Error_Handler+0x2>

08000e4c <HAL_MspInit>:
 8000e4c:	4b0a      	ldr	r3, [pc, #40]	@ (8000e78 <HAL_MspInit+0x2c>)
 8000e4e:	b082      	sub	sp, #8
 8000e50:	6c1a      	ldr	r2, [r3, #64]	@ 0x40
 8000e52:	f042 5280 	orr.w	r2, r2, #268435456	@ 0x10000000
 8000e56:	641a      	str	r2, [r3, #64]	@ 0x40
 8000e58:	6c1a      	ldr	r2, [r3, #64]	@ 0x40
 8000e5a:	f002 5280 	and.w	r2, r2, #268435456	@ 0x10000000
 8000e5e:	9200      	str	r2, [sp, #0]
 8000e60:	9a00      	ldr	r2, [sp, #0]
 8000e62:	6c5a      	ldr	r2, [r3, #68]	@ 0x44
 8000e64:	f442 4280 	orr.w	r2, r2, #16384	@ 0x4000
 8000e68:	645a      	str	r2, [r3, #68]	@ 0x44
 8000e6a:	6c5b      	ldr	r3, [r3, #68]	@ 0x44
 8000e6c:	f403 4380 	and.w	r3, r3, #16384	@ 0x4000
 8000e70:	9301      	str	r3, [sp, #4]
 8000e72:	9b01      	ldr	r3, [sp, #4]
 8000e74:	b002      	add	sp, #8
 8000e76:	4770      	bx	lr
 8000e78:	40023800 	.word	0x40023800

08000e7c <HAL_I2C_MspInit>:
 8000e7c:	b510      	push	{r4, lr}
 8000e7e:	b0a8      	sub	sp, #160	@ 0xa0
 8000e80:	4604      	mov	r4, r0
 8000e82:	2214      	movs	r2, #20
 8000e84:	2100      	movs	r1, #0
 8000e86:	a802      	add	r0, sp, #8
 8000e88:	f005 fd7e 	bl	8006988 <memset>
 8000e8c:	2284      	movs	r2, #132	@ 0x84
 8000e8e:	2100      	movs	r1, #0
 8000e90:	a807      	add	r0, sp, #28
 8000e92:	f005 fd79 	bl	8006988 <memset>
 8000e96:	6822      	ldr	r2, [r4, #0]
 8000e98:	4b17      	ldr	r3, [pc, #92]	@ (8000ef8 <HAL_I2C_MspInit+0x7c>)
 8000e9a:	429a      	cmp	r2, r3
 8000e9c:	d12a      	bne.n	8000ef4 <HAL_I2C_MspInit+0x78>
 8000e9e:	f44f 3380 	mov.w	r3, #65536	@ 0x10000
 8000ea2:	a807      	add	r0, sp, #28
 8000ea4:	9307      	str	r3, [sp, #28]
 8000ea6:	f001 fdd7 	bl	8002a58 <HAL_RCCEx_PeriphCLKConfig>
 8000eaa:	b108      	cbz	r0, 8000eb0 <HAL_I2C_MspInit+0x34>
 8000eac:	f7ff ffcc 	bl	8000e48 <Error_Handler>
 8000eb0:	4c12      	ldr	r4, [pc, #72]	@ (8000efc <HAL_I2C_MspInit+0x80>)
 8000eb2:	f44f 72c0 	mov.w	r2, #384	@ 0x180
 8000eb6:	2101      	movs	r1, #1
 8000eb8:	4811      	ldr	r0, [pc, #68]	@ (8000f00 <HAL_I2C_MspInit+0x84>)
 8000eba:	6b23      	ldr	r3, [r4, #48]	@ 0x30
 8000ebc:	f043 0380 	orr.w	r3, r3, #128	@ 0x80
 8000ec0:	6323      	str	r3, [r4, #48]	@ 0x30
 8000ec2:	6b23      	ldr	r3, [r4, #48]	@ 0x30
 8000ec4:	f003 0380 	and.w	r3, r3, #128	@ 0x80
 8000ec8:	9300      	str	r3, [sp, #0]
 8000eca:	9b00      	ldr	r3, [sp, #0]
 8000ecc:	2312      	movs	r3, #18
 8000ece:	e9cd 2302 	strd	r2, r3, [sp, #8]
 8000ed2:	2303      	movs	r3, #3
 8000ed4:	e9cd 1304 	strd	r1, r3, [sp, #16]
 8000ed8:	2304      	movs	r3, #4
 8000eda:	a902      	add	r1, sp, #8
 8000edc:	9306      	str	r3, [sp, #24]
 8000ede:	f000 fba3 	bl	8001628 <HAL_GPIO_Init>
 8000ee2:	6c23      	ldr	r3, [r4, #64]	@ 0x40
 8000ee4:	f443 0300 	orr.w	r3, r3, #8388608	@ 0x800000
 8000ee8:	6423      	str	r3, [r4, #64]	@ 0x40
 8000eea:	6c23      	ldr	r3, [r4, #64]	@ 0x40
 8000eec:	f403 0300 	and.w	r3, r3, #8388608	@ 0x800000
 8000ef0:	9301      	str	r3, [sp, #4]
 8000ef2:	9b01      	ldr	r3, [sp, #4]
 8000ef4:	b028      	add	sp, #160	@ 0xa0
 8000ef6:	bd10      	pop	{r4, pc}
 8000ef8:	40005c00 	.word	0x40005c00
 8000efc:	40023800 	.word	0x40023800
 8000f00:	40021c00 	.word	0x40021c00

08000f04 <HAL_RTC_MspInit>:
 8000f04:	b510      	push	{r4, lr}
 8000f06:	b0a2      	sub	sp, #136	@ 0x88
 8000f08:	4604      	mov	r4, r0
 8000f0a:	2284      	movs	r2, #132	@ 0x84
 8000f0c:	2100      	movs	r1, #0
 8000f0e:	a801      	add	r0, sp, #4
 8000f10:	f005 fd3a 	bl	8006988 <memset>
 8000f14:	6822      	ldr	r2, [r4, #0]
 8000f16:	4b0a      	ldr	r3, [pc, #40]	@ (8000f40 <HAL_RTC_MspInit+0x3c>)
 8000f18:	429a      	cmp	r2, r3
 8000f1a:	d10f      	bne.n	8000f3c <HAL_RTC_MspInit+0x38>
 8000f1c:	2320      	movs	r3, #32
 8000f1e:	a801      	add	r0, sp, #4
 8000f20:	9301      	str	r3, [sp, #4]
 8000f22:	f44f 7300 	mov.w	r3, #512	@ 0x200
 8000f26:	930d      	str	r3, [sp, #52]	@ 0x34
 8000f28:	f001 fd96 	bl	8002a58 <HAL_RCCEx_PeriphCLKConfig>
 8000f2c:	b108      	cbz	r0, 8000f32 <HAL_RTC_MspInit+0x2e>
 8000f2e:	f7ff ff8b 	bl	8000e48 <Error_Handler>
 8000f32:	4a04      	ldr	r2, [pc, #16]	@ (8000f44 <HAL_RTC_MspInit+0x40>)
 8000f34:	6f13      	ldr	r3, [r2, #112]	@ 0x70
 8000f36:	f443 4300 	orr.w	r3, r3, #32768	@ 0x8000
 8000f3a:	6713      	str	r3, [r2, #112]	@ 0x70
 8000f3c:	b022      	add	sp, #136	@ 0x88
 8000f3e:	bd10      	pop	{r4, pc}
 8000f40:	40002800 	.word	0x40002800
 8000f44:	40023800 	.word	0x40023800

08000f48 <HAL_SAI_MspInit>:
 8000f48:	6802      	ldr	r2, [r0, #0]
 8000f4a:	4b43      	ldr	r3, [pc, #268]	@ (8001058 <HAL_SAI_MspInit+0x110>)
 8000f4c:	429a      	cmp	r2, r3
 8000f4e:	b5f0      	push	{r4, r5, r6, r7, lr}
 8000f50:	4605      	mov	r5, r0
 8000f52:	b089      	sub	sp, #36	@ 0x24
 8000f54:	d13d      	bne.n	8000fd2 <HAL_SAI_MspInit+0x8a>
 8000f56:	4841      	ldr	r0, [pc, #260]	@ (800105c <HAL_SAI_MspInit+0x114>)
 8000f58:	6803      	ldr	r3, [r0, #0]
 8000f5a:	b94b      	cbnz	r3, 8000f70 <HAL_SAI_MspInit+0x28>
 8000f5c:	4a40      	ldr	r2, [pc, #256]	@ (8001060 <HAL_SAI_MspInit+0x118>)
 8000f5e:	6c51      	ldr	r1, [r2, #68]	@ 0x44
 8000f60:	f441 0100 	orr.w	r1, r1, #8388608	@ 0x800000
 8000f64:	6451      	str	r1, [r2, #68]	@ 0x44
 8000f66:	6c52      	ldr	r2, [r2, #68]	@ 0x44
 8000f68:	f402 0200 	and.w	r2, r2, #8388608	@ 0x800000
 8000f6c:	9201      	str	r2, [sp, #4]
 8000f6e:	9a01      	ldr	r2, [sp, #4]
 8000f70:	3301      	adds	r3, #1
 8000f72:	24f0      	movs	r4, #240	@ 0xf0
 8000f74:	2600      	movs	r6, #0
 8000f76:	a903      	add	r1, sp, #12
 8000f78:	6003      	str	r3, [r0, #0]
 8000f7a:	2302      	movs	r3, #2
 8000f7c:	4839      	ldr	r0, [pc, #228]	@ (8001064 <HAL_SAI_MspInit+0x11c>)
 8000f7e:	4f3a      	ldr	r7, [pc, #232]	@ (8001068 <HAL_SAI_MspInit+0x120>)
 8000f80:	e9cd 4303 	strd	r4, r3, [sp, #12]
 8000f84:	230a      	movs	r3, #10
 8000f86:	4c39      	ldr	r4, [pc, #228]	@ (800106c <HAL_SAI_MspInit+0x124>)
 8000f88:	9307      	str	r3, [sp, #28]
 8000f8a:	e9cd 6605 	strd	r6, r6, [sp, #20]
 8000f8e:	f000 fb4b 	bl	8001628 <HAL_GPIO_Init>
 8000f92:	f04f 63c0 	mov.w	r3, #100663296	@ 0x6000000
 8000f96:	f44f 6c80 	mov.w	ip, #1024	@ 0x400
 8000f9a:	f44f 4e80 	mov.w	lr, #16384	@ 0x4000
 8000f9e:	4620      	mov	r0, r4
 8000fa0:	e9c4 7300 	strd	r7, r3, [r4]
 8000fa4:	2340      	movs	r3, #64	@ 0x40
 8000fa6:	e9c4 3602 	strd	r3, r6, [r4, #8]
 8000faa:	f44f 5380 	mov.w	r3, #4096	@ 0x1000
 8000fae:	e9c4 c304 	strd	ip, r3, [r4, #16]
 8000fb2:	f44f 7380 	mov.w	r3, #256	@ 0x100
 8000fb6:	e9c4 e306 	strd	lr, r3, [r4, #24]
 8000fba:	f44f 3340 	mov.w	r3, #196608	@ 0x30000
 8000fbe:	e9c4 3608 	strd	r3, r6, [r4, #32]
 8000fc2:	f000 f9b7 	bl	8001334 <HAL_DMA_Init>
 8000fc6:	b108      	cbz	r0, 8000fcc <HAL_SAI_MspInit+0x84>
 8000fc8:	f7ff ff3e 	bl	8000e48 <Error_Handler>
 8000fcc:	672c      	str	r4, [r5, #112]	@ 0x70
 8000fce:	63a5      	str	r5, [r4, #56]	@ 0x38
 8000fd0:	66ec      	str	r4, [r5, #108]	@ 0x6c
 8000fd2:	682a      	ldr	r2, [r5, #0]
 8000fd4:	4b26      	ldr	r3, [pc, #152]	@ (8001070 <HAL_SAI_MspInit+0x128>)
 8000fd6:	429a      	cmp	r2, r3
 8000fd8:	d13b      	bne.n	8001052 <HAL_SAI_MspInit+0x10a>
 8000fda:	4820      	ldr	r0, [pc, #128]	@ (800105c <HAL_SAI_MspInit+0x114>)
 8000fdc:	6803      	ldr	r3, [r0, #0]
 8000fde:	b94b      	cbnz	r3, 8000ff4 <HAL_SAI_MspInit+0xac>
 8000fe0:	4a1f      	ldr	r2, [pc, #124]	@ (8001060 <HAL_SAI_MspInit+0x118>)
 8000fe2:	6c51      	ldr	r1, [r2, #68]	@ 0x44
 8000fe4:	f441 0100 	orr.w	r1, r1, #8388608	@ 0x800000
 8000fe8:	6451      	str	r1, [r2, #68]	@ 0x44
 8000fea:	6c52      	ldr	r2, [r2, #68]	@ 0x44
 8000fec:	f402 0200 	and.w	r2, r2, #8388608	@ 0x800000
 8000ff0:	9202      	str	r2, [sp, #8]
 8000ff2:	9a02      	ldr	r2, [sp, #8]
 8000ff4:	3301      	adds	r3, #1
 8000ff6:	f44f 6780 	mov.w	r7, #1024	@ 0x400
 8000ffa:	2600      	movs	r6, #0
 8000ffc:	a903      	add	r1, sp, #12
 8000ffe:	6003      	str	r3, [r0, #0]
 8001000:	2302      	movs	r3, #2
 8001002:	481c      	ldr	r0, [pc, #112]	@ (8001074 <HAL_SAI_MspInit+0x12c>)
 8001004:	4c1c      	ldr	r4, [pc, #112]	@ (8001078 <HAL_SAI_MspInit+0x130>)
 8001006:	e9cd 7303 	strd	r7, r3, [sp, #12]
 800100a:	230a      	movs	r3, #10
 800100c:	e9cd 6605 	strd	r6, r6, [sp, #20]
 8001010:	9307      	str	r3, [sp, #28]
 8001012:	f000 fb09 	bl	8001628 <HAL_GPIO_Init>
 8001016:	f04f 63c0 	mov.w	r3, #100663296	@ 0x6000000
 800101a:	4a18      	ldr	r2, [pc, #96]	@ (800107c <HAL_SAI_MspInit+0x134>)
 800101c:	f44f 5180 	mov.w	r1, #4096	@ 0x1000
 8001020:	f44f 7080 	mov.w	r0, #256	@ 0x100
 8001024:	6127      	str	r7, [r4, #16]
 8001026:	6266      	str	r6, [r4, #36]	@ 0x24
 8001028:	e9c4 2300 	strd	r2, r3, [r4]
 800102c:	f44f 4380 	mov.w	r3, #16384	@ 0x4000
 8001030:	e9c4 1305 	strd	r1, r3, [r4, #20]
 8001034:	f44f 3340 	mov.w	r3, #196608	@ 0x30000
 8001038:	e9c4 0307 	strd	r0, r3, [r4, #28]
 800103c:	4620      	mov	r0, r4
 800103e:	e9c4 6602 	strd	r6, r6, [r4, #8]
 8001042:	f000 f977 	bl	8001334 <HAL_DMA_Init>
 8001046:	b108      	cbz	r0, 800104c <HAL_SAI_MspInit+0x104>
 8001048:	f7ff fefe 	bl	8000e48 <Error_Handler>
 800104c:	672c      	str	r4, [r5, #112]	@ 0x70
 800104e:	63a5      	str	r5, [r4, #56]	@ 0x38
 8001050:	66ec      	str	r4, [r5, #108]	@ 0x6c
 8001052:	b009      	add	sp, #36	@ 0x24
 8001054:	bdf0      	pop	{r4, r5, r6, r7, pc}
 8001056:	bf00      	nop
 8001058:	40015c04 	.word	0x40015c04
 800105c:	20000764 	.word	0x20000764
 8001060:	40023800 	.word	0x40023800
 8001064:	40022000 	.word	0x40022000
 8001068:	40026470 	.word	0x40026470
 800106c:	2000014c 	.word	0x2000014c
 8001070:	40015c24 	.word	0x40015c24
 8001074:	40021800 	.word	0x40021800
 8001078:	200000ec 	.word	0x200000ec
 800107c:	400264a0 	.word	0x400264a0

08001080 <HAL_InitTick>:
 8001080:	4b21      	ldr	r3, [pc, #132]	@ (8001108 <HAL_InitTick+0x88>)
 8001082:	6c1a      	ldr	r2, [r3, #64]	@ 0x40
 8001084:	f042 0210 	orr.w	r2, r2, #16
 8001088:	b570      	push	{r4, r5, r6, lr}
 800108a:	641a      	str	r2, [r3, #64]	@ 0x40
 800108c:	b088      	sub	sp, #32
 800108e:	6c1b      	ldr	r3, [r3, #64]	@ 0x40
 8001090:	4605      	mov	r5, r0
 8001092:	a901      	add	r1, sp, #4
 8001094:	a803      	add	r0, sp, #12
 8001096:	f003 0310 	and.w	r3, r3, #16
 800109a:	9302      	str	r3, [sp, #8]
 800109c:	9b02      	ldr	r3, [sp, #8]
 800109e:	f001 fcbd 	bl	8002a1c <HAL_RCC_GetClockConfig>
 80010a2:	9b06      	ldr	r3, [sp, #24]
 80010a4:	bb4b      	cbnz	r3, 80010fa <HAL_InitTick+0x7a>
 80010a6:	f001 fca9 	bl	80029fc <HAL_RCC_GetPCLK1Freq>
 80010aa:	4e18      	ldr	r6, [pc, #96]	@ (800110c <HAL_InitTick+0x8c>)
 80010ac:	4b18      	ldr	r3, [pc, #96]	@ (8001110 <HAL_InitTick+0x90>)
 80010ae:	6033      	str	r3, [r6, #0]
 80010b0:	f240 33e7 	movw	r3, #999	@ 0x3e7
 80010b4:	60f3      	str	r3, [r6, #12]
 80010b6:	4b17      	ldr	r3, [pc, #92]	@ (8001114 <HAL_InitTick+0x94>)
 80010b8:	fbb0 f3f3 	udiv	r3, r0, r3
 80010bc:	3b01      	subs	r3, #1
 80010be:	4630      	mov	r0, r6
 80010c0:	6073      	str	r3, [r6, #4]
 80010c2:	2300      	movs	r3, #0
 80010c4:	6133      	str	r3, [r6, #16]
 80010c6:	60b3      	str	r3, [r6, #8]
 80010c8:	61b3      	str	r3, [r6, #24]
 80010ca:	f002 fdd9 	bl	8003c80 <HAL_TIM_Base_Init>
 80010ce:	4604      	mov	r4, r0
 80010d0:	b980      	cbnz	r0, 80010f4 <HAL_InitTick+0x74>
 80010d2:	4630      	mov	r0, r6
 80010d4:	f002 fc86 	bl	80039e4 <HAL_TIM_Base_Start_IT>
 80010d8:	4604      	mov	r4, r0
 80010da:	b958      	cbnz	r0, 80010f4 <HAL_InitTick+0x74>
 80010dc:	2036      	movs	r0, #54	@ 0x36
 80010de:	f000 f905 	bl	80012ec <HAL_NVIC_EnableIRQ>
 80010e2:	2d0f      	cmp	r5, #15
 80010e4:	d80d      	bhi.n	8001102 <HAL_InitTick+0x82>
 80010e6:	4622      	mov	r2, r4
 80010e8:	4629      	mov	r1, r5
 80010ea:	2036      	movs	r0, #54	@ 0x36
 80010ec:	f000 f8cc 	bl	8001288 <HAL_NVIC_SetPriority>
 80010f0:	4b09      	ldr	r3, [pc, #36]	@ (8001118 <HAL_InitTick+0x98>)
 80010f2:	601d      	str	r5, [r3, #0]
 80010f4:	4620      	mov	r0, r4
 80010f6:	b008      	add	sp, #32
 80010f8:	bd70      	pop	{r4, r5, r6, pc}
 80010fa:	f001 fc7f 	bl	80029fc <HAL_RCC_GetPCLK1Freq>
 80010fe:	0040      	lsls	r0, r0, #1
 8001100:	e7d3      	b.n	80010aa <HAL_InitTick+0x2a>
 8001102:	2401      	movs	r4, #1
 8001104:	e7f6      	b.n	80010f4 <HAL_InitTick+0x74>
 8001106:	bf00      	nop
 8001108:	40023800 	.word	0x40023800
 800110c:	20000768 	.word	0x20000768
 8001110:	40001000 	.word	0x40001000
 8001114:	000f4240 	.word	0x000f4240
 8001118:	20000010 	.word	0x20000010

0800111c <NMI_Handler>:
 800111c:	e7fe      	b.n	800111c <NMI_Handler>

0800111e <HardFault_Handler>:
 800111e:	e7fe      	b.n	800111e <HardFault_Handler>

08001120 <MemManage_Handler>:
 8001120:	e7fe      	b.n	8001120 <MemManage_Handler>

08001122 <BusFault_Handler>:
 8001122:	e7fe      	b.n	8001122 <BusFault_Handler>

08001124 <UsageFault_Handler>:
 8001124:	e7fe      	b.n	8001124 <UsageFault_Handler>

08001126 <SVC_Handler>:
 8001126:	4770      	bx	lr

08001128 <DebugMon_Handler>:
 8001128:	4770      	bx	lr

0800112a <PendSV_Handler>:
 800112a:	4770      	bx	lr

0800112c <SysTick_Handler>:
 800112c:	4770      	bx	lr
	...

08001130 <TIM6_DAC_IRQHandler>:
 8001130:	4801      	ldr	r0, [pc, #4]	@ (8001138 <TIM6_DAC_IRQHandler+0x8>)
 8001132:	f002 bc99 	b.w	8003a68 <HAL_TIM_IRQHandler>
 8001136:	bf00      	nop
 8001138:	20000768 	.word	0x20000768

0800113c <DMA2_Stream4_IRQHandler>:
 800113c:	4801      	ldr	r0, [pc, #4]	@ (8001144 <DMA2_Stream4_IRQHandler+0x8>)
 800113e:	f000 b9b5 	b.w	80014ac <HAL_DMA_IRQHandler>
 8001142:	bf00      	nop
 8001144:	2000014c 	.word	0x2000014c

08001148 <OTG_FS_IRQHandler>:
 8001148:	4801      	ldr	r0, [pc, #4]	@ (8001150 <OTG_FS_IRQHandler+0x8>)
 800114a:	f000 bc0d 	b.w	8001968 <HAL_HCD_IRQHandler>
 800114e:	bf00      	nop
 8001150:	20000b98 	.word	0x20000b98

08001154 <DMA2_Stream6_IRQHandler>:
 8001154:	4801      	ldr	r0, [pc, #4]	@ (800115c <DMA2_Stream6_IRQHandler+0x8>)
 8001156:	f000 b9a9 	b.w	80014ac <HAL_DMA_IRQHandler>
 800115a:	bf00      	nop
 800115c:	200000ec 	.word	0x200000ec

08001160 <_sbrk>:
 8001160:	4a0b      	ldr	r2, [pc, #44]	@ (8001190 <_sbrk+0x30>)
 8001162:	4603      	mov	r3, r0
 8001164:	6811      	ldr	r1, [r2, #0]
 8001166:	b510      	push	{r4, lr}
 8001168:	b909      	cbnz	r1, 800116e <_sbrk+0xe>
 800116a:	490a      	ldr	r1, [pc, #40]	@ (8001194 <_sbrk+0x34>)
 800116c:	6011      	str	r1, [r2, #0]
 800116e:	6810      	ldr	r0, [r2, #0]
 8001170:	4909      	ldr	r1, [pc, #36]	@ (8001198 <_sbrk+0x38>)
 8001172:	4c0a      	ldr	r4, [pc, #40]	@ (800119c <_sbrk+0x3c>)
 8001174:	4403      	add	r3, r0
 8001176:	1b09      	subs	r1, r1, r4
 8001178:	428b      	cmp	r3, r1
 800117a:	d906      	bls.n	800118a <_sbrk+0x2a>
 800117c:	f005 fc1c 	bl	80069b8 <__errno>
 8001180:	230c      	movs	r3, #12
 8001182:	6003      	str	r3, [r0, #0]
 8001184:	f04f 30ff 	mov.w	r0, #4294967295	@ 0xffffffff
 8001188:	bd10      	pop	{r4, pc}
 800118a:	6013      	str	r3, [r2, #0]
 800118c:	e7fc      	b.n	8001188 <_sbrk+0x28>
 800118e:	bf00      	nop
 8001190:	200007b4 	.word	0x200007b4
 8001194:	200010c0 	.word	0x200010c0
 8001198:	20050000 	.word	0x20050000
 800119c:	00000400 	.word	0x00000400

080011a0 <SystemInit>:
 80011a0:	4a03      	ldr	r2, [pc, #12]	@ (80011b0 <SystemInit+0x10>)
 80011a2:	f8d2 3088 	ldr.w	r3, [r2, #136]	@ 0x88
 80011a6:	f443 0370 	orr.w	r3, r3, #15728640	@ 0xf00000
 80011aa:	f8c2 3088 	str.w	r3, [r2, #136]	@ 0x88
 80011ae:	4770      	bx	lr
 80011b0:	e000ed00 	.word	0xe000ed00

080011b4 <Reset_Handler>:
 80011b4:	f8df d034 	ldr.w	sp, [pc, #52]	@ 80011ec <LoopFillZerobss+0xe>
 80011b8:	f7ff fff2 	bl	80011a0 <SystemInit>
 80011bc:	480c      	ldr	r0, [pc, #48]	@ (80011f0 <LoopFillZerobss+0x12>)
 80011be:	490d      	ldr	r1, [pc, #52]	@ (80011f4 <LoopFillZerobss+0x16>)
 80011c0:	4a0d      	ldr	r2, [pc, #52]	@ (80011f8 <LoopFillZerobss+0x1a>)
 80011c2:	2300      	movs	r3, #0
 80011c4:	e002      	b.n	80011cc <LoopCopyDataInit>

080011c6 <CopyDataInit>:
 80011c6:	58d4      	ldr	r4, [r2, r3]
 80011c8:	50c4      	str	r4, [r0, r3]
 80011ca:	3304      	adds	r3, #4

080011cc <LoopCopyDataInit>:
 80011cc:	18c4      	adds	r4, r0, r3
 80011ce:	428c      	cmp	r4, r1
 80011d0:	d3f9      	bcc.n	80011c6 <CopyDataInit>
 80011d2:	4a0a      	ldr	r2, [pc, #40]	@ (80011fc <LoopFillZerobss+0x1e>)
 80011d4:	4c0a      	ldr	r4, [pc, #40]	@ (8001200 <LoopFillZerobss+0x22>)
 80011d6:	2300      	movs	r3, #0
 80011d8:	e001      	b.n	80011de <LoopFillZerobss>

080011da <FillZerobss>:
 80011da:	6013      	str	r3, [r2, #0]
 80011dc:	3204      	adds	r2, #4

080011de <LoopFillZerobss>:
 80011de:	42a2      	cmp	r2, r4
 80011e0:	d3fb      	bcc.n	80011da <FillZerobss>
 80011e2:	f005 fbef 	bl	80069c4 <__libc_init_array>
 80011e6:	f7ff fa09 	bl	80005fc <main>
 80011ea:	4770      	bx	lr
 80011ec:	20050000 	.word	0x20050000
 80011f0:	20000000 	.word	0x20000000
 80011f4:	200000d0 	.word	0x200000d0
 80011f8:	08006af0 	.word	0x08006af0
 80011fc:	200000d0 	.word	0x200000d0
 8001200:	200010c0 	.word	0x200010c0

08001204 <ADC_IRQHandler>:
 8001204:	e7fe      	b.n	8001204 <ADC_IRQHandler>

08001206 <HAL_Init>:
 8001206:	b508      	push	{r3, lr}
 8001208:	2003      	movs	r0, #3
 800120a:	f000 f82b 	bl	8001264 <HAL_NVIC_SetPriorityGrouping>
 800120e:	200f      	movs	r0, #15
 8001210:	f7ff ff36 	bl	8001080 <HAL_InitTick>
 8001214:	f7ff fe1a 	bl	8000e4c <HAL_MspInit>
 8001218:	2000      	movs	r0, #0
 800121a:	bd08      	pop	{r3, pc}

0800121c <HAL_IncTick>:
 800121c:	4a03      	ldr	r2, [pc, #12]	@ (800122c <HAL_IncTick+0x10>)
 800121e:	4b04      	ldr	r3, [pc, #16]	@ (8001230 <HAL_IncTick+0x14>)
 8001220:	6811      	ldr	r1, [r2, #0]
 8001222:	781b      	ldrb	r3, [r3, #0]
 8001224:	440b      	add	r3, r1
 8001226:	6013      	str	r3, [r2, #0]
 8001228:	4770      	bx	lr
 800122a:	bf00      	nop
 800122c:	200007b8 	.word	0x200007b8
 8001230:	2000000c 	.word	0x2000000c

08001234 <HAL_GetTick>:
 8001234:	4b01      	ldr	r3, [pc, #4]	@ (800123c <HAL_GetTick+0x8>)
 8001236:	6818      	ldr	r0, [r3, #0]
 8001238:	4770      	bx	lr
 800123a:	bf00      	nop
 800123c:	200007b8 	.word	0x200007b8

08001240 <HAL_Delay>:
 8001240:	b538      	push	{r3, r4, r5, lr}
 8001242:	4604      	mov	r4, r0
 8001244:	f7ff fff6 	bl	8001234 <HAL_GetTick>
 8001248:	4605      	mov	r5, r0
 800124a:	1c63      	adds	r3, r4, #1
 800124c:	bf1e      	ittt	ne
 800124e:	4b04      	ldrne	r3, [pc, #16]	@ (8001260 <HAL_Delay+0x20>)
 8001250:	781b      	ldrbne	r3, [r3, #0]
 8001252:	18e4      	addne	r4, r4, r3
 8001254:	f7ff ffee 	bl	8001234 <HAL_GetTick>
 8001258:	1b43      	subs	r3, r0, r5
 800125a:	42a3      	cmp	r3, r4
 800125c:	d3fa      	bcc.n	8001254 <HAL_Delay+0x14>
 800125e:	bd38      	pop	{r3, r4, r5, pc}
 8001260:	2000000c 	.word	0x2000000c

08001264 <HAL_NVIC_SetPriorityGrouping>:
 8001264:	4907      	ldr	r1, [pc, #28]	@ (8001284 <HAL_NVIC_SetPriorityGrouping+0x20>)
 8001266:	0203      	lsls	r3, r0, #8
 8001268:	68ca      	ldr	r2, [r1, #12]
 800126a:	f403 63e0 	and.w	r3, r3, #1792	@ 0x700
 800126e:	f422 62e0 	bic.w	r2, r2, #1792	@ 0x700
 8001272:	0412      	lsls	r2, r2, #16
 8001274:	0c12      	lsrs	r2, r2, #16
 8001276:	4313      	orrs	r3, r2
 8001278:	f043 63bf 	orr.w	r3, r3, #100139008	@ 0x5f80000
 800127c:	f443 3300 	orr.w	r3, r3, #131072	@ 0x20000
 8001280:	60cb      	str	r3, [r1, #12]
 8001282:	4770      	bx	lr
 8001284:	e000ed00 	.word	0xe000ed00

08001288 <HAL_NVIC_SetPriority>:
 8001288:	4b16      	ldr	r3, [pc, #88]	@ (80012e4 <HAL_NVIC_SetPriority+0x5c>)
 800128a:	b530      	push	{r4, r5, lr}
 800128c:	68dc      	ldr	r4, [r3, #12]
 800128e:	f3c4 2402 	ubfx	r4, r4, #8, #3
 8001292:	f1c4 0307 	rsb	r3, r4, #7
 8001296:	1d25      	adds	r5, r4, #4
 8001298:	2b04      	cmp	r3, #4
 800129a:	bf28      	it	cs
 800129c:	2304      	movcs	r3, #4
 800129e:	2d06      	cmp	r5, #6
 80012a0:	f04f 35ff 	mov.w	r5, #4294967295	@ 0xffffffff
 80012a4:	bf8c      	ite	hi
 80012a6:	3c03      	subhi	r4, #3
 80012a8:	2400      	movls	r4, #0
 80012aa:	fa05 f303 	lsl.w	r3, r5, r3
 80012ae:	2800      	cmp	r0, #0
 80012b0:	fa05 f504 	lsl.w	r5, r5, r4
 80012b4:	ea21 0303 	bic.w	r3, r1, r3
 80012b8:	ea22 0205 	bic.w	r2, r2, r5
 80012bc:	fa03 f304 	lsl.w	r3, r3, r4
 80012c0:	ea43 0302 	orr.w	r3, r3, r2
 80012c4:	ea4f 1303 	mov.w	r3, r3, lsl #4
 80012c8:	b2db      	uxtb	r3, r3
 80012ca:	db06      	blt.n	80012da <HAL_NVIC_SetPriority+0x52>
 80012cc:	f100 4060 	add.w	r0, r0, #3758096384	@ 0xe0000000
 80012d0:	f500 4061 	add.w	r0, r0, #57600	@ 0xe100
 80012d4:	f880 3300 	strb.w	r3, [r0, #768]	@ 0x300
 80012d8:	bd30      	pop	{r4, r5, pc}
 80012da:	f000 000f 	and.w	r0, r0, #15
 80012de:	4a02      	ldr	r2, [pc, #8]	@ (80012e8 <HAL_NVIC_SetPriority+0x60>)
 80012e0:	5413      	strb	r3, [r2, r0]
 80012e2:	e7f9      	b.n	80012d8 <HAL_NVIC_SetPriority+0x50>
 80012e4:	e000ed00 	.word	0xe000ed00
 80012e8:	e000ed14 	.word	0xe000ed14

080012ec <HAL_NVIC_EnableIRQ>:
 80012ec:	2800      	cmp	r0, #0
 80012ee:	db07      	blt.n	8001300 <HAL_NVIC_EnableIRQ+0x14>
 80012f0:	0941      	lsrs	r1, r0, #5
 80012f2:	2301      	movs	r3, #1
 80012f4:	f000 001f 	and.w	r0, r0, #31
 80012f8:	4a02      	ldr	r2, [pc, #8]	@ (8001304 <HAL_NVIC_EnableIRQ+0x18>)
 80012fa:	4083      	lsls	r3, r0
 80012fc:	f842 3021 	str.w	r3, [r2, r1, lsl #2]
 8001300:	4770      	bx	lr
 8001302:	bf00      	nop
 8001304:	e000e100 	.word	0xe000e100

08001308 <DMA_CalcBaseAndBitshift>:
 8001308:	6803      	ldr	r3, [r0, #0]
 800130a:	4602      	mov	r2, r0
 800130c:	2018      	movs	r0, #24
 800130e:	b2d9      	uxtb	r1, r3
 8001310:	3910      	subs	r1, #16
 8001312:	fbb1 f0f0 	udiv	r0, r1, r0
 8001316:	b510      	push	{r4, lr}
 8001318:	4c05      	ldr	r4, [pc, #20]	@ (8001330 <DMA_CalcBaseAndBitshift+0x28>)
 800131a:	295f      	cmp	r1, #95	@ 0x5f
 800131c:	5c20      	ldrb	r0, [r4, r0]
 800131e:	65d0      	str	r0, [r2, #92]	@ 0x5c
 8001320:	f423 707f 	bic.w	r0, r3, #1020	@ 0x3fc
 8001324:	f020 0003 	bic.w	r0, r0, #3
 8001328:	bf88      	it	hi
 800132a:	3004      	addhi	r0, #4
 800132c:	6590      	str	r0, [r2, #88]	@ 0x58
 800132e:	bd10      	pop	{r4, pc}
 8001330:	08006ad4 	.word	0x08006ad4

08001334 <HAL_DMA_Init>:
 8001334:	b570      	push	{r4, r5, r6, lr}
 8001336:	4604      	mov	r4, r0
 8001338:	f7ff ff7c 	bl	8001234 <HAL_GetTick>
 800133c:	4605      	mov	r5, r0
 800133e:	2c00      	cmp	r4, #0
 8001340:	d060      	beq.n	8001404 <HAL_DMA_Init+0xd0>
 8001342:	2302      	movs	r3, #2
 8001344:	6822      	ldr	r2, [r4, #0]
 8001346:	f884 3035 	strb.w	r3, [r4, #53]	@ 0x35
 800134a:	2300      	movs	r3, #0
 800134c:	f884 3034 	strb.w	r3, [r4, #52]	@ 0x34
 8001350:	6813      	ldr	r3, [r2, #0]
 8001352:	f023 0301 	bic.w	r3, r3, #1
 8001356:	6013      	str	r3, [r2, #0]
 8001358:	6822      	ldr	r2, [r4, #0]
 800135a:	6813      	ldr	r3, [r2, #0]
 800135c:	07d8      	lsls	r0, r3, #31
 800135e:	d42e      	bmi.n	80013be <HAL_DMA_Init+0x8a>
 8001360:	6813      	ldr	r3, [r2, #0]
 8001362:	4832      	ldr	r0, [pc, #200]	@ (800142c <HAL_DMA_Init+0xf8>)
 8001364:	69a1      	ldr	r1, [r4, #24]
 8001366:	4018      	ands	r0, r3
 8001368:	e9d4 3501 	ldrd	r3, r5, [r4, #4]
 800136c:	432b      	orrs	r3, r5
 800136e:	68e5      	ldr	r5, [r4, #12]
 8001370:	432b      	orrs	r3, r5
 8001372:	6925      	ldr	r5, [r4, #16]
 8001374:	432b      	orrs	r3, r5
 8001376:	6965      	ldr	r5, [r4, #20]
 8001378:	432b      	orrs	r3, r5
 800137a:	69e5      	ldr	r5, [r4, #28]
 800137c:	430b      	orrs	r3, r1
 800137e:	432b      	orrs	r3, r5
 8001380:	6a25      	ldr	r5, [r4, #32]
 8001382:	432b      	orrs	r3, r5
 8001384:	4303      	orrs	r3, r0
 8001386:	6a60      	ldr	r0, [r4, #36]	@ 0x24
 8001388:	2804      	cmp	r0, #4
 800138a:	bf02      	ittt	eq
 800138c:	e9d4 560b 	ldrdeq	r5, r6, [r4, #44]	@ 0x2c
 8001390:	4335      	orreq	r5, r6
 8001392:	432b      	orreq	r3, r5
 8001394:	2804      	cmp	r0, #4
 8001396:	6013      	str	r3, [r2, #0]
 8001398:	6953      	ldr	r3, [r2, #20]
 800139a:	f023 0307 	bic.w	r3, r3, #7
 800139e:	ea43 0300 	orr.w	r3, r3, r0
 80013a2:	d135      	bne.n	8001410 <HAL_DMA_Init+0xdc>
 80013a4:	6aa0      	ldr	r0, [r4, #40]	@ 0x28
 80013a6:	6ae5      	ldr	r5, [r4, #44]	@ 0x2c
 80013a8:	4303      	orrs	r3, r0
 80013aa:	b38d      	cbz	r5, 8001410 <HAL_DMA_Init+0xdc>
 80013ac:	b991      	cbnz	r1, 80013d4 <HAL_DMA_Init+0xa0>
 80013ae:	2801      	cmp	r0, #1
 80013b0:	d020      	beq.n	80013f4 <HAL_DMA_Init+0xc0>
 80013b2:	f030 0102 	bics.w	r1, r0, #2
 80013b6:	d12b      	bne.n	8001410 <HAL_DMA_Init+0xdc>
 80013b8:	01e9      	lsls	r1, r5, #7
 80013ba:	d529      	bpl.n	8001410 <HAL_DMA_Init+0xdc>
 80013bc:	e01d      	b.n	80013fa <HAL_DMA_Init+0xc6>
 80013be:	f7ff ff39 	bl	8001234 <HAL_GetTick>
 80013c2:	1b40      	subs	r0, r0, r5
 80013c4:	2805      	cmp	r0, #5
 80013c6:	d9c7      	bls.n	8001358 <HAL_DMA_Init+0x24>
 80013c8:	2320      	movs	r3, #32
 80013ca:	2003      	movs	r0, #3
 80013cc:	6563      	str	r3, [r4, #84]	@ 0x54
 80013ce:	f884 0035 	strb.w	r0, [r4, #53]	@ 0x35
 80013d2:	bd70      	pop	{r4, r5, r6, pc}
 80013d4:	f5b1 5f00 	cmp.w	r1, #8192	@ 0x2000
 80013d8:	d116      	bne.n	8001408 <HAL_DMA_Init+0xd4>
 80013da:	2803      	cmp	r0, #3
 80013dc:	d818      	bhi.n	8001410 <HAL_DMA_Init+0xdc>
 80013de:	a101      	add	r1, pc, #4	@ (adr r1, 80013e4 <HAL_DMA_Init+0xb0>)
 80013e0:	f851 f020 	ldr.w	pc, [r1, r0, lsl #2]
 80013e4:	080013fb 	.word	0x080013fb
 80013e8:	080013b9 	.word	0x080013b9
 80013ec:	080013fb 	.word	0x080013fb
 80013f0:	080013f5 	.word	0x080013f5
 80013f4:	f1b5 7fc0 	cmp.w	r5, #25165824	@ 0x1800000
 80013f8:	d10a      	bne.n	8001410 <HAL_DMA_Init+0xdc>
 80013fa:	2340      	movs	r3, #64	@ 0x40
 80013fc:	6563      	str	r3, [r4, #84]	@ 0x54
 80013fe:	2300      	movs	r3, #0
 8001400:	f884 3035 	strb.w	r3, [r4, #53]	@ 0x35
 8001404:	2001      	movs	r0, #1
 8001406:	e7e4      	b.n	80013d2 <HAL_DMA_Init+0x9e>
 8001408:	2802      	cmp	r0, #2
 800140a:	d9f6      	bls.n	80013fa <HAL_DMA_Init+0xc6>
 800140c:	2803      	cmp	r0, #3
 800140e:	d0d3      	beq.n	80013b8 <HAL_DMA_Init+0x84>
 8001410:	6153      	str	r3, [r2, #20]
 8001412:	4620      	mov	r0, r4
 8001414:	f7ff ff78 	bl	8001308 <DMA_CalcBaseAndBitshift>
 8001418:	6de2      	ldr	r2, [r4, #92]	@ 0x5c
 800141a:	233f      	movs	r3, #63	@ 0x3f
 800141c:	4093      	lsls	r3, r2
 800141e:	6083      	str	r3, [r0, #8]
 8001420:	2000      	movs	r0, #0
 8001422:	2301      	movs	r3, #1
 8001424:	6560      	str	r0, [r4, #84]	@ 0x54
 8001426:	f884 3035 	strb.w	r3, [r4, #53]	@ 0x35
 800142a:	e7d2      	b.n	80013d2 <HAL_DMA_Init+0x9e>
 800142c:	f010803f 	.word	0xf010803f

08001430 <HAL_DMA_Start_IT>:
 8001430:	b570      	push	{r4, r5, r6, lr}
 8001432:	f890 4034 	ldrb.w	r4, [r0, #52]	@ 0x34
 8001436:	6d86      	ldr	r6, [r0, #88]	@ 0x58
 8001438:	2c01      	cmp	r4, #1
 800143a:	d034      	beq.n	80014a6 <HAL_DMA_Start_IT+0x76>
 800143c:	2401      	movs	r4, #1
 800143e:	f880 4034 	strb.w	r4, [r0, #52]	@ 0x34
 8001442:	f890 4035 	ldrb.w	r4, [r0, #53]	@ 0x35
 8001446:	2c01      	cmp	r4, #1
 8001448:	f04f 0400 	mov.w	r4, #0
 800144c:	d129      	bne.n	80014a2 <HAL_DMA_Start_IT+0x72>
 800144e:	2502      	movs	r5, #2
 8001450:	f880 5035 	strb.w	r5, [r0, #53]	@ 0x35
 8001454:	6544      	str	r4, [r0, #84]	@ 0x54
 8001456:	6804      	ldr	r4, [r0, #0]
 8001458:	6825      	ldr	r5, [r4, #0]
 800145a:	f425 2580 	bic.w	r5, r5, #262144	@ 0x40000
 800145e:	6025      	str	r5, [r4, #0]
 8001460:	6063      	str	r3, [r4, #4]
 8001462:	6883      	ldr	r3, [r0, #8]
 8001464:	2b40      	cmp	r3, #64	@ 0x40
 8001466:	d119      	bne.n	800149c <HAL_DMA_Start_IT+0x6c>
 8001468:	60a2      	str	r2, [r4, #8]
 800146a:	60e1      	str	r1, [r4, #12]
 800146c:	6dc2      	ldr	r2, [r0, #92]	@ 0x5c
 800146e:	233f      	movs	r3, #63	@ 0x3f
 8001470:	4093      	lsls	r3, r2
 8001472:	60b3      	str	r3, [r6, #8]
 8001474:	6823      	ldr	r3, [r4, #0]
 8001476:	f043 0316 	orr.w	r3, r3, #22
 800147a:	6023      	str	r3, [r4, #0]
 800147c:	6963      	ldr	r3, [r4, #20]
 800147e:	f043 0380 	orr.w	r3, r3, #128	@ 0x80
 8001482:	6163      	str	r3, [r4, #20]
 8001484:	6c03      	ldr	r3, [r0, #64]	@ 0x40
 8001486:	b11b      	cbz	r3, 8001490 <HAL_DMA_Start_IT+0x60>
 8001488:	6823      	ldr	r3, [r4, #0]
 800148a:	f043 0308 	orr.w	r3, r3, #8
 800148e:	6023      	str	r3, [r4, #0]
 8001490:	6823      	ldr	r3, [r4, #0]
 8001492:	2000      	movs	r0, #0
 8001494:	f043 0301 	orr.w	r3, r3, #1
 8001498:	6023      	str	r3, [r4, #0]
 800149a:	bd70      	pop	{r4, r5, r6, pc}
 800149c:	60a1      	str	r1, [r4, #8]
 800149e:	60e2      	str	r2, [r4, #12]
 80014a0:	e7e4      	b.n	800146c <HAL_DMA_Start_IT+0x3c>
 80014a2:	f880 4034 	strb.w	r4, [r0, #52]	@ 0x34
 80014a6:	2002      	movs	r0, #2
 80014a8:	e7f7      	b.n	800149a <HAL_DMA_Start_IT+0x6a>
	...

080014ac <HAL_DMA_IRQHandler>:
 80014ac:	2300      	movs	r3, #0
 80014ae:	b5f7      	push	{r0, r1, r2, r4, r5, r6, r7, lr}
 80014b0:	9301      	str	r3, [sp, #4]
 80014b2:	2208      	movs	r2, #8
 80014b4:	4b5b      	ldr	r3, [pc, #364]	@ (8001624 <HAL_DMA_IRQHandler+0x178>)
 80014b6:	4604      	mov	r4, r0
 80014b8:	6d85      	ldr	r5, [r0, #88]	@ 0x58
 80014ba:	681f      	ldr	r7, [r3, #0]
 80014bc:	6dc3      	ldr	r3, [r0, #92]	@ 0x5c
 80014be:	682e      	ldr	r6, [r5, #0]
 80014c0:	409a      	lsls	r2, r3
 80014c2:	4232      	tst	r2, r6
 80014c4:	d00c      	beq.n	80014e0 <HAL_DMA_IRQHandler+0x34>
 80014c6:	6801      	ldr	r1, [r0, #0]
 80014c8:	6808      	ldr	r0, [r1, #0]
 80014ca:	0740      	lsls	r0, r0, #29
 80014cc:	d508      	bpl.n	80014e0 <HAL_DMA_IRQHandler+0x34>
 80014ce:	6808      	ldr	r0, [r1, #0]
 80014d0:	f020 0004 	bic.w	r0, r0, #4
 80014d4:	6008      	str	r0, [r1, #0]
 80014d6:	60aa      	str	r2, [r5, #8]
 80014d8:	6d62      	ldr	r2, [r4, #84]	@ 0x54
 80014da:	f042 0201 	orr.w	r2, r2, #1
 80014de:	6562      	str	r2, [r4, #84]	@ 0x54
 80014e0:	2201      	movs	r2, #1
 80014e2:	409a      	lsls	r2, r3
 80014e4:	4232      	tst	r2, r6
 80014e6:	d008      	beq.n	80014fa <HAL_DMA_IRQHandler+0x4e>
 80014e8:	6821      	ldr	r1, [r4, #0]
 80014ea:	6949      	ldr	r1, [r1, #20]
 80014ec:	0609      	lsls	r1, r1, #24
 80014ee:	d504      	bpl.n	80014fa <HAL_DMA_IRQHandler+0x4e>
 80014f0:	60aa      	str	r2, [r5, #8]
 80014f2:	6d62      	ldr	r2, [r4, #84]	@ 0x54
 80014f4:	f042 0202 	orr.w	r2, r2, #2
 80014f8:	6562      	str	r2, [r4, #84]	@ 0x54
 80014fa:	2204      	movs	r2, #4
 80014fc:	409a      	lsls	r2, r3
 80014fe:	4232      	tst	r2, r6
 8001500:	d008      	beq.n	8001514 <HAL_DMA_IRQHandler+0x68>
 8001502:	6821      	ldr	r1, [r4, #0]
 8001504:	6809      	ldr	r1, [r1, #0]
 8001506:	0788      	lsls	r0, r1, #30
 8001508:	d504      	bpl.n	8001514 <HAL_DMA_IRQHandler+0x68>
 800150a:	60aa      	str	r2, [r5, #8]
 800150c:	6d62      	ldr	r2, [r4, #84]	@ 0x54
 800150e:	f042 0204 	orr.w	r2, r2, #4
 8001512:	6562      	str	r2, [r4, #84]	@ 0x54
 8001514:	2210      	movs	r2, #16
 8001516:	409a      	lsls	r2, r3
 8001518:	4232      	tst	r2, r6
 800151a:	d010      	beq.n	800153e <HAL_DMA_IRQHandler+0x92>
 800151c:	6823      	ldr	r3, [r4, #0]
 800151e:	6819      	ldr	r1, [r3, #0]
 8001520:	0709      	lsls	r1, r1, #28
 8001522:	d50c      	bpl.n	800153e <HAL_DMA_IRQHandler+0x92>
 8001524:	60aa      	str	r2, [r5, #8]
 8001526:	681a      	ldr	r2, [r3, #0]
 8001528:	0350      	lsls	r0, r2, #13
 800152a:	d537      	bpl.n	800159c <HAL_DMA_IRQHandler+0xf0>
 800152c:	681b      	ldr	r3, [r3, #0]
 800152e:	0319      	lsls	r1, r3, #12
 8001530:	d401      	bmi.n	8001536 <HAL_DMA_IRQHandler+0x8a>
 8001532:	6c23      	ldr	r3, [r4, #64]	@ 0x40
 8001534:	e000      	b.n	8001538 <HAL_DMA_IRQHandler+0x8c>
 8001536:	6ca3      	ldr	r3, [r4, #72]	@ 0x48
 8001538:	b10b      	cbz	r3, 800153e <HAL_DMA_IRQHandler+0x92>
 800153a:	4620      	mov	r0, r4
 800153c:	4798      	blx	r3
 800153e:	6de1      	ldr	r1, [r4, #92]	@ 0x5c
 8001540:	2220      	movs	r2, #32
 8001542:	408a      	lsls	r2, r1
 8001544:	4232      	tst	r2, r6
 8001546:	d03a      	beq.n	80015be <HAL_DMA_IRQHandler+0x112>
 8001548:	6823      	ldr	r3, [r4, #0]
 800154a:	6818      	ldr	r0, [r3, #0]
 800154c:	06c6      	lsls	r6, r0, #27
 800154e:	d536      	bpl.n	80015be <HAL_DMA_IRQHandler+0x112>
 8001550:	60aa      	str	r2, [r5, #8]
 8001552:	f894 2035 	ldrb.w	r2, [r4, #53]	@ 0x35
 8001556:	2a05      	cmp	r2, #5
 8001558:	681a      	ldr	r2, [r3, #0]
 800155a:	d127      	bne.n	80015ac <HAL_DMA_IRQHandler+0x100>
 800155c:	f022 0216 	bic.w	r2, r2, #22
 8001560:	601a      	str	r2, [r3, #0]
 8001562:	695a      	ldr	r2, [r3, #20]
 8001564:	f022 0280 	bic.w	r2, r2, #128	@ 0x80
 8001568:	615a      	str	r2, [r3, #20]
 800156a:	6c22      	ldr	r2, [r4, #64]	@ 0x40
 800156c:	b90a      	cbnz	r2, 8001572 <HAL_DMA_IRQHandler+0xc6>
 800156e:	6ca2      	ldr	r2, [r4, #72]	@ 0x48
 8001570:	b11a      	cbz	r2, 800157a <HAL_DMA_IRQHandler+0xce>
 8001572:	681a      	ldr	r2, [r3, #0]
 8001574:	f022 0208 	bic.w	r2, r2, #8
 8001578:	601a      	str	r2, [r3, #0]
 800157a:	233f      	movs	r3, #63	@ 0x3f
 800157c:	408b      	lsls	r3, r1
 800157e:	60ab      	str	r3, [r5, #8]
 8001580:	2301      	movs	r3, #1
 8001582:	f884 3035 	strb.w	r3, [r4, #53]	@ 0x35
 8001586:	2300      	movs	r3, #0
 8001588:	f884 3034 	strb.w	r3, [r4, #52]	@ 0x34
 800158c:	6d23      	ldr	r3, [r4, #80]	@ 0x50
 800158e:	2b00      	cmp	r3, #0
 8001590:	d045      	beq.n	800161e <HAL_DMA_IRQHandler+0x172>
 8001592:	4620      	mov	r0, r4
 8001594:	b003      	add	sp, #12
 8001596:	e8bd 40f0 	ldmia.w	sp!, {r4, r5, r6, r7, lr}
 800159a:	4718      	bx	r3
 800159c:	681a      	ldr	r2, [r3, #0]
 800159e:	05d2      	lsls	r2, r2, #23
 80015a0:	d4c7      	bmi.n	8001532 <HAL_DMA_IRQHandler+0x86>
 80015a2:	681a      	ldr	r2, [r3, #0]
 80015a4:	f022 0208 	bic.w	r2, r2, #8
 80015a8:	601a      	str	r2, [r3, #0]
 80015aa:	e7c2      	b.n	8001532 <HAL_DMA_IRQHandler+0x86>
 80015ac:	0350      	lsls	r0, r2, #13
 80015ae:	d527      	bpl.n	8001600 <HAL_DMA_IRQHandler+0x154>
 80015b0:	681b      	ldr	r3, [r3, #0]
 80015b2:	0319      	lsls	r1, r3, #12
 80015b4:	d431      	bmi.n	800161a <HAL_DMA_IRQHandler+0x16e>
 80015b6:	6c63      	ldr	r3, [r4, #68]	@ 0x44
 80015b8:	b10b      	cbz	r3, 80015be <HAL_DMA_IRQHandler+0x112>
 80015ba:	4620      	mov	r0, r4
 80015bc:	4798      	blx	r3
 80015be:	6d63      	ldr	r3, [r4, #84]	@ 0x54
 80015c0:	b36b      	cbz	r3, 800161e <HAL_DMA_IRQHandler+0x172>
 80015c2:	6d63      	ldr	r3, [r4, #84]	@ 0x54
 80015c4:	07da      	lsls	r2, r3, #31
 80015c6:	d519      	bpl.n	80015fc <HAL_DMA_IRQHandler+0x150>
 80015c8:	f44f 5316 	mov.w	r3, #9600	@ 0x2580
 80015cc:	6822      	ldr	r2, [r4, #0]
 80015ce:	fbb7 f7f3 	udiv	r7, r7, r3
 80015d2:	2305      	movs	r3, #5
 80015d4:	f884 3035 	strb.w	r3, [r4, #53]	@ 0x35
 80015d8:	6813      	ldr	r3, [r2, #0]
 80015da:	f023 0301 	bic.w	r3, r3, #1
 80015de:	6013      	str	r3, [r2, #0]
 80015e0:	9b01      	ldr	r3, [sp, #4]
 80015e2:	3301      	adds	r3, #1
 80015e4:	42bb      	cmp	r3, r7
 80015e6:	9301      	str	r3, [sp, #4]
 80015e8:	d802      	bhi.n	80015f0 <HAL_DMA_IRQHandler+0x144>
 80015ea:	6813      	ldr	r3, [r2, #0]
 80015ec:	07db      	lsls	r3, r3, #31
 80015ee:	d4f7      	bmi.n	80015e0 <HAL_DMA_IRQHandler+0x134>
 80015f0:	2301      	movs	r3, #1
 80015f2:	f884 3035 	strb.w	r3, [r4, #53]	@ 0x35
 80015f6:	2300      	movs	r3, #0
 80015f8:	f884 3034 	strb.w	r3, [r4, #52]	@ 0x34
 80015fc:	6ce3      	ldr	r3, [r4, #76]	@ 0x4c
 80015fe:	e7c6      	b.n	800158e <HAL_DMA_IRQHandler+0xe2>
 8001600:	681a      	ldr	r2, [r3, #0]
 8001602:	f412 7280 	ands.w	r2, r2, #256	@ 0x100
 8001606:	d108      	bne.n	800161a <HAL_DMA_IRQHandler+0x16e>
 8001608:	6819      	ldr	r1, [r3, #0]
 800160a:	f021 0110 	bic.w	r1, r1, #16
 800160e:	6019      	str	r1, [r3, #0]
 8001610:	2301      	movs	r3, #1
 8001612:	f884 2034 	strb.w	r2, [r4, #52]	@ 0x34
 8001616:	f884 3035 	strb.w	r3, [r4, #53]	@ 0x35
 800161a:	6be3      	ldr	r3, [r4, #60]	@ 0x3c
 800161c:	e7cc      	b.n	80015b8 <HAL_DMA_IRQHandler+0x10c>
 800161e:	b003      	add	sp, #12
 8001620:	bdf0      	pop	{r4, r5, r6, r7, pc}
 8001622:	bf00      	nop
 8001624:	20000008 	.word	0x20000008

08001628 <HAL_GPIO_Init>:
 8001628:	e92d 4ff7 	stmdb	sp!, {r0, r1, r2, r4, r5, r6, r7, r8, r9, sl, fp, lr}
 800162c:	2300      	movs	r3, #0
 800162e:	f8df 91bc 	ldr.w	r9, [pc, #444]	@ 80017ec <HAL_GPIO_Init+0x1c4>
 8001632:	4a6c      	ldr	r2, [pc, #432]	@ (80017e4 <HAL_GPIO_Init+0x1bc>)
 8001634:	2401      	movs	r4, #1
 8001636:	680d      	ldr	r5, [r1, #0]
 8001638:	409c      	lsls	r4, r3
 800163a:	ea04 0605 	and.w	r6, r4, r5
 800163e:	43ac      	bics	r4, r5
 8001640:	f040 80b7 	bne.w	80017b2 <HAL_GPIO_Init+0x18a>
 8001644:	684d      	ldr	r5, [r1, #4]
 8001646:	2703      	movs	r7, #3
 8001648:	ea4f 0e43 	mov.w	lr, r3, lsl #1
 800164c:	f005 0403 	and.w	r4, r5, #3
 8001650:	fa07 fc0e 	lsl.w	ip, r7, lr
 8001654:	1e67      	subs	r7, r4, #1
 8001656:	ea6f 0c0c 	mvn.w	ip, ip
 800165a:	2f01      	cmp	r7, #1
 800165c:	d834      	bhi.n	80016c8 <HAL_GPIO_Init+0xa0>
 800165e:	6887      	ldr	r7, [r0, #8]
 8001660:	ea07 080c 	and.w	r8, r7, ip
 8001664:	68cf      	ldr	r7, [r1, #12]
 8001666:	fa07 f70e 	lsl.w	r7, r7, lr
 800166a:	ea47 0708 	orr.w	r7, r7, r8
 800166e:	6087      	str	r7, [r0, #8]
 8001670:	6847      	ldr	r7, [r0, #4]
 8001672:	ea27 0806 	bic.w	r8, r7, r6
 8001676:	f3c5 1700 	ubfx	r7, r5, #4, #1
 800167a:	409f      	lsls	r7, r3
 800167c:	ea47 0708 	orr.w	r7, r7, r8
 8001680:	6047      	str	r7, [r0, #4]
 8001682:	68c7      	ldr	r7, [r0, #12]
 8001684:	2c02      	cmp	r4, #2
 8001686:	ea07 080c 	and.w	r8, r7, ip
 800168a:	688f      	ldr	r7, [r1, #8]
 800168c:	fa07 f70e 	lsl.w	r7, r7, lr
 8001690:	ea47 0708 	orr.w	r7, r7, r8
 8001694:	60c7      	str	r7, [r0, #12]
 8001696:	d119      	bne.n	80016cc <HAL_GPIO_Init+0xa4>
 8001698:	ea4f 08d3 	mov.w	r8, r3, lsr #3
 800169c:	f003 0a07 	and.w	sl, r3, #7
 80016a0:	f04f 0b0f 	mov.w	fp, #15
 80016a4:	eb00 0888 	add.w	r8, r0, r8, lsl #2
 80016a8:	ea4f 0a8a 	mov.w	sl, sl, lsl #2
 80016ac:	f8d8 7020 	ldr.w	r7, [r8, #32]
 80016b0:	fa0b fb0a 	lsl.w	fp, fp, sl
 80016b4:	ea27 0b0b 	bic.w	fp, r7, fp
 80016b8:	690f      	ldr	r7, [r1, #16]
 80016ba:	fa07 f70a 	lsl.w	r7, r7, sl
 80016be:	ea47 070b 	orr.w	r7, r7, fp
 80016c2:	f8c8 7020 	str.w	r7, [r8, #32]
 80016c6:	e001      	b.n	80016cc <HAL_GPIO_Init+0xa4>
 80016c8:	2c03      	cmp	r4, #3
 80016ca:	d1da      	bne.n	8001682 <HAL_GPIO_Init+0x5a>
 80016cc:	6807      	ldr	r7, [r0, #0]
 80016ce:	fa04 f40e 	lsl.w	r4, r4, lr
 80016d2:	f415 3f40 	tst.w	r5, #196608	@ 0x30000
 80016d6:	ea07 070c 	and.w	r7, r7, ip
 80016da:	ea44 0407 	orr.w	r4, r4, r7
 80016de:	6004      	str	r4, [r0, #0]
 80016e0:	d067      	beq.n	80017b2 <HAL_GPIO_Init+0x18a>
 80016e2:	f8d9 4044 	ldr.w	r4, [r9, #68]	@ 0x44
 80016e6:	f023 0703 	bic.w	r7, r3, #3
 80016ea:	f003 0c03 	and.w	ip, r3, #3
 80016ee:	f04f 0e0f 	mov.w	lr, #15
 80016f2:	f444 4480 	orr.w	r4, r4, #16384	@ 0x4000
 80016f6:	f107 4780 	add.w	r7, r7, #1073741824	@ 0x40000000
 80016fa:	ea4f 0c8c 	mov.w	ip, ip, lsl #2
 80016fe:	f8c9 4044 	str.w	r4, [r9, #68]	@ 0x44
 8001702:	f507 379c 	add.w	r7, r7, #79872	@ 0x13800
 8001706:	f8d9 4044 	ldr.w	r4, [r9, #68]	@ 0x44
 800170a:	fa0e fe0c 	lsl.w	lr, lr, ip
 800170e:	f404 4480 	and.w	r4, r4, #16384	@ 0x4000
 8001712:	9401      	str	r4, [sp, #4]
 8001714:	9c01      	ldr	r4, [sp, #4]
 8001716:	68bc      	ldr	r4, [r7, #8]
 8001718:	ea24 0e0e 	bic.w	lr, r4, lr
 800171c:	4c32      	ldr	r4, [pc, #200]	@ (80017e8 <HAL_GPIO_Init+0x1c0>)
 800171e:	42a0      	cmp	r0, r4
 8001720:	d04e      	beq.n	80017c0 <HAL_GPIO_Init+0x198>
 8001722:	f504 6480 	add.w	r4, r4, #1024	@ 0x400
 8001726:	42a0      	cmp	r0, r4
 8001728:	d04c      	beq.n	80017c4 <HAL_GPIO_Init+0x19c>
 800172a:	f504 6480 	add.w	r4, r4, #1024	@ 0x400
 800172e:	42a0      	cmp	r0, r4
 8001730:	d04a      	beq.n	80017c8 <HAL_GPIO_Init+0x1a0>
 8001732:	f504 6480 	add.w	r4, r4, #1024	@ 0x400
 8001736:	42a0      	cmp	r0, r4
 8001738:	d048      	beq.n	80017cc <HAL_GPIO_Init+0x1a4>
 800173a:	f504 6480 	add.w	r4, r4, #1024	@ 0x400
 800173e:	42a0      	cmp	r0, r4
 8001740:	d046      	beq.n	80017d0 <HAL_GPIO_Init+0x1a8>
 8001742:	f504 6480 	add.w	r4, r4, #1024	@ 0x400
 8001746:	42a0      	cmp	r0, r4
 8001748:	d044      	beq.n	80017d4 <HAL_GPIO_Init+0x1ac>
 800174a:	f504 6480 	add.w	r4, r4, #1024	@ 0x400
 800174e:	42a0      	cmp	r0, r4
 8001750:	d042      	beq.n	80017d8 <HAL_GPIO_Init+0x1b0>
 8001752:	f504 6480 	add.w	r4, r4, #1024	@ 0x400
 8001756:	42a0      	cmp	r0, r4
 8001758:	d040      	beq.n	80017dc <HAL_GPIO_Init+0x1b4>
 800175a:	f504 6480 	add.w	r4, r4, #1024	@ 0x400
 800175e:	42a0      	cmp	r0, r4
 8001760:	d03e      	beq.n	80017e0 <HAL_GPIO_Init+0x1b8>
 8001762:	f504 6480 	add.w	r4, r4, #1024	@ 0x400
 8001766:	42a0      	cmp	r0, r4
 8001768:	bf14      	ite	ne
 800176a:	240a      	movne	r4, #10
 800176c:	2409      	moveq	r4, #9
 800176e:	fa04 f40c 	lsl.w	r4, r4, ip
 8001772:	f415 1f80 	tst.w	r5, #1048576	@ 0x100000
 8001776:	ea44 040e 	orr.w	r4, r4, lr
 800177a:	60bc      	str	r4, [r7, #8]
 800177c:	ea6f 0706 	mvn.w	r7, r6
 8001780:	6894      	ldr	r4, [r2, #8]
 8001782:	bf0c      	ite	eq
 8001784:	403c      	andeq	r4, r7
 8001786:	4334      	orrne	r4, r6
 8001788:	f415 1f00 	tst.w	r5, #2097152	@ 0x200000
 800178c:	6094      	str	r4, [r2, #8]
 800178e:	68d4      	ldr	r4, [r2, #12]
 8001790:	bf0c      	ite	eq
 8001792:	403c      	andeq	r4, r7
 8001794:	4334      	orrne	r4, r6
 8001796:	f415 3f00 	tst.w	r5, #131072	@ 0x20000
 800179a:	60d4      	str	r4, [r2, #12]
 800179c:	6854      	ldr	r4, [r2, #4]
 800179e:	bf0c      	ite	eq
 80017a0:	403c      	andeq	r4, r7
 80017a2:	4334      	orrne	r4, r6
 80017a4:	03ed      	lsls	r5, r5, #15
 80017a6:	6054      	str	r4, [r2, #4]
 80017a8:	6814      	ldr	r4, [r2, #0]
 80017aa:	bf54      	ite	pl
 80017ac:	403c      	andpl	r4, r7
 80017ae:	4334      	orrmi	r4, r6
 80017b0:	6014      	str	r4, [r2, #0]
 80017b2:	3301      	adds	r3, #1
 80017b4:	2b10      	cmp	r3, #16
 80017b6:	f47f af3d 	bne.w	8001634 <HAL_GPIO_Init+0xc>
 80017ba:	b003      	add	sp, #12
 80017bc:	e8bd 8ff0 	ldmia.w	sp!, {r4, r5, r6, r7, r8, r9, sl, fp, pc}
 80017c0:	2400      	movs	r4, #0
 80017c2:	e7d4      	b.n	800176e <HAL_GPIO_Init+0x146>
 80017c4:	2401      	movs	r4, #1
 80017c6:	e7d2      	b.n	800176e <HAL_GPIO_Init+0x146>
 80017c8:	2402      	movs	r4, #2
 80017ca:	e7d0      	b.n	800176e <HAL_GPIO_Init+0x146>
 80017cc:	2403      	movs	r4, #3
 80017ce:	e7ce      	b.n	800176e <HAL_GPIO_Init+0x146>
 80017d0:	2404      	movs	r4, #4
 80017d2:	e7cc      	b.n	800176e <HAL_GPIO_Init+0x146>
 80017d4:	2405      	movs	r4, #5
 80017d6:	e7ca      	b.n	800176e <HAL_GPIO_Init+0x146>
 80017d8:	2406      	movs	r4, #6
 80017da:	e7c8      	b.n	800176e <HAL_GPIO_Init+0x146>
 80017dc:	2407      	movs	r4, #7
 80017de:	e7c6      	b.n	800176e <HAL_GPIO_Init+0x146>
 80017e0:	2408      	movs	r4, #8
 80017e2:	e7c4      	b.n	800176e <HAL_GPIO_Init+0x146>
 80017e4:	40013c00 	.word	0x40013c00
 80017e8:	40020000 	.word	0x40020000
 80017ec:	40023800 	.word	0x40023800

080017f0 <HAL_GPIO_WritePin>:
 80017f0:	b10a      	cbz	r2, 80017f6 <HAL_GPIO_WritePin+0x6>
 80017f2:	6181      	str	r1, [r0, #24]
 80017f4:	4770      	bx	lr
 80017f6:	0409      	lsls	r1, r1, #16
 80017f8:	e7fb      	b.n	80017f2 <HAL_GPIO_WritePin+0x2>

080017fa <HAL_HCD_HC_Halt>:
 80017fa:	b510      	push	{r4, lr}
 80017fc:	f890 33d4 	ldrb.w	r3, [r0, #980]	@ 0x3d4
 8001800:	4604      	mov	r4, r0
 8001802:	2b01      	cmp	r3, #1
 8001804:	d009      	beq.n	800181a <HAL_HCD_HC_Halt+0x20>
 8001806:	2301      	movs	r3, #1
 8001808:	f880 33d4 	strb.w	r3, [r0, #980]	@ 0x3d4
 800180c:	6800      	ldr	r0, [r0, #0]
 800180e:	f002 fcf0 	bl	80041f2 <USB_HC_Halt>
 8001812:	2000      	movs	r0, #0
 8001814:	f884 03d4 	strb.w	r0, [r4, #980]	@ 0x3d4
 8001818:	bd10      	pop	{r4, pc}
 800181a:	2002      	movs	r0, #2
 800181c:	e7fc      	b.n	8001818 <HAL_HCD_HC_Halt+0x1e>

0800181e <HAL_HCD_Init>:
 800181e:	b537      	push	{r0, r1, r2, r4, r5, lr}
 8001820:	4604      	mov	r4, r0
 8001822:	b310      	cbz	r0, 800186a <HAL_HCD_Init+0x4c>
 8001824:	f890 33d5 	ldrb.w	r3, [r0, #981]	@ 0x3d5
 8001828:	6805      	ldr	r5, [r0, #0]
 800182a:	f003 02ff 	and.w	r2, r3, #255	@ 0xff
 800182e:	b91b      	cbnz	r3, 8001838 <HAL_HCD_Init+0x1a>
 8001830:	f880 23d4 	strb.w	r2, [r0, #980]	@ 0x3d4
 8001834:	f004 fedc 	bl	80065f0 <HAL_HCD_MspInit>
 8001838:	2303      	movs	r3, #3
 800183a:	f1b5 4fa0 	cmp.w	r5, #1342177280	@ 0x50000000
 800183e:	6820      	ldr	r0, [r4, #0]
 8001840:	f104 0504 	add.w	r5, r4, #4
 8001844:	f884 33d5 	strb.w	r3, [r4, #981]	@ 0x3d5
 8001848:	bf04      	itt	eq
 800184a:	2300      	moveq	r3, #0
 800184c:	71a3      	strbeq	r3, [r4, #6]
 800184e:	f002 fab1 	bl	8003db4 <USB_DisableGlobalInt>
 8001852:	7c23      	ldrb	r3, [r4, #16]
 8001854:	f88d 3000 	strb.w	r3, [sp]
 8001858:	6820      	ldr	r0, [r4, #0]
 800185a:	e895 000e 	ldmia.w	r5, {r1, r2, r3}
 800185e:	f002 fa65 	bl	8003d2c <USB_CoreInit>
 8001862:	b128      	cbz	r0, 8001870 <HAL_HCD_Init+0x52>
 8001864:	2302      	movs	r3, #2
 8001866:	f884 33d5 	strb.w	r3, [r4, #981]	@ 0x3d5
 800186a:	2001      	movs	r0, #1
 800186c:	b003      	add	sp, #12
 800186e:	bd30      	pop	{r4, r5, pc}
 8001870:	2101      	movs	r1, #1
 8001872:	6820      	ldr	r0, [r4, #0]
 8001874:	f002 faa4 	bl	8003dc0 <USB_SetCurrentMode>
 8001878:	2800      	cmp	r0, #0
 800187a:	d1f3      	bne.n	8001864 <HAL_HCD_Init+0x46>
 800187c:	7c23      	ldrb	r3, [r4, #16]
 800187e:	f88d 3000 	strb.w	r3, [sp]
 8001882:	6820      	ldr	r0, [r4, #0]
 8001884:	e895 000e 	ldmia.w	r5, {r1, r2, r3}
 8001888:	f002 fb50 	bl	8003f2c <USB_HostInit>
 800188c:	2800      	cmp	r0, #0
 800188e:	d1e9      	bne.n	8001864 <HAL_HCD_Init+0x46>
 8001890:	2301      	movs	r3, #1
 8001892:	f884 33d5 	strb.w	r3, [r4, #981]	@ 0x3d5
 8001896:	e7e9      	b.n	800186c <HAL_HCD_Init+0x4e>

08001898 <HAL_HCD_HC_SubmitRequest>:
 8001898:	b4f0      	push	{r4, r5, r6, r7}
 800189a:	263c      	movs	r6, #60	@ 0x3c
 800189c:	f89d 7010 	ldrb.w	r7, [sp, #16]
 80018a0:	9d05      	ldr	r5, [sp, #20]
 80018a2:	fb06 0601 	mla	r6, r6, r1, r0
 80018a6:	f8bd 4018 	ldrh.w	r4, [sp, #24]
 80018aa:	f89d c01c 	ldrb.w	ip, [sp, #28]
 80018ae:	75f2      	strb	r2, [r6, #23]
 80018b0:	f886 3026 	strb.w	r3, [r6, #38]	@ 0x26
 80018b4:	b97f      	cbnz	r7, 80018d6 <HAL_HCD_HC_SubmitRequest+0x3e>
 80018b6:	2703      	movs	r7, #3
 80018b8:	2b02      	cmp	r3, #2
 80018ba:	f886 c019 	strb.w	ip, [r6, #25]
 80018be:	f886 702a 	strb.w	r7, [r6, #42]	@ 0x2a
 80018c2:	d042      	beq.n	800194a <HAL_HCD_HC_SubmitRequest+0xb2>
 80018c4:	42bb      	cmp	r3, r7
 80018c6:	d040      	beq.n	800194a <HAL_HCD_HC_SubmitRequest+0xb2>
 80018c8:	2b01      	cmp	r3, #1
 80018ca:	d11e      	bne.n	800190a <HAL_HCD_HC_SubmitRequest+0x72>
 80018cc:	233c      	movs	r3, #60	@ 0x3c
 80018ce:	2200      	movs	r2, #0
 80018d0:	fb03 0301 	mla	r3, r3, r1, r0
 80018d4:	e02e      	b.n	8001934 <HAL_HCD_HC_SubmitRequest+0x9c>
 80018d6:	f04f 0c02 	mov.w	ip, #2
 80018da:	f886 c02a 	strb.w	ip, [r6, #42]	@ 0x2a
 80018de:	2b03      	cmp	r3, #3
 80018e0:	d813      	bhi.n	800190a <HAL_HCD_HC_SubmitRequest+0x72>
 80018e2:	a601      	add	r6, pc, #4	@ (adr r6, 80018e8 <HAL_HCD_HC_SubmitRequest+0x50>)
 80018e4:	f856 f023 	ldr.w	pc, [r6, r3, lsl #2]
 80018e8:	080018f9 	.word	0x080018f9
 80018ec:	080018cd 	.word	0x080018cd
 80018f0:	0800194b 	.word	0x0800194b
 80018f4:	0800194b 	.word	0x0800194b
 80018f8:	2f01      	cmp	r7, #1
 80018fa:	d106      	bne.n	800190a <HAL_HCD_HC_SubmitRequest+0x72>
 80018fc:	233c      	movs	r3, #60	@ 0x3c
 80018fe:	fb03 0301 	mla	r3, r3, r1, r0
 8001902:	b9d2      	cbnz	r2, 800193a <HAL_HCD_HC_SubmitRequest+0xa2>
 8001904:	b994      	cbnz	r4, 800192c <HAL_HCD_HC_SubmitRequest+0x94>
 8001906:	f883 703d 	strb.w	r7, [r3, #61]	@ 0x3d
 800190a:	223c      	movs	r2, #60	@ 0x3c
 800190c:	fb02 0301 	mla	r3, r2, r1, r0
 8001910:	7559      	strb	r1, [r3, #21]
 8001912:	4619      	mov	r1, r3
 8001914:	635c      	str	r4, [r3, #52]	@ 0x34
 8001916:	2400      	movs	r4, #0
 8001918:	62dd      	str	r5, [r3, #44]	@ 0x2c
 800191a:	3114      	adds	r1, #20
 800191c:	f8a3 404c 	strh.w	r4, [r3, #76]	@ 0x4c
 8001920:	639c      	str	r4, [r3, #56]	@ 0x38
 8001922:	7982      	ldrb	r2, [r0, #6]
 8001924:	6800      	ldr	r0, [r0, #0]
 8001926:	bcf0      	pop	{r4, r5, r6, r7}
 8001928:	f002 bcde 	b.w	80042e8 <USB_HC_StartXfer>
 800192c:	f893 603d 	ldrb.w	r6, [r3, #61]	@ 0x3d
 8001930:	2e00      	cmp	r6, #0
 8001932:	d1ea      	bne.n	800190a <HAL_HCD_HC_SubmitRequest+0x72>
 8001934:	f883 202a 	strb.w	r2, [r3, #42]	@ 0x2a
 8001938:	e7e7      	b.n	800190a <HAL_HCD_HC_SubmitRequest+0x72>
 800193a:	7e9a      	ldrb	r2, [r3, #26]
 800193c:	2a01      	cmp	r2, #1
 800193e:	d1e4      	bne.n	800190a <HAL_HCD_HC_SubmitRequest+0x72>
 8001940:	f893 203c 	ldrb.w	r2, [r3, #60]	@ 0x3c
 8001944:	2a00      	cmp	r2, #0
 8001946:	d1e0      	bne.n	800190a <HAL_HCD_HC_SubmitRequest+0x72>
 8001948:	e7f4      	b.n	8001934 <HAL_HCD_HC_SubmitRequest+0x9c>
 800194a:	233c      	movs	r3, #60	@ 0x3c
 800194c:	fb03 0301 	mla	r3, r3, r1, r0
 8001950:	b92a      	cbnz	r2, 800195e <HAL_HCD_HC_SubmitRequest+0xc6>
 8001952:	f893 603d 	ldrb.w	r6, [r3, #61]	@ 0x3d
 8001956:	2e00      	cmp	r6, #0
 8001958:	d0ec      	beq.n	8001934 <HAL_HCD_HC_SubmitRequest+0x9c>
 800195a:	2202      	movs	r2, #2
 800195c:	e7ea      	b.n	8001934 <HAL_HCD_HC_SubmitRequest+0x9c>
 800195e:	f893 203c 	ldrb.w	r2, [r3, #60]	@ 0x3c
 8001962:	2a00      	cmp	r2, #0
 8001964:	d1f9      	bne.n	800195a <HAL_HCD_HC_SubmitRequest+0xc2>
 8001966:	e7e5      	b.n	8001934 <HAL_HCD_HC_SubmitRequest+0x9c>

08001968 <HAL_HCD_IRQHandler>:
 8001968:	e92d 4ff0 	stmdb	sp!, {r4, r5, r6, r7, r8, r9, sl, fp, lr}
 800196c:	6804      	ldr	r4, [r0, #0]
 800196e:	b085      	sub	sp, #20
 8001970:	4605      	mov	r5, r0
 8001972:	4620      	mov	r0, r4
 8001974:	f002 fad6 	bl	8003f24 <USB_GetMode>
 8001978:	2801      	cmp	r0, #1
 800197a:	f040 80f4 	bne.w	8001b66 <HAL_HCD_IRQHandler+0x1fe>
 800197e:	6828      	ldr	r0, [r5, #0]
 8001980:	f002 fac3 	bl	8003f0a <USB_ReadInterrupts>
 8001984:	2800      	cmp	r0, #0
 8001986:	f000 80ee 	beq.w	8001b66 <HAL_HCD_IRQHandler+0x1fe>
 800198a:	6828      	ldr	r0, [r5, #0]
 800198c:	f002 fabd 	bl	8003f0a <USB_ReadInterrupts>
 8001990:	0286      	lsls	r6, r0, #10
 8001992:	d503      	bpl.n	800199c <HAL_HCD_IRQHandler+0x34>
 8001994:	682b      	ldr	r3, [r5, #0]
 8001996:	f44f 1200 	mov.w	r2, #2097152	@ 0x200000
 800199a:	615a      	str	r2, [r3, #20]
 800199c:	6828      	ldr	r0, [r5, #0]
 800199e:	f002 fab4 	bl	8003f0a <USB_ReadInterrupts>
 80019a2:	02c0      	lsls	r0, r0, #11
 80019a4:	d503      	bpl.n	80019ae <HAL_HCD_IRQHandler+0x46>
 80019a6:	682b      	ldr	r3, [r5, #0]
 80019a8:	f44f 1280 	mov.w	r2, #1048576	@ 0x100000
 80019ac:	615a      	str	r2, [r3, #20]
 80019ae:	6828      	ldr	r0, [r5, #0]
 80019b0:	f002 faab 	bl	8003f0a <USB_ReadInterrupts>
 80019b4:	0141      	lsls	r1, r0, #5
 80019b6:	d503      	bpl.n	80019c0 <HAL_HCD_IRQHandler+0x58>
 80019b8:	682b      	ldr	r3, [r5, #0]
 80019ba:	f04f 6280 	mov.w	r2, #67108864	@ 0x4000000
 80019be:	615a      	str	r2, [r3, #20]
 80019c0:	6828      	ldr	r0, [r5, #0]
 80019c2:	f002 faa2 	bl	8003f0a <USB_ReadInterrupts>
 80019c6:	0782      	lsls	r2, r0, #30
 80019c8:	d502      	bpl.n	80019d0 <HAL_HCD_IRQHandler+0x68>
 80019ca:	682b      	ldr	r3, [r5, #0]
 80019cc:	2202      	movs	r2, #2
 80019ce:	615a      	str	r2, [r3, #20]
 80019d0:	6828      	ldr	r0, [r5, #0]
 80019d2:	f002 fa9a 	bl	8003f0a <USB_ReadInterrupts>
 80019d6:	0083      	lsls	r3, r0, #2
 80019d8:	d518      	bpl.n	8001a0c <HAL_HCD_IRQHandler+0xa4>
 80019da:	682b      	ldr	r3, [r5, #0]
 80019dc:	f04f 5200 	mov.w	r2, #536870912	@ 0x20000000
 80019e0:	615a      	str	r2, [r3, #20]
 80019e2:	f8d4 3440 	ldr.w	r3, [r4, #1088]	@ 0x440
 80019e6:	07df      	lsls	r7, r3, #31
 80019e8:	d410      	bmi.n	8001a0c <HAL_HCD_IRQHandler+0xa4>
 80019ea:	2110      	movs	r1, #16
 80019ec:	4620      	mov	r0, r4
 80019ee:	f002 fa15 	bl	8003e1c <USB_FlushTxFifo>
 80019f2:	4620      	mov	r0, r4
 80019f4:	f002 fa35 	bl	8003e62 <USB_FlushRxFifo>
 80019f8:	7a6b      	ldrb	r3, [r5, #9]
 80019fa:	2b02      	cmp	r3, #2
 80019fc:	d103      	bne.n	8001a06 <HAL_HCD_IRQHandler+0x9e>
 80019fe:	2101      	movs	r1, #1
 8001a00:	6828      	ldr	r0, [r5, #0]
 8001a02:	f002 fafb 	bl	8003ffc <USB_InitFSLSPClkSel>
 8001a06:	4628      	mov	r0, r5
 8001a08:	f004 fe3e 	bl	8006688 <HAL_HCD_Disconnect_Callback>
 8001a0c:	6828      	ldr	r0, [r5, #0]
 8001a0e:	f002 fa7c 	bl	8003f0a <USB_ReadInterrupts>
 8001a12:	01c6      	lsls	r6, r0, #7
 8001a14:	d53d      	bpl.n	8001a92 <HAL_HCD_IRQHandler+0x12a>
 8001a16:	682e      	ldr	r6, [r5, #0]
 8001a18:	f8d6 3440 	ldr.w	r3, [r6, #1088]	@ 0x440
 8001a1c:	9302      	str	r3, [sp, #8]
 8001a1e:	f8d6 3440 	ldr.w	r3, [r6, #1088]	@ 0x440
 8001a22:	9303      	str	r3, [sp, #12]
 8001a24:	9b03      	ldr	r3, [sp, #12]
 8001a26:	f023 032e 	bic.w	r3, r3, #46	@ 0x2e
 8001a2a:	9303      	str	r3, [sp, #12]
 8001a2c:	9b02      	ldr	r3, [sp, #8]
 8001a2e:	0798      	lsls	r0, r3, #30
 8001a30:	d509      	bpl.n	8001a46 <HAL_HCD_IRQHandler+0xde>
 8001a32:	9b02      	ldr	r3, [sp, #8]
 8001a34:	07d9      	lsls	r1, r3, #31
 8001a36:	d502      	bpl.n	8001a3e <HAL_HCD_IRQHandler+0xd6>
 8001a38:	4628      	mov	r0, r5
 8001a3a:	f004 fe21 	bl	8006680 <HAL_HCD_Connect_Callback>
 8001a3e:	9b03      	ldr	r3, [sp, #12]
 8001a40:	f043 0302 	orr.w	r3, r3, #2
 8001a44:	9303      	str	r3, [sp, #12]
 8001a46:	9b02      	ldr	r3, [sp, #8]
 8001a48:	071a      	lsls	r2, r3, #28
 8001a4a:	d518      	bpl.n	8001a7e <HAL_HCD_IRQHandler+0x116>
 8001a4c:	9b03      	ldr	r3, [sp, #12]
 8001a4e:	f043 0308 	orr.w	r3, r3, #8
 8001a52:	9303      	str	r3, [sp, #12]
 8001a54:	9b02      	ldr	r3, [sp, #8]
 8001a56:	075b      	lsls	r3, r3, #29
 8001a58:	f140 8090 	bpl.w	8001b7c <HAL_HCD_IRQHandler+0x214>
 8001a5c:	7a69      	ldrb	r1, [r5, #9]
 8001a5e:	2902      	cmp	r1, #2
 8001a60:	f040 8084 	bne.w	8001b6c <HAL_HCD_IRQHandler+0x204>
 8001a64:	9b02      	ldr	r3, [sp, #8]
 8001a66:	6828      	ldr	r0, [r5, #0]
 8001a68:	f403 23c0 	and.w	r3, r3, #393216	@ 0x60000
 8001a6c:	f5b3 2f80 	cmp.w	r3, #262144	@ 0x40000
 8001a70:	bf18      	it	ne
 8001a72:	2101      	movne	r1, #1
 8001a74:	f002 fac2 	bl	8003ffc <USB_InitFSLSPClkSel>
 8001a78:	4628      	mov	r0, r5
 8001a7a:	f004 fe0a 	bl	8006692 <HAL_HCD_PortEnabled_Callback>
 8001a7e:	9b02      	ldr	r3, [sp, #8]
 8001a80:	069f      	lsls	r7, r3, #26
 8001a82:	d503      	bpl.n	8001a8c <HAL_HCD_IRQHandler+0x124>
 8001a84:	9b03      	ldr	r3, [sp, #12]
 8001a86:	f043 0320 	orr.w	r3, r3, #32
 8001a8a:	9303      	str	r3, [sp, #12]
 8001a8c:	9b03      	ldr	r3, [sp, #12]
 8001a8e:	f8c6 3440 	str.w	r3, [r6, #1088]	@ 0x440
 8001a92:	6828      	ldr	r0, [r5, #0]
 8001a94:	f002 fa39 	bl	8003f0a <USB_ReadInterrupts>
 8001a98:	0700      	lsls	r0, r0, #28
 8001a9a:	d505      	bpl.n	8001aa8 <HAL_HCD_IRQHandler+0x140>
 8001a9c:	4628      	mov	r0, r5
 8001a9e:	f004 fdeb 	bl	8006678 <HAL_HCD_SOF_Callback>
 8001aa2:	682b      	ldr	r3, [r5, #0]
 8001aa4:	2208      	movs	r2, #8
 8001aa6:	615a      	str	r2, [r3, #20]
 8001aa8:	6828      	ldr	r0, [r5, #0]
 8001aaa:	f002 fa2e 	bl	8003f0a <USB_ReadInterrupts>
 8001aae:	0181      	lsls	r1, r0, #6
 8001ab0:	d511      	bpl.n	8001ad6 <HAL_HCD_IRQHandler+0x16e>
 8001ab2:	46aa      	mov	sl, r5
 8001ab4:	f504 68a0 	add.w	r8, r4, #1280	@ 0x500
 8001ab8:	f04f 0900 	mov.w	r9, #0
 8001abc:	f04f 0b07 	mov.w	fp, #7
 8001ac0:	6828      	ldr	r0, [r5, #0]
 8001ac2:	f002 fb91 	bl	80041e8 <USB_HC_ReadInterrupt>
 8001ac6:	9000      	str	r0, [sp, #0]
 8001ac8:	796a      	ldrb	r2, [r5, #5]
 8001aca:	682c      	ldr	r4, [r5, #0]
 8001acc:	454a      	cmp	r2, r9
 8001ace:	d859      	bhi.n	8001b84 <HAL_HCD_IRQHandler+0x21c>
 8001ad0:	f04f 7300 	mov.w	r3, #33554432	@ 0x2000000
 8001ad4:	6163      	str	r3, [r4, #20]
 8001ad6:	6828      	ldr	r0, [r5, #0]
 8001ad8:	f002 fa17 	bl	8003f0a <USB_ReadInterrupts>
 8001adc:	06c3      	lsls	r3, r0, #27
 8001ade:	d542      	bpl.n	8001b66 <HAL_HCD_IRQHandler+0x1fe>
 8001ae0:	682e      	ldr	r6, [r5, #0]
 8001ae2:	69b3      	ldr	r3, [r6, #24]
 8001ae4:	f023 0310 	bic.w	r3, r3, #16
 8001ae8:	61b3      	str	r3, [r6, #24]
 8001aea:	6a37      	ldr	r7, [r6, #32]
 8001aec:	f3c7 4343 	ubfx	r3, r7, #17, #4
 8001af0:	2b02      	cmp	r3, #2
 8001af2:	d133      	bne.n	8001b5c <HAL_HCD_IRQHandler+0x1f4>
 8001af4:	f3c7 180a 	ubfx	r8, r7, #4, #11
 8001af8:	f1b8 0f00 	cmp.w	r8, #0
 8001afc:	d02e      	beq.n	8001b5c <HAL_HCD_IRQHandler+0x1f4>
 8001afe:	f007 070f 	and.w	r7, r7, #15
 8001b02:	243c      	movs	r4, #60	@ 0x3c
 8001b04:	fb04 5407 	mla	r4, r4, r7, r5
 8001b08:	6ae1      	ldr	r1, [r4, #44]	@ 0x2c
 8001b0a:	b339      	cbz	r1, 8001b5c <HAL_HCD_IRQHandler+0x1f4>
 8001b0c:	6ba3      	ldr	r3, [r4, #56]	@ 0x38
 8001b0e:	6b62      	ldr	r2, [r4, #52]	@ 0x34
 8001b10:	4443      	add	r3, r8
 8001b12:	4293      	cmp	r3, r2
 8001b14:	f200 837a 	bhi.w	800220c <HAL_HCD_IRQHandler+0x8a4>
 8001b18:	4642      	mov	r2, r8
 8001b1a:	4630      	mov	r0, r6
 8001b1c:	f002 f9d5 	bl	8003eca <USB_ReadPacket>
 8001b20:	6ae3      	ldr	r3, [r4, #44]	@ 0x2c
 8001b22:	f506 66a0 	add.w	r6, r6, #1280	@ 0x500
 8001b26:	8d21      	ldrh	r1, [r4, #40]	@ 0x28
 8001b28:	4443      	add	r3, r8
 8001b2a:	017a      	lsls	r2, r7, #5
 8001b2c:	4588      	cmp	r8, r1
 8001b2e:	eb06 1747 	add.w	r7, r6, r7, lsl #5
 8001b32:	62e3      	str	r3, [r4, #44]	@ 0x2c
 8001b34:	6ba3      	ldr	r3, [r4, #56]	@ 0x38
 8001b36:	4443      	add	r3, r8
 8001b38:	63a3      	str	r3, [r4, #56]	@ 0x38
 8001b3a:	693b      	ldr	r3, [r7, #16]
 8001b3c:	d10e      	bne.n	8001b5c <HAL_HCD_IRQHandler+0x1f4>
 8001b3e:	f3c3 43c9 	ubfx	r3, r3, #19, #10
 8001b42:	b15b      	cbz	r3, 8001b5c <HAL_HCD_IRQHandler+0x1f4>
 8001b44:	58b3      	ldr	r3, [r6, r2]
 8001b46:	f023 4380 	bic.w	r3, r3, #1073741824	@ 0x40000000
 8001b4a:	f043 4300 	orr.w	r3, r3, #2147483648	@ 0x80000000
 8001b4e:	50b3      	str	r3, [r6, r2]
 8001b50:	f894 303c 	ldrb.w	r3, [r4, #60]	@ 0x3c
 8001b54:	f083 0301 	eor.w	r3, r3, #1
 8001b58:	f884 303c 	strb.w	r3, [r4, #60]	@ 0x3c
 8001b5c:	682a      	ldr	r2, [r5, #0]
 8001b5e:	6993      	ldr	r3, [r2, #24]
 8001b60:	f043 0310 	orr.w	r3, r3, #16
 8001b64:	6193      	str	r3, [r2, #24]
 8001b66:	b005      	add	sp, #20
 8001b68:	e8bd 8ff0 	ldmia.w	sp!, {r4, r5, r6, r7, r8, r9, sl, fp, pc}
 8001b6c:	79eb      	ldrb	r3, [r5, #7]
 8001b6e:	2b01      	cmp	r3, #1
 8001b70:	d182      	bne.n	8001a78 <HAL_HCD_IRQHandler+0x110>
 8001b72:	f64e 2260 	movw	r2, #60000	@ 0xea60
 8001b76:	f8c6 2404 	str.w	r2, [r6, #1028]	@ 0x404
 8001b7a:	e77d      	b.n	8001a78 <HAL_HCD_IRQHandler+0x110>
 8001b7c:	4628      	mov	r0, r5
 8001b7e:	f004 fd8c 	bl	800669a <HAL_HCD_PortDisabled_Callback>
 8001b82:	e77c      	b.n	8001a7e <HAL_HCD_IRQHandler+0x116>
 8001b84:	f009 020f 	and.w	r2, r9, #15
 8001b88:	9b00      	ldr	r3, [sp, #0]
 8001b8a:	fa23 f202 	lsr.w	r2, r3, r2
 8001b8e:	07d2      	lsls	r2, r2, #31
 8001b90:	d52a      	bpl.n	8001be8 <HAL_HCD_IRQHandler+0x280>
 8001b92:	f8d8 2000 	ldr.w	r2, [r8]
 8001b96:	fa5f f689 	uxtb.w	r6, r9
 8001b9a:	ea4f 1749 	mov.w	r7, r9, lsl #5
 8001b9e:	4620      	mov	r0, r4
 8001ba0:	0413      	lsls	r3, r2, #16
 8001ba2:	4631      	mov	r1, r6
 8001ba4:	f140 81ba 	bpl.w	8001f1c <HAL_HCD_IRQHandler+0x5b4>
 8001ba8:	f002 f9b3 	bl	8003f12 <USB_ReadChInterrupts>
 8001bac:	0740      	lsls	r0, r0, #29
 8001bae:	d522      	bpl.n	8001bf6 <HAL_HCD_IRQHandler+0x28e>
 8001bb0:	f504 62a0 	add.w	r2, r4, #1280	@ 0x500
 8001bb4:	2304      	movs	r3, #4
 8001bb6:	443a      	add	r2, r7
 8001bb8:	6093      	str	r3, [r2, #8]
 8001bba:	f88a b04d 	strb.w	fp, [sl, #77]	@ 0x4d
 8001bbe:	4631      	mov	r1, r6
 8001bc0:	6828      	ldr	r0, [r5, #0]
 8001bc2:	f002 fb16 	bl	80041f2 <USB_HC_Halt>
 8001bc6:	4631      	mov	r1, r6
 8001bc8:	6828      	ldr	r0, [r5, #0]
 8001bca:	f002 f9a2 	bl	8003f12 <USB_ReadChInterrupts>
 8001bce:	f410 7200 	ands.w	r2, r0, #512	@ 0x200
 8001bd2:	d048      	beq.n	8001c66 <HAL_HCD_IRQHandler+0x2fe>
 8001bd4:	f504 64a0 	add.w	r4, r4, #1280	@ 0x500
 8001bd8:	4631      	mov	r1, r6
 8001bda:	6828      	ldr	r0, [r5, #0]
 8001bdc:	f002 fb09 	bl	80041f2 <USB_HC_Halt>
 8001be0:	443c      	add	r4, r7
 8001be2:	f44f 7300 	mov.w	r3, #512	@ 0x200
 8001be6:	60a3      	str	r3, [r4, #8]
 8001be8:	f109 0901 	add.w	r9, r9, #1
 8001bec:	f10a 0a3c 	add.w	sl, sl, #60	@ 0x3c
 8001bf0:	f108 0820 	add.w	r8, r8, #32
 8001bf4:	e768      	b.n	8001ac8 <HAL_HCD_IRQHandler+0x160>
 8001bf6:	4631      	mov	r1, r6
 8001bf8:	6828      	ldr	r0, [r5, #0]
 8001bfa:	f002 f98a 	bl	8003f12 <USB_ReadChInterrupts>
 8001bfe:	05c1      	lsls	r1, r0, #23
 8001c00:	d509      	bpl.n	8001c16 <HAL_HCD_IRQHandler+0x2ae>
 8001c02:	f504 62a0 	add.w	r2, r4, #1280	@ 0x500
 8001c06:	f44f 7180 	mov.w	r1, #256	@ 0x100
 8001c0a:	443a      	add	r2, r7
 8001c0c:	6091      	str	r1, [r2, #8]
 8001c0e:	2208      	movs	r2, #8
 8001c10:	f88a 204d 	strb.w	r2, [sl, #77]	@ 0x4d
 8001c14:	e7d3      	b.n	8001bbe <HAL_HCD_IRQHandler+0x256>
 8001c16:	4631      	mov	r1, r6
 8001c18:	6828      	ldr	r0, [r5, #0]
 8001c1a:	f002 f97a 	bl	8003f12 <USB_ReadChInterrupts>
 8001c1e:	0702      	lsls	r2, r0, #28
 8001c20:	d506      	bpl.n	8001c30 <HAL_HCD_IRQHandler+0x2c8>
 8001c22:	f504 62a0 	add.w	r2, r4, #1280	@ 0x500
 8001c26:	2108      	movs	r1, #8
 8001c28:	443a      	add	r2, r7
 8001c2a:	6091      	str	r1, [r2, #8]
 8001c2c:	2206      	movs	r2, #6
 8001c2e:	e7ef      	b.n	8001c10 <HAL_HCD_IRQHandler+0x2a8>
 8001c30:	4631      	mov	r1, r6
 8001c32:	6828      	ldr	r0, [r5, #0]
 8001c34:	f002 f96d 	bl	8003f12 <USB_ReadChInterrupts>
 8001c38:	0543      	lsls	r3, r0, #21
 8001c3a:	d507      	bpl.n	8001c4c <HAL_HCD_IRQHandler+0x2e4>
 8001c3c:	f504 62a0 	add.w	r2, r4, #1280	@ 0x500
 8001c40:	f44f 6180 	mov.w	r1, #1024	@ 0x400
 8001c44:	443a      	add	r2, r7
 8001c46:	6091      	str	r1, [r2, #8]
 8001c48:	2209      	movs	r2, #9
 8001c4a:	e7e1      	b.n	8001c10 <HAL_HCD_IRQHandler+0x2a8>
 8001c4c:	4631      	mov	r1, r6
 8001c4e:	6828      	ldr	r0, [r5, #0]
 8001c50:	f002 f95f 	bl	8003f12 <USB_ReadChInterrupts>
 8001c54:	0600      	lsls	r0, r0, #24
 8001c56:	d5b6      	bpl.n	8001bc6 <HAL_HCD_IRQHandler+0x25e>
 8001c58:	f504 62a0 	add.w	r2, r4, #1280	@ 0x500
 8001c5c:	2180      	movs	r1, #128	@ 0x80
 8001c5e:	443a      	add	r2, r7
 8001c60:	6091      	str	r1, [r2, #8]
 8001c62:	2207      	movs	r2, #7
 8001c64:	e7d4      	b.n	8001c10 <HAL_HCD_IRQHandler+0x2a8>
 8001c66:	4631      	mov	r1, r6
 8001c68:	6828      	ldr	r0, [r5, #0]
 8001c6a:	9201      	str	r2, [sp, #4]
 8001c6c:	f002 f951 	bl	8003f12 <USB_ReadChInterrupts>
 8001c70:	07c1      	lsls	r1, r0, #31
 8001c72:	d54c      	bpl.n	8001d0e <HAL_HCD_IRQHandler+0x3a6>
 8001c74:	f504 61a0 	add.w	r1, r4, #1280	@ 0x500
 8001c78:	2020      	movs	r0, #32
 8001c7a:	9a01      	ldr	r2, [sp, #4]
 8001c7c:	19cc      	adds	r4, r1, r7
 8001c7e:	60a0      	str	r0, [r4, #8]
 8001c80:	f89a 001b 	ldrb.w	r0, [sl, #27]
 8001c84:	2801      	cmp	r0, #1
 8001c86:	d105      	bne.n	8001c94 <HAL_HCD_IRQHandler+0x32c>
 8001c88:	f88a 201b 	strb.w	r2, [sl, #27]
 8001c8c:	6862      	ldr	r2, [r4, #4]
 8001c8e:	f422 3280 	bic.w	r2, r2, #65536	@ 0x10000
 8001c92:	6062      	str	r2, [r4, #4]
 8001c94:	79aa      	ldrb	r2, [r5, #6]
 8001c96:	b13a      	cbz	r2, 8001ca8 <HAL_HCD_IRQHandler+0x340>
 8001c98:	6920      	ldr	r0, [r4, #16]
 8001c9a:	f8da 2030 	ldr.w	r2, [sl, #48]	@ 0x30
 8001c9e:	f3c0 0012 	ubfx	r0, r0, #0, #19
 8001ca2:	1a12      	subs	r2, r2, r0
 8001ca4:	f8ca 2038 	str.w	r2, [sl, #56]	@ 0x38
 8001ca8:	2201      	movs	r2, #1
 8001caa:	2000      	movs	r0, #0
 8001cac:	f88a 204d 	strb.w	r2, [sl, #77]	@ 0x4d
 8001cb0:	f8ca 0044 	str.w	r0, [sl, #68]	@ 0x44
 8001cb4:	60a2      	str	r2, [r4, #8]
 8001cb6:	f89a 2026 	ldrb.w	r2, [sl, #38]	@ 0x26
 8001cba:	f012 02fd 	ands.w	r2, r2, #253	@ 0xfd
 8001cbe:	d119      	bne.n	8001cf4 <HAL_HCD_IRQHandler+0x38c>
 8001cc0:	4631      	mov	r1, r6
 8001cc2:	6828      	ldr	r0, [r5, #0]
 8001cc4:	f002 fa95 	bl	80041f2 <USB_HC_Halt>
 8001cc8:	2210      	movs	r2, #16
 8001cca:	60a2      	str	r2, [r4, #8]
 8001ccc:	79aa      	ldrb	r2, [r5, #6]
 8001cce:	2a01      	cmp	r2, #1
 8001cd0:	d109      	bne.n	8001ce6 <HAL_HCD_IRQHandler+0x37e>
 8001cd2:	f8da 2038 	ldr.w	r2, [sl, #56]	@ 0x38
 8001cd6:	f8ba 1028 	ldrh.w	r1, [sl, #40]	@ 0x28
 8001cda:	3a01      	subs	r2, #1
 8001cdc:	440a      	add	r2, r1
 8001cde:	fbb2 f2f1 	udiv	r2, r2, r1
 8001ce2:	07d2      	lsls	r2, r2, #31
 8001ce4:	d580      	bpl.n	8001be8 <HAL_HCD_IRQHandler+0x280>
 8001ce6:	f89a 203c 	ldrb.w	r2, [sl, #60]	@ 0x3c
 8001cea:	f082 0201 	eor.w	r2, r2, #1
 8001cee:	f88a 203c 	strb.w	r2, [sl, #60]	@ 0x3c
 8001cf2:	e779      	b.n	8001be8 <HAL_HCD_IRQHandler+0x280>
 8001cf4:	2a01      	cmp	r2, #1
 8001cf6:	d1e9      	bne.n	8001ccc <HAL_HCD_IRQHandler+0x364>
 8001cf8:	59c8      	ldr	r0, [r1, r7]
 8001cfa:	f040 5000 	orr.w	r0, r0, #536870912	@ 0x20000000
 8001cfe:	51c8      	str	r0, [r1, r7]
 8001d00:	4631      	mov	r1, r6
 8001d02:	4628      	mov	r0, r5
 8001d04:	f88a 204c 	strb.w	r2, [sl, #76]	@ 0x4c
 8001d08:	f004 fcc2 	bl	8006690 <HAL_HCD_HC_NotifyURBChange_Callback>
 8001d0c:	e7de      	b.n	8001ccc <HAL_HCD_IRQHandler+0x364>
 8001d0e:	4631      	mov	r1, r6
 8001d10:	6828      	ldr	r0, [r5, #0]
 8001d12:	f002 f8fe 	bl	8003f12 <USB_ReadChInterrupts>
 8001d16:	0683      	lsls	r3, r0, #26
 8001d18:	d513      	bpl.n	8001d42 <HAL_HCD_IRQHandler+0x3da>
 8001d1a:	f504 64a0 	add.w	r4, r4, #1280	@ 0x500
 8001d1e:	2220      	movs	r2, #32
 8001d20:	6828      	ldr	r0, [r5, #0]
 8001d22:	443c      	add	r4, r7
 8001d24:	60a2      	str	r2, [r4, #8]
 8001d26:	f89a 201a 	ldrb.w	r2, [sl, #26]
 8001d2a:	2a01      	cmp	r2, #1
 8001d2c:	f47f af5c 	bne.w	8001be8 <HAL_HCD_IRQHandler+0x280>
 8001d30:	f88a 201b 	strb.w	r2, [sl, #27]
 8001d34:	4631      	mov	r1, r6
 8001d36:	2203      	movs	r2, #3
 8001d38:	f88a 204d 	strb.w	r2, [sl, #77]	@ 0x4d
 8001d3c:	f002 fa59 	bl	80041f2 <USB_HC_Halt>
 8001d40:	e752      	b.n	8001be8 <HAL_HCD_IRQHandler+0x280>
 8001d42:	4631      	mov	r1, r6
 8001d44:	6828      	ldr	r0, [r5, #0]
 8001d46:	f002 f8e4 	bl	8003f12 <USB_ReadChInterrupts>
 8001d4a:	0780      	lsls	r0, r0, #30
 8001d4c:	f140 8097 	bpl.w	8001e7e <HAL_HCD_IRQHandler+0x516>
 8001d50:	f504 64a0 	add.w	r4, r4, #1280	@ 0x500
 8001d54:	2202      	movs	r2, #2
 8001d56:	19e1      	adds	r1, r4, r7
 8001d58:	608a      	str	r2, [r1, #8]
 8001d5a:	f89a 004d 	ldrb.w	r0, [sl, #77]	@ 0x4d
 8001d5e:	2801      	cmp	r0, #1
 8001d60:	d10a      	bne.n	8001d78 <HAL_HCD_IRQHandler+0x410>
 8001d62:	f88a 204d 	strb.w	r2, [sl, #77]	@ 0x4d
 8001d66:	f88a 004c 	strb.w	r0, [sl, #76]	@ 0x4c
 8001d6a:	f89a 204c 	ldrb.w	r2, [sl, #76]	@ 0x4c
 8001d6e:	4631      	mov	r1, r6
 8001d70:	4628      	mov	r0, r5
 8001d72:	f004 fc8d 	bl	8006690 <HAL_HCD_HC_NotifyURBChange_Callback>
 8001d76:	e737      	b.n	8001be8 <HAL_HCD_IRQHandler+0x280>
 8001d78:	3802      	subs	r0, #2
 8001d7a:	2807      	cmp	r0, #7
 8001d7c:	d8f5      	bhi.n	8001d6a <HAL_HCD_IRQHandler+0x402>
 8001d7e:	f20f 0c08 	addw	ip, pc, #8
 8001d82:	f85c f020 	ldr.w	pc, [ip, r0, lsl #2]
 8001d86:	bf00      	nop
 8001d88:	08001be9 	.word	0x08001be9
 8001d8c:	08001e33 	.word	0x08001e33
 8001d90:	08001e65 	.word	0x08001e65
 8001d94:	08001ddd 	.word	0x08001ddd
 8001d98:	080021e9 	.word	0x080021e9
 8001d9c:	08001da9 	.word	0x08001da9
 8001da0:	08001e6f 	.word	0x08001e6f
 8001da4:	08001da9 	.word	0x08001da9
 8001da8:	f8da 0044 	ldr.w	r0, [sl, #68]	@ 0x44
 8001dac:	f88a 204d 	strb.w	r2, [sl, #77]	@ 0x4d
 8001db0:	3001      	adds	r0, #1
 8001db2:	2802      	cmp	r0, #2
 8001db4:	f8ca 0044 	str.w	r0, [sl, #68]	@ 0x44
 8001db8:	d956      	bls.n	8001e68 <HAL_HCD_IRQHandler+0x500>
 8001dba:	f89a 001a 	ldrb.w	r0, [sl, #26]
 8001dbe:	2200      	movs	r2, #0
 8001dc0:	2801      	cmp	r0, #1
 8001dc2:	f8ca 2044 	str.w	r2, [sl, #68]	@ 0x44
 8001dc6:	d107      	bne.n	8001dd8 <HAL_HCD_IRQHandler+0x470>
 8001dc8:	f88a 201b 	strb.w	r2, [sl, #27]
 8001dcc:	f88a 201c 	strb.w	r2, [sl, #28]
 8001dd0:	684a      	ldr	r2, [r1, #4]
 8001dd2:	f422 3280 	bic.w	r2, r2, #65536	@ 0x10000
 8001dd6:	604a      	str	r2, [r1, #4]
 8001dd8:	2204      	movs	r2, #4
 8001dda:	e1ee      	b.n	80021ba <HAL_HCD_IRQHandler+0x852>
 8001ddc:	f89a c01b 	ldrb.w	ip, [sl, #27]
 8001de0:	f88a 204d 	strb.w	r2, [sl, #77]	@ 0x4d
 8001de4:	f1bc 0f01 	cmp.w	ip, #1
 8001de8:	d1bf      	bne.n	8001d6a <HAL_HCD_IRQHandler+0x402>
 8001dea:	f89a 0026 	ldrb.w	r0, [sl, #38]	@ 0x26
 8001dee:	2803      	cmp	r0, #3
 8001df0:	d113      	bne.n	8001e1a <HAL_HCD_IRQHandler+0x4b2>
 8001df2:	f8da 0048 	ldr.w	r0, [sl, #72]	@ 0x48
 8001df6:	3001      	adds	r0, #1
 8001df8:	2802      	cmp	r0, #2
 8001dfa:	f8ca 0048 	str.w	r0, [sl, #72]	@ 0x48
 8001dfe:	f240 81dc 	bls.w	80021ba <HAL_HCD_IRQHandler+0x852>
 8001e02:	2200      	movs	r2, #0
 8001e04:	f8ca 2048 	str.w	r2, [sl, #72]	@ 0x48
 8001e08:	f88a 201b 	strb.w	r2, [sl, #27]
 8001e0c:	f8da 2044 	ldr.w	r2, [sl, #68]	@ 0x44
 8001e10:	2a02      	cmp	r2, #2
 8001e12:	bf98      	it	ls
 8001e14:	f88a c01c 	strbls.w	ip, [sl, #28]
 8001e18:	e7da      	b.n	8001dd0 <HAL_HCD_IRQHandler+0x468>
 8001e1a:	f010 0ffd 	tst.w	r0, #253	@ 0xfd
 8001e1e:	f88a 204c 	strb.w	r2, [sl, #76]	@ 0x4c
 8001e22:	d1a2      	bne.n	8001d6a <HAL_HCD_IRQHandler+0x402>
 8001e24:	59e2      	ldr	r2, [r4, r7]
 8001e26:	f022 4280 	bic.w	r2, r2, #1073741824	@ 0x40000000
 8001e2a:	f042 4200 	orr.w	r2, r2, #2147483648	@ 0x80000000
 8001e2e:	51e2      	str	r2, [r4, r7]
 8001e30:	e79b      	b.n	8001d6a <HAL_HCD_IRQHandler+0x402>
 8001e32:	f89a 001b 	ldrb.w	r0, [sl, #27]
 8001e36:	f88a 204d 	strb.w	r2, [sl, #77]	@ 0x4d
 8001e3a:	2801      	cmp	r0, #1
 8001e3c:	d195      	bne.n	8001d6a <HAL_HCD_IRQHandler+0x402>
 8001e3e:	f88a 204c 	strb.w	r2, [sl, #76]	@ 0x4c
 8001e42:	684a      	ldr	r2, [r1, #4]
 8001e44:	f442 3280 	orr.w	r2, r2, #65536	@ 0x10000
 8001e48:	604a      	str	r2, [r1, #4]
 8001e4a:	68ca      	ldr	r2, [r1, #12]
 8001e4c:	f042 0240 	orr.w	r2, r2, #64	@ 0x40
 8001e50:	60ca      	str	r2, [r1, #12]
 8001e52:	68ca      	ldr	r2, [r1, #12]
 8001e54:	f022 0220 	bic.w	r2, r2, #32
 8001e58:	60ca      	str	r2, [r1, #12]
 8001e5a:	f89a 2026 	ldrb.w	r2, [sl, #38]	@ 0x26
 8001e5e:	f012 0ffd 	tst.w	r2, #253	@ 0xfd
 8001e62:	e7de      	b.n	8001e22 <HAL_HCD_IRQHandler+0x4ba>
 8001e64:	f88a 204d 	strb.w	r2, [sl, #77]	@ 0x4d
 8001e68:	f88a 204c 	strb.w	r2, [sl, #76]	@ 0x4c
 8001e6c:	e7f5      	b.n	8001e5a <HAL_HCD_IRQHandler+0x4f2>
 8001e6e:	f88a 204d 	strb.w	r2, [sl, #77]	@ 0x4d
 8001e72:	f8da 2044 	ldr.w	r2, [sl, #68]	@ 0x44
 8001e76:	3201      	adds	r2, #1
 8001e78:	f8ca 2044 	str.w	r2, [sl, #68]	@ 0x44
 8001e7c:	e7ac      	b.n	8001dd8 <HAL_HCD_IRQHandler+0x470>
 8001e7e:	4631      	mov	r1, r6
 8001e80:	6828      	ldr	r0, [r5, #0]
 8001e82:	f002 f846 	bl	8003f12 <USB_ReadChInterrupts>
 8001e86:	f010 0240 	ands.w	r2, r0, #64	@ 0x40
 8001e8a:	d00f      	beq.n	8001eac <HAL_HCD_IRQHandler+0x544>
 8001e8c:	f504 64a0 	add.w	r4, r4, #1280	@ 0x500
 8001e90:	2240      	movs	r2, #64	@ 0x40
 8001e92:	443c      	add	r4, r7
 8001e94:	60a2      	str	r2, [r4, #8]
 8001e96:	2205      	movs	r2, #5
 8001e98:	f88a 204d 	strb.w	r2, [sl, #77]	@ 0x4d
 8001e9c:	f89a 201a 	ldrb.w	r2, [sl, #26]
 8001ea0:	b90a      	cbnz	r2, 8001ea6 <HAL_HCD_IRQHandler+0x53e>
 8001ea2:	f8ca 2044 	str.w	r2, [sl, #68]	@ 0x44
 8001ea6:	4631      	mov	r1, r6
 8001ea8:	6828      	ldr	r0, [r5, #0]
 8001eaa:	e747      	b.n	8001d3c <HAL_HCD_IRQHandler+0x3d4>
 8001eac:	4631      	mov	r1, r6
 8001eae:	6828      	ldr	r0, [r5, #0]
 8001eb0:	9201      	str	r2, [sp, #4]
 8001eb2:	f002 f82e 	bl	8003f12 <USB_ReadChInterrupts>
 8001eb6:	06c1      	lsls	r1, r0, #27
 8001eb8:	f57f ae96 	bpl.w	8001be8 <HAL_HCD_IRQHandler+0x280>
 8001ebc:	f89a 1026 	ldrb.w	r1, [sl, #38]	@ 0x26
 8001ec0:	f504 64a0 	add.w	r4, r4, #1280	@ 0x500
 8001ec4:	9a01      	ldr	r2, [sp, #4]
 8001ec6:	2903      	cmp	r1, #3
 8001ec8:	d119      	bne.n	8001efe <HAL_HCD_IRQHandler+0x596>
 8001eca:	f8ca 2044 	str.w	r2, [sl, #68]	@ 0x44
 8001ece:	2204      	movs	r2, #4
 8001ed0:	4631      	mov	r1, r6
 8001ed2:	f88a 204d 	strb.w	r2, [sl, #77]	@ 0x4d
 8001ed6:	6828      	ldr	r0, [r5, #0]
 8001ed8:	f002 f98b 	bl	80041f2 <USB_HC_Halt>
 8001edc:	f89a 201b 	ldrb.w	r2, [sl, #27]
 8001ee0:	2a01      	cmp	r2, #1
 8001ee2:	d118      	bne.n	8001f16 <HAL_HCD_IRQHandler+0x5ae>
 8001ee4:	19e2      	adds	r2, r4, r7
 8001ee6:	2100      	movs	r1, #0
 8001ee8:	f88a 101b 	strb.w	r1, [sl, #27]
 8001eec:	6851      	ldr	r1, [r2, #4]
 8001eee:	f421 3180 	bic.w	r1, r1, #65536	@ 0x10000
 8001ef2:	6051      	str	r1, [r2, #4]
 8001ef4:	68d1      	ldr	r1, [r2, #12]
 8001ef6:	f041 0120 	orr.w	r1, r1, #32
 8001efa:	60d1      	str	r1, [r2, #12]
 8001efc:	e00b      	b.n	8001f16 <HAL_HCD_IRQHandler+0x5ae>
 8001efe:	f011 01fd 	ands.w	r1, r1, #253	@ 0xfd
 8001f02:	d1eb      	bne.n	8001edc <HAL_HCD_IRQHandler+0x574>
 8001f04:	f8ca 1044 	str.w	r1, [sl, #68]	@ 0x44
 8001f08:	79aa      	ldrb	r2, [r5, #6]
 8001f0a:	2a00      	cmp	r2, #0
 8001f0c:	d0df      	beq.n	8001ece <HAL_HCD_IRQHandler+0x566>
 8001f0e:	f89a 201b 	ldrb.w	r2, [sl, #27]
 8001f12:	2a01      	cmp	r2, #1
 8001f14:	d0db      	beq.n	8001ece <HAL_HCD_IRQHandler+0x566>
 8001f16:	443c      	add	r4, r7
 8001f18:	2210      	movs	r2, #16
 8001f1a:	e093      	b.n	8002044 <HAL_HCD_IRQHandler+0x6dc>
 8001f1c:	f001 fff9 	bl	8003f12 <USB_ReadChInterrupts>
 8001f20:	f010 0204 	ands.w	r2, r0, #4
 8001f24:	d007      	beq.n	8001f36 <HAL_HCD_IRQHandler+0x5ce>
 8001f26:	f504 64a0 	add.w	r4, r4, #1280	@ 0x500
 8001f2a:	2304      	movs	r3, #4
 8001f2c:	443c      	add	r4, r7
 8001f2e:	60a3      	str	r3, [r4, #8]
 8001f30:	f88a b04d 	strb.w	fp, [sl, #77]	@ 0x4d
 8001f34:	e7b7      	b.n	8001ea6 <HAL_HCD_IRQHandler+0x53e>
 8001f36:	4631      	mov	r1, r6
 8001f38:	6828      	ldr	r0, [r5, #0]
 8001f3a:	9201      	str	r2, [sp, #4]
 8001f3c:	f001 ffe9 	bl	8003f12 <USB_ReadChInterrupts>
 8001f40:	0682      	lsls	r2, r0, #26
 8001f42:	d530      	bpl.n	8001fa6 <HAL_HCD_IRQHandler+0x63e>
 8001f44:	f504 64a0 	add.w	r4, r4, #1280	@ 0x500
 8001f48:	2120      	movs	r1, #32
 8001f4a:	9a01      	ldr	r2, [sp, #4]
 8001f4c:	443c      	add	r4, r7
 8001f4e:	60a1      	str	r1, [r4, #8]
 8001f50:	f89a 1019 	ldrb.w	r1, [sl, #25]
 8001f54:	2901      	cmp	r1, #1
 8001f56:	d10b      	bne.n	8001f70 <HAL_HCD_IRQHandler+0x608>
 8001f58:	6828      	ldr	r0, [r5, #0]
 8001f5a:	4631      	mov	r1, r6
 8001f5c:	f88a 2019 	strb.w	r2, [sl, #25]
 8001f60:	2202      	movs	r2, #2
 8001f62:	f88a 204c 	strb.w	r2, [sl, #76]	@ 0x4c
 8001f66:	2203      	movs	r2, #3
 8001f68:	f88a 204d 	strb.w	r2, [sl, #77]	@ 0x4d
 8001f6c:	f002 f941 	bl	80041f2 <USB_HC_Halt>
 8001f70:	f89a 201a 	ldrb.w	r2, [sl, #26]
 8001f74:	2a01      	cmp	r2, #1
 8001f76:	f47f ae37 	bne.w	8001be8 <HAL_HCD_IRQHandler+0x280>
 8001f7a:	f89a 101b 	ldrb.w	r1, [sl, #27]
 8001f7e:	2900      	cmp	r1, #0
 8001f80:	f47f ae32 	bne.w	8001be8 <HAL_HCD_IRQHandler+0x280>
 8001f84:	f89a 1026 	ldrb.w	r1, [sl, #38]	@ 0x26
 8001f88:	2901      	cmp	r1, #1
 8001f8a:	4631      	mov	r1, r6
 8001f8c:	bf18      	it	ne
 8001f8e:	f88a 201b 	strbne.w	r2, [sl, #27]
 8001f92:	2203      	movs	r2, #3
 8001f94:	f88a 204d 	strb.w	r2, [sl, #77]	@ 0x4d
 8001f98:	6828      	ldr	r0, [r5, #0]
 8001f9a:	f002 f92a 	bl	80041f2 <USB_HC_Halt>
 8001f9e:	2200      	movs	r2, #0
 8001fa0:	f8ca 2044 	str.w	r2, [sl, #68]	@ 0x44
 8001fa4:	e620      	b.n	8001be8 <HAL_HCD_IRQHandler+0x280>
 8001fa6:	4631      	mov	r1, r6
 8001fa8:	6828      	ldr	r0, [r5, #0]
 8001faa:	f001 ffb2 	bl	8003f12 <USB_ReadChInterrupts>
 8001fae:	f410 7200 	ands.w	r2, r0, #512	@ 0x200
 8001fb2:	d006      	beq.n	8001fc2 <HAL_HCD_IRQHandler+0x65a>
 8001fb4:	f504 64a0 	add.w	r4, r4, #1280	@ 0x500
 8001fb8:	f44f 7200 	mov.w	r2, #512	@ 0x200
 8001fbc:	443c      	add	r4, r7
 8001fbe:	60a2      	str	r2, [r4, #8]
 8001fc0:	e771      	b.n	8001ea6 <HAL_HCD_IRQHandler+0x53e>
 8001fc2:	4631      	mov	r1, r6
 8001fc4:	6828      	ldr	r0, [r5, #0]
 8001fc6:	9201      	str	r2, [sp, #4]
 8001fc8:	f001 ffa3 	bl	8003f12 <USB_ReadChInterrupts>
 8001fcc:	07c3      	lsls	r3, r0, #31
 8001fce:	d51f      	bpl.n	8002010 <HAL_HCD_IRQHandler+0x6a8>
 8001fd0:	9a01      	ldr	r2, [sp, #4]
 8001fd2:	f504 64a0 	add.w	r4, r4, #1280	@ 0x500
 8001fd6:	4631      	mov	r1, r6
 8001fd8:	6828      	ldr	r0, [r5, #0]
 8001fda:	f8ca 2044 	str.w	r2, [sl, #68]	@ 0x44
 8001fde:	443c      	add	r4, r7
 8001fe0:	f001 ff97 	bl	8003f12 <USB_ReadChInterrupts>
 8001fe4:	0647      	lsls	r7, r0, #25
 8001fe6:	d504      	bpl.n	8001ff2 <HAL_HCD_IRQHandler+0x68a>
 8001fe8:	2201      	movs	r2, #1
 8001fea:	f88a 2019 	strb.w	r2, [sl, #25]
 8001fee:	2240      	movs	r2, #64	@ 0x40
 8001ff0:	60a2      	str	r2, [r4, #8]
 8001ff2:	f89a 201b 	ldrb.w	r2, [sl, #27]
 8001ff6:	b132      	cbz	r2, 8002006 <HAL_HCD_IRQHandler+0x69e>
 8001ff8:	2200      	movs	r2, #0
 8001ffa:	f88a 201b 	strb.w	r2, [sl, #27]
 8001ffe:	6862      	ldr	r2, [r4, #4]
 8002000:	f422 3280 	bic.w	r2, r2, #65536	@ 0x10000
 8002004:	6062      	str	r2, [r4, #4]
 8002006:	2201      	movs	r2, #1
 8002008:	60a2      	str	r2, [r4, #8]
 800200a:	f88a 204d 	strb.w	r2, [sl, #77]	@ 0x4d
 800200e:	e74a      	b.n	8001ea6 <HAL_HCD_IRQHandler+0x53e>
 8002010:	4631      	mov	r1, r6
 8002012:	6828      	ldr	r0, [r5, #0]
 8002014:	f001 ff7d 	bl	8003f12 <USB_ReadChInterrupts>
 8002018:	0640      	lsls	r0, r0, #25
 800201a:	d515      	bpl.n	8002048 <HAL_HCD_IRQHandler+0x6e0>
 800201c:	2205      	movs	r2, #5
 800201e:	f88a 204d 	strb.w	r2, [sl, #77]	@ 0x4d
 8002022:	f89a 201a 	ldrb.w	r2, [sl, #26]
 8002026:	b912      	cbnz	r2, 800202e <HAL_HCD_IRQHandler+0x6c6>
 8002028:	2201      	movs	r2, #1
 800202a:	f88a 2019 	strb.w	r2, [sl, #25]
 800202e:	2200      	movs	r2, #0
 8002030:	f504 64a0 	add.w	r4, r4, #1280	@ 0x500
 8002034:	4631      	mov	r1, r6
 8002036:	6828      	ldr	r0, [r5, #0]
 8002038:	f8ca 2044 	str.w	r2, [sl, #68]	@ 0x44
 800203c:	443c      	add	r4, r7
 800203e:	f002 f8d8 	bl	80041f2 <USB_HC_Halt>
 8002042:	2240      	movs	r2, #64	@ 0x40
 8002044:	60a2      	str	r2, [r4, #8]
 8002046:	e5cf      	b.n	8001be8 <HAL_HCD_IRQHandler+0x280>
 8002048:	4631      	mov	r1, r6
 800204a:	6828      	ldr	r0, [r5, #0]
 800204c:	f001 ff61 	bl	8003f12 <USB_ReadChInterrupts>
 8002050:	0701      	lsls	r1, r0, #28
 8002052:	d506      	bpl.n	8002062 <HAL_HCD_IRQHandler+0x6fa>
 8002054:	f504 64a0 	add.w	r4, r4, #1280	@ 0x500
 8002058:	2208      	movs	r2, #8
 800205a:	443c      	add	r4, r7
 800205c:	60a2      	str	r2, [r4, #8]
 800205e:	2206      	movs	r2, #6
 8002060:	e7d3      	b.n	800200a <HAL_HCD_IRQHandler+0x6a2>
 8002062:	4631      	mov	r1, r6
 8002064:	6828      	ldr	r0, [r5, #0]
 8002066:	f001 ff54 	bl	8003f12 <USB_ReadChInterrupts>
 800206a:	06c2      	lsls	r2, r0, #27
 800206c:	d515      	bpl.n	800209a <HAL_HCD_IRQHandler+0x732>
 800206e:	2200      	movs	r2, #0
 8002070:	f8ca 2044 	str.w	r2, [sl, #68]	@ 0x44
 8002074:	2204      	movs	r2, #4
 8002076:	f88a 204d 	strb.w	r2, [sl, #77]	@ 0x4d
 800207a:	f89a 2019 	ldrb.w	r2, [sl, #25]
 800207e:	b92a      	cbnz	r2, 800208c <HAL_HCD_IRQHandler+0x724>
 8002080:	f89a 2018 	ldrb.w	r2, [sl, #24]
 8002084:	b912      	cbnz	r2, 800208c <HAL_HCD_IRQHandler+0x724>
 8002086:	2201      	movs	r2, #1
 8002088:	f88a 2019 	strb.w	r2, [sl, #25]
 800208c:	4631      	mov	r1, r6
 800208e:	6828      	ldr	r0, [r5, #0]
 8002090:	f504 64a0 	add.w	r4, r4, #1280	@ 0x500
 8002094:	f002 f8ad 	bl	80041f2 <USB_HC_Halt>
 8002098:	e73d      	b.n	8001f16 <HAL_HCD_IRQHandler+0x5ae>
 800209a:	4631      	mov	r1, r6
 800209c:	6828      	ldr	r0, [r5, #0]
 800209e:	f001 ff38 	bl	8003f12 <USB_ReadChInterrupts>
 80020a2:	0603      	lsls	r3, r0, #24
 80020a4:	d523      	bpl.n	80020ee <HAL_HCD_IRQHandler+0x786>
 80020a6:	79aa      	ldrb	r2, [r5, #6]
 80020a8:	b95a      	cbnz	r2, 80020c2 <HAL_HCD_IRQHandler+0x75a>
 80020aa:	2207      	movs	r2, #7
 80020ac:	4631      	mov	r1, r6
 80020ae:	f88a 204d 	strb.w	r2, [sl, #77]	@ 0x4d
 80020b2:	6828      	ldr	r0, [r5, #0]
 80020b4:	f002 f89d 	bl	80041f2 <USB_HC_Halt>
 80020b8:	f504 64a0 	add.w	r4, r4, #1280	@ 0x500
 80020bc:	2280      	movs	r2, #128	@ 0x80
 80020be:	443c      	add	r4, r7
 80020c0:	e7c0      	b.n	8002044 <HAL_HCD_IRQHandler+0x6dc>
 80020c2:	f8da 2044 	ldr.w	r2, [sl, #68]	@ 0x44
 80020c6:	3201      	adds	r2, #1
 80020c8:	2a02      	cmp	r2, #2
 80020ca:	f8ca 2044 	str.w	r2, [sl, #68]	@ 0x44
 80020ce:	d90a      	bls.n	80020e6 <HAL_HCD_IRQHandler+0x77e>
 80020d0:	2200      	movs	r2, #0
 80020d2:	4631      	mov	r1, r6
 80020d4:	4628      	mov	r0, r5
 80020d6:	f8ca 2044 	str.w	r2, [sl, #68]	@ 0x44
 80020da:	2204      	movs	r2, #4
 80020dc:	f88a 204c 	strb.w	r2, [sl, #76]	@ 0x4c
 80020e0:	f004 fad6 	bl	8006690 <HAL_HCD_HC_NotifyURBChange_Callback>
 80020e4:	e7e8      	b.n	80020b8 <HAL_HCD_IRQHandler+0x750>
 80020e6:	2202      	movs	r2, #2
 80020e8:	f88a 204c 	strb.w	r2, [sl, #76]	@ 0x4c
 80020ec:	e7e4      	b.n	80020b8 <HAL_HCD_IRQHandler+0x750>
 80020ee:	4631      	mov	r1, r6
 80020f0:	6828      	ldr	r0, [r5, #0]
 80020f2:	f001 ff0e 	bl	8003f12 <USB_ReadChInterrupts>
 80020f6:	0540      	lsls	r0, r0, #21
 80020f8:	d50c      	bpl.n	8002114 <HAL_HCD_IRQHandler+0x7ac>
 80020fa:	2209      	movs	r2, #9
 80020fc:	f504 64a0 	add.w	r4, r4, #1280	@ 0x500
 8002100:	4631      	mov	r1, r6
 8002102:	f88a 204d 	strb.w	r2, [sl, #77]	@ 0x4d
 8002106:	443c      	add	r4, r7
 8002108:	6828      	ldr	r0, [r5, #0]
 800210a:	f002 f872 	bl	80041f2 <USB_HC_Halt>
 800210e:	f44f 6280 	mov.w	r2, #1024	@ 0x400
 8002112:	e797      	b.n	8002044 <HAL_HCD_IRQHandler+0x6dc>
 8002114:	4631      	mov	r1, r6
 8002116:	6828      	ldr	r0, [r5, #0]
 8002118:	f001 fefb 	bl	8003f12 <USB_ReadChInterrupts>
 800211c:	0781      	lsls	r1, r0, #30
 800211e:	f57f ad63 	bpl.w	8001be8 <HAL_HCD_IRQHandler+0x280>
 8002122:	f504 64a0 	add.w	r4, r4, #1280	@ 0x500
 8002126:	2202      	movs	r2, #2
 8002128:	19e0      	adds	r0, r4, r7
 800212a:	6082      	str	r2, [r0, #8]
 800212c:	f89a 104d 	ldrb.w	r1, [sl, #77]	@ 0x4d
 8002130:	2901      	cmp	r1, #1
 8002132:	d124      	bne.n	800217e <HAL_HCD_IRQHandler+0x816>
 8002134:	f88a 204d 	strb.w	r2, [sl, #77]	@ 0x4d
 8002138:	f89a 2026 	ldrb.w	r2, [sl, #38]	@ 0x26
 800213c:	f88a 104c 	strb.w	r1, [sl, #76]	@ 0x4c
 8002140:	3a02      	subs	r2, #2
 8002142:	2a01      	cmp	r2, #1
 8002144:	f63f ae11 	bhi.w	8001d6a <HAL_HCD_IRQHandler+0x402>
 8002148:	79aa      	ldrb	r2, [r5, #6]
 800214a:	b932      	cbnz	r2, 800215a <HAL_HCD_IRQHandler+0x7f2>
 800214c:	f89a 203d 	ldrb.w	r2, [sl, #61]	@ 0x3d
 8002150:	f082 0201 	eor.w	r2, r2, #1
 8002154:	f88a 203d 	strb.w	r2, [sl, #61]	@ 0x3d
 8002158:	e607      	b.n	8001d6a <HAL_HCD_IRQHandler+0x402>
 800215a:	2a01      	cmp	r2, #1
 800215c:	f47f ae05 	bne.w	8001d6a <HAL_HCD_IRQHandler+0x402>
 8002160:	f8da 2034 	ldr.w	r2, [sl, #52]	@ 0x34
 8002164:	2a00      	cmp	r2, #0
 8002166:	f43f ae00 	beq.w	8001d6a <HAL_HCD_IRQHandler+0x402>
 800216a:	f8ba 1028 	ldrh.w	r1, [sl, #40]	@ 0x28
 800216e:	3a01      	subs	r2, #1
 8002170:	440a      	add	r2, r1
 8002172:	fbb2 f2f1 	udiv	r2, r2, r1
 8002176:	07d2      	lsls	r2, r2, #31
 8002178:	f57f adf7 	bpl.w	8001d6a <HAL_HCD_IRQHandler+0x402>
 800217c:	e7e6      	b.n	800214c <HAL_HCD_IRQHandler+0x7e4>
 800217e:	3903      	subs	r1, #3
 8002180:	2906      	cmp	r1, #6
 8002182:	f63f ad31 	bhi.w	8001be8 <HAL_HCD_IRQHandler+0x280>
 8002186:	f20f 0c08 	addw	ip, pc, #8
 800218a:	f85c f021 	ldr.w	pc, [ip, r1, lsl #2]
 800218e:	bf00      	nop
 8002190:	080021ad 	.word	0x080021ad
 8002194:	080021c1 	.word	0x080021c1
 8002198:	080021e3 	.word	0x080021e3
 800219c:	080021e9 	.word	0x080021e9
 80021a0:	080021f1 	.word	0x080021f1
 80021a4:	08001be9 	.word	0x08001be9
 80021a8:	080021f1 	.word	0x080021f1
 80021ac:	f89a 101b 	ldrb.w	r1, [sl, #27]
 80021b0:	f88a 204d 	strb.w	r2, [sl, #77]	@ 0x4d
 80021b4:	2901      	cmp	r1, #1
 80021b6:	f47f add8 	bne.w	8001d6a <HAL_HCD_IRQHandler+0x402>
 80021ba:	f88a 204c 	strb.w	r2, [sl, #76]	@ 0x4c
 80021be:	e5d4      	b.n	8001d6a <HAL_HCD_IRQHandler+0x402>
 80021c0:	f88a 204d 	strb.w	r2, [sl, #77]	@ 0x4d
 80021c4:	f88a 204c 	strb.w	r2, [sl, #76]	@ 0x4c
 80021c8:	f89a 201b 	ldrb.w	r2, [sl, #27]
 80021cc:	2a01      	cmp	r2, #1
 80021ce:	f47f adcc 	bne.w	8001d6a <HAL_HCD_IRQHandler+0x402>
 80021d2:	2200      	movs	r2, #0
 80021d4:	f88a 201b 	strb.w	r2, [sl, #27]
 80021d8:	6842      	ldr	r2, [r0, #4]
 80021da:	f422 3280 	bic.w	r2, r2, #65536	@ 0x10000
 80021de:	6042      	str	r2, [r0, #4]
 80021e0:	e5c3      	b.n	8001d6a <HAL_HCD_IRQHandler+0x402>
 80021e2:	f88a 204d 	strb.w	r2, [sl, #77]	@ 0x4d
 80021e6:	e7e8      	b.n	80021ba <HAL_HCD_IRQHandler+0x852>
 80021e8:	f88a 204d 	strb.w	r2, [sl, #77]	@ 0x4d
 80021ec:	2205      	movs	r2, #5
 80021ee:	e7e4      	b.n	80021ba <HAL_HCD_IRQHandler+0x852>
 80021f0:	f8da 1044 	ldr.w	r1, [sl, #68]	@ 0x44
 80021f4:	f88a 204d 	strb.w	r2, [sl, #77]	@ 0x4d
 80021f8:	3101      	adds	r1, #1
 80021fa:	2902      	cmp	r1, #2
 80021fc:	f8ca 1044 	str.w	r1, [sl, #68]	@ 0x44
 8002200:	d901      	bls.n	8002206 <HAL_HCD_IRQHandler+0x89e>
 8002202:	2200      	movs	r2, #0
 8002204:	e638      	b.n	8001e78 <HAL_HCD_IRQHandler+0x510>
 8002206:	f88a 204c 	strb.w	r2, [sl, #76]	@ 0x4c
 800220a:	e60b      	b.n	8001e24 <HAL_HCD_IRQHandler+0x4bc>
 800220c:	2304      	movs	r3, #4
 800220e:	f884 304c 	strb.w	r3, [r4, #76]	@ 0x4c
 8002212:	e4a3      	b.n	8001b5c <HAL_HCD_IRQHandler+0x1f4>

08002214 <HAL_HCD_Start>:
 8002214:	b510      	push	{r4, lr}
 8002216:	f890 33d4 	ldrb.w	r3, [r0, #980]	@ 0x3d4
 800221a:	4604      	mov	r4, r0
 800221c:	2b01      	cmp	r3, #1
 800221e:	d00c      	beq.n	800223a <HAL_HCD_Start+0x26>
 8002220:	2101      	movs	r1, #1
 8002222:	f880 13d4 	strb.w	r1, [r0, #980]	@ 0x3d4
 8002226:	6800      	ldr	r0, [r0, #0]
 8002228:	f001 ff25 	bl	8004076 <USB_DriveVbus>
 800222c:	6820      	ldr	r0, [r4, #0]
 800222e:	f001 fdbb 	bl	8003da8 <USB_EnableGlobalInt>
 8002232:	2000      	movs	r0, #0
 8002234:	f884 03d4 	strb.w	r0, [r4, #980]	@ 0x3d4
 8002238:	bd10      	pop	{r4, pc}
 800223a:	2002      	movs	r0, #2
 800223c:	e7fc      	b.n	8002238 <HAL_HCD_Start+0x24>

0800223e <HAL_HCD_Stop>:
 800223e:	b510      	push	{r4, lr}
 8002240:	f890 33d4 	ldrb.w	r3, [r0, #980]	@ 0x3d4
 8002244:	4604      	mov	r4, r0
 8002246:	2b01      	cmp	r3, #1
 8002248:	d009      	beq.n	800225e <HAL_HCD_Stop+0x20>
 800224a:	2301      	movs	r3, #1
 800224c:	f880 33d4 	strb.w	r3, [r0, #980]	@ 0x3d4
 8002250:	6800      	ldr	r0, [r0, #0]
 8002252:	f002 f97d 	bl	8004550 <USB_StopHost>
 8002256:	2000      	movs	r0, #0
 8002258:	f884 03d4 	strb.w	r0, [r4, #980]	@ 0x3d4
 800225c:	bd10      	pop	{r4, pc}
 800225e:	2002      	movs	r0, #2
 8002260:	e7fc      	b.n	800225c <HAL_HCD_Stop+0x1e>

08002262 <HAL_HCD_ResetPort>:
 8002262:	6800      	ldr	r0, [r0, #0]
 8002264:	f001 bee9 	b.w	800403a <USB_ResetPort>

08002268 <HAL_HCD_HC_GetURBState>:
 8002268:	233c      	movs	r3, #60	@ 0x3c
 800226a:	fb03 0001 	mla	r0, r3, r1, r0
 800226e:	f890 004c 	ldrb.w	r0, [r0, #76]	@ 0x4c
 8002272:	4770      	bx	lr

08002274 <HAL_HCD_HC_GetXferCount>:
 8002274:	233c      	movs	r3, #60	@ 0x3c
 8002276:	fb03 0001 	mla	r0, r3, r1, r0
 800227a:	6b80      	ldr	r0, [r0, #56]	@ 0x38
 800227c:	4770      	bx	lr

0800227e <HAL_HCD_GetCurrentFrame>:
 800227e:	6800      	ldr	r0, [r0, #0]
 8002280:	f001 bf24 	b.w	80040cc <USB_GetCurrentFrame>

08002284 <HAL_HCD_GetCurrentSpeed>:
 8002284:	6800      	ldr	r0, [r0, #0]
 8002286:	f001 bf16 	b.w	80040b6 <USB_GetHostSpeed>

0800228a <HAL_HCD_HC_ClearHubInfo>:
 800228a:	233c      	movs	r3, #60	@ 0x3c
 800228c:	fb03 0101 	mla	r1, r3, r1, r0
 8002290:	2000      	movs	r0, #0
 8002292:	8348      	strh	r0, [r1, #26]
 8002294:	8488      	strh	r0, [r1, #36]	@ 0x24
 8002296:	4770      	bx	lr

08002298 <HAL_HCD_HC_Init>:
 8002298:	e92d 4ff0 	stmdb	sp!, {r4, r5, r6, r7, r8, r9, sl, fp, lr}
 800229c:	4699      	mov	r9, r3
 800229e:	f890 33d4 	ldrb.w	r3, [r0, #980]	@ 0x3d4
 80022a2:	b085      	sub	sp, #20
 80022a4:	4604      	mov	r4, r0
 80022a6:	2b01      	cmp	r3, #1
 80022a8:	460e      	mov	r6, r1
 80022aa:	4690      	mov	r8, r2
 80022ac:	f89d a038 	ldrb.w	sl, [sp, #56]	@ 0x38
 80022b0:	f89d b03c 	ldrb.w	fp, [sp, #60]	@ 0x3c
 80022b4:	f8bd 7040 	ldrh.w	r7, [sp, #64]	@ 0x40
 80022b8:	d037      	beq.n	800232a <HAL_HCD_HC_Init+0x92>
 80022ba:	2301      	movs	r3, #1
 80022bc:	253c      	movs	r5, #60	@ 0x3c
 80022be:	f880 33d4 	strb.w	r3, [r0, #980]	@ 0x3d4
 80022c2:	2300      	movs	r3, #0
 80022c4:	fb05 0501 	mla	r5, r5, r1, r0
 80022c8:	766b      	strb	r3, [r5, #25]
 80022ca:	f002 037f 	and.w	r3, r2, #127	@ 0x7f
 80022ce:	7569      	strb	r1, [r5, #21]
 80022d0:	75ab      	strb	r3, [r5, #22]
 80022d2:	f885 9014 	strb.w	r9, [r5, #20]
 80022d6:	f885 b026 	strb.w	fp, [r5, #38]	@ 0x26
 80022da:	f7ff ffd6 	bl	800228a <HAL_HCD_HC_ClearHubInfo>
 80022de:	09d3      	lsrs	r3, r2, #7
 80022e0:	75eb      	strb	r3, [r5, #23]
 80022e2:	6820      	ldr	r0, [r4, #0]
 80022e4:	f001 fee7 	bl	80040b6 <USB_GetHostSpeed>
 80022e8:	f1bb 0f01 	cmp.w	fp, #1
 80022ec:	d106      	bne.n	80022fc <HAL_HCD_HC_Init+0x64>
 80022ee:	f1ba 0f01 	cmp.w	sl, #1
 80022f2:	d103      	bne.n	80022fc <HAL_HCD_HC_Init+0x64>
 80022f4:	b910      	cbnz	r0, 80022fc <HAL_HCD_HC_Init+0x64>
 80022f6:	2fbc      	cmp	r7, #188	@ 0xbc
 80022f8:	bf28      	it	cs
 80022fa:	27bc      	movcs	r7, #188	@ 0xbc
 80022fc:	233c      	movs	r3, #60	@ 0x3c
 80022fe:	b2bf      	uxth	r7, r7
 8002300:	4642      	mov	r2, r8
 8002302:	4631      	mov	r1, r6
 8002304:	fb03 4306 	mla	r3, r3, r6, r4
 8002308:	f883 a018 	strb.w	sl, [r3, #24]
 800230c:	851f      	strh	r7, [r3, #40]	@ 0x28
 800230e:	464b      	mov	r3, r9
 8002310:	f8cd a000 	str.w	sl, [sp]
 8002314:	e9cd b701 	strd	fp, r7, [sp, #4]
 8002318:	6820      	ldr	r0, [r4, #0]
 800231a:	f001 fedd 	bl	80040d8 <USB_HC_Init>
 800231e:	2300      	movs	r3, #0
 8002320:	f884 33d4 	strb.w	r3, [r4, #980]	@ 0x3d4
 8002324:	b005      	add	sp, #20
 8002326:	e8bd 8ff0 	ldmia.w	sp!, {r4, r5, r6, r7, r8, r9, sl, fp, pc}
 800232a:	2002      	movs	r0, #2
 800232c:	e7fa      	b.n	8002324 <HAL_HCD_HC_Init+0x8c>

0800232e <HAL_I2C_Init>:
 800232e:	b510      	push	{r4, lr}
 8002330:	4604      	mov	r4, r0
 8002332:	2800      	cmp	r0, #0
 8002334:	d04e      	beq.n	80023d4 <HAL_I2C_Init+0xa6>
 8002336:	f890 3041 	ldrb.w	r3, [r0, #65]	@ 0x41
 800233a:	f003 02ff 	and.w	r2, r3, #255	@ 0xff
 800233e:	b91b      	cbnz	r3, 8002348 <HAL_I2C_Init+0x1a>
 8002340:	f880 2040 	strb.w	r2, [r0, #64]	@ 0x40
 8002344:	f7fe fd9a 	bl	8000e7c <HAL_I2C_MspInit>
 8002348:	2324      	movs	r3, #36	@ 0x24
 800234a:	f884 3041 	strb.w	r3, [r4, #65]	@ 0x41
 800234e:	6823      	ldr	r3, [r4, #0]
 8002350:	681a      	ldr	r2, [r3, #0]
 8002352:	f022 0201 	bic.w	r2, r2, #1
 8002356:	601a      	str	r2, [r3, #0]
 8002358:	6862      	ldr	r2, [r4, #4]
 800235a:	f022 6270 	bic.w	r2, r2, #251658240	@ 0xf000000
 800235e:	611a      	str	r2, [r3, #16]
 8002360:	689a      	ldr	r2, [r3, #8]
 8002362:	f422 4200 	bic.w	r2, r2, #32768	@ 0x8000
 8002366:	609a      	str	r2, [r3, #8]
 8002368:	e9d4 2102 	ldrd	r2, r1, [r4, #8]
 800236c:	2901      	cmp	r1, #1
 800236e:	d106      	bne.n	800237e <HAL_I2C_Init+0x50>
 8002370:	f442 4200 	orr.w	r2, r2, #32768	@ 0x8000
 8002374:	609a      	str	r2, [r3, #8]
 8002376:	685a      	ldr	r2, [r3, #4]
 8002378:	f422 6200 	bic.w	r2, r2, #2048	@ 0x800
 800237c:	e007      	b.n	800238e <HAL_I2C_Init+0x60>
 800237e:	f442 4204 	orr.w	r2, r2, #33792	@ 0x8400
 8002382:	2902      	cmp	r1, #2
 8002384:	609a      	str	r2, [r3, #8]
 8002386:	d1f6      	bne.n	8002376 <HAL_I2C_Init+0x48>
 8002388:	685a      	ldr	r2, [r3, #4]
 800238a:	f442 6200 	orr.w	r2, r2, #2048	@ 0x800
 800238e:	605a      	str	r2, [r3, #4]
 8002390:	2000      	movs	r0, #0
 8002392:	685a      	ldr	r2, [r3, #4]
 8002394:	f042 7200 	orr.w	r2, r2, #33554432	@ 0x2000000
 8002398:	f442 4200 	orr.w	r2, r2, #32768	@ 0x8000
 800239c:	605a      	str	r2, [r3, #4]
 800239e:	68da      	ldr	r2, [r3, #12]
 80023a0:	f422 4200 	bic.w	r2, r2, #32768	@ 0x8000
 80023a4:	60da      	str	r2, [r3, #12]
 80023a6:	e9d4 2104 	ldrd	r2, r1, [r4, #16]
 80023aa:	430a      	orrs	r2, r1
 80023ac:	69a1      	ldr	r1, [r4, #24]
 80023ae:	ea42 2201 	orr.w	r2, r2, r1, lsl #8
 80023b2:	60da      	str	r2, [r3, #12]
 80023b4:	e9d4 2107 	ldrd	r2, r1, [r4, #28]
 80023b8:	430a      	orrs	r2, r1
 80023ba:	601a      	str	r2, [r3, #0]
 80023bc:	681a      	ldr	r2, [r3, #0]
 80023be:	f042 0201 	orr.w	r2, r2, #1
 80023c2:	601a      	str	r2, [r3, #0]
 80023c4:	2320      	movs	r3, #32
 80023c6:	6460      	str	r0, [r4, #68]	@ 0x44
 80023c8:	f884 3041 	strb.w	r3, [r4, #65]	@ 0x41
 80023cc:	6320      	str	r0, [r4, #48]	@ 0x30
 80023ce:	f884 0042 	strb.w	r0, [r4, #66]	@ 0x42
 80023d2:	bd10      	pop	{r4, pc}
 80023d4:	2001      	movs	r0, #1
 80023d6:	e7fc      	b.n	80023d2 <HAL_I2C_Init+0xa4>

080023d8 <HAL_I2CEx_ConfigAnalogFilter>:
 80023d8:	b510      	push	{r4, lr}
 80023da:	f890 2041 	ldrb.w	r2, [r0, #65]	@ 0x41
 80023de:	4603      	mov	r3, r0
 80023e0:	2a20      	cmp	r2, #32
 80023e2:	b2d4      	uxtb	r4, r2
 80023e4:	d11c      	bne.n	8002420 <HAL_I2CEx_ConfigAnalogFilter+0x48>
 80023e6:	f890 2040 	ldrb.w	r2, [r0, #64]	@ 0x40
 80023ea:	2a01      	cmp	r2, #1
 80023ec:	d018      	beq.n	8002420 <HAL_I2CEx_ConfigAnalogFilter+0x48>
 80023ee:	2224      	movs	r2, #36	@ 0x24
 80023f0:	f880 2041 	strb.w	r2, [r0, #65]	@ 0x41
 80023f4:	6802      	ldr	r2, [r0, #0]
 80023f6:	6810      	ldr	r0, [r2, #0]
 80023f8:	f020 0001 	bic.w	r0, r0, #1
 80023fc:	6010      	str	r0, [r2, #0]
 80023fe:	6810      	ldr	r0, [r2, #0]
 8002400:	f420 5080 	bic.w	r0, r0, #4096	@ 0x1000
 8002404:	6010      	str	r0, [r2, #0]
 8002406:	6810      	ldr	r0, [r2, #0]
 8002408:	4301      	orrs	r1, r0
 800240a:	2000      	movs	r0, #0
 800240c:	6011      	str	r1, [r2, #0]
 800240e:	6811      	ldr	r1, [r2, #0]
 8002410:	f041 0101 	orr.w	r1, r1, #1
 8002414:	6011      	str	r1, [r2, #0]
 8002416:	f883 4041 	strb.w	r4, [r3, #65]	@ 0x41
 800241a:	f883 0040 	strb.w	r0, [r3, #64]	@ 0x40
 800241e:	bd10      	pop	{r4, pc}
 8002420:	2002      	movs	r0, #2
 8002422:	e7fc      	b.n	800241e <HAL_I2CEx_ConfigAnalogFilter+0x46>

08002424 <HAL_I2CEx_ConfigDigitalFilter>:
 8002424:	b510      	push	{r4, lr}
 8002426:	f890 2041 	ldrb.w	r2, [r0, #65]	@ 0x41
 800242a:	4603      	mov	r3, r0
 800242c:	2a20      	cmp	r2, #32
 800242e:	b2d4      	uxtb	r4, r2
 8002430:	d11b      	bne.n	800246a <HAL_I2CEx_ConfigDigitalFilter+0x46>
 8002432:	f890 2040 	ldrb.w	r2, [r0, #64]	@ 0x40
 8002436:	2a01      	cmp	r2, #1
 8002438:	d017      	beq.n	800246a <HAL_I2CEx_ConfigDigitalFilter+0x46>
 800243a:	2224      	movs	r2, #36	@ 0x24
 800243c:	f880 2041 	strb.w	r2, [r0, #65]	@ 0x41
 8002440:	6802      	ldr	r2, [r0, #0]
 8002442:	6810      	ldr	r0, [r2, #0]
 8002444:	f020 0001 	bic.w	r0, r0, #1
 8002448:	6010      	str	r0, [r2, #0]
 800244a:	6810      	ldr	r0, [r2, #0]
 800244c:	f420 6070 	bic.w	r0, r0, #3840	@ 0xf00
 8002450:	ea40 2101 	orr.w	r1, r0, r1, lsl #8
 8002454:	2000      	movs	r0, #0
 8002456:	6011      	str	r1, [r2, #0]
 8002458:	6811      	ldr	r1, [r2, #0]
 800245a:	f041 0101 	orr.w	r1, r1, #1
 800245e:	6011      	str	r1, [r2, #0]
 8002460:	f883 4041 	strb.w	r4, [r3, #65]	@ 0x41
 8002464:	f883 0040 	strb.w	r0, [r3, #64]	@ 0x40
 8002468:	bd10      	pop	{r4, pc}
 800246a:	2002      	movs	r0, #2
 800246c:	e7fc      	b.n	8002468 <HAL_I2CEx_ConfigDigitalFilter+0x44>
	...

08002470 <HAL_PWR_EnableBkUpAccess>:
 8002470:	4a02      	ldr	r2, [pc, #8]	@ (800247c <HAL_PWR_EnableBkUpAccess+0xc>)
 8002472:	6813      	ldr	r3, [r2, #0]
 8002474:	f443 7380 	orr.w	r3, r3, #256	@ 0x100
 8002478:	6013      	str	r3, [r2, #0]
 800247a:	4770      	bx	lr
 800247c:	40007000 	.word	0x40007000

08002480 <HAL_PWREx_EnableOverDrive>:
 8002480:	4b19      	ldr	r3, [pc, #100]	@ (80024e8 <HAL_PWREx_EnableOverDrive+0x68>)
 8002482:	b537      	push	{r0, r1, r2, r4, r5, lr}
 8002484:	6c1a      	ldr	r2, [r3, #64]	@ 0x40
 8002486:	4c19      	ldr	r4, [pc, #100]	@ (80024ec <HAL_PWREx_EnableOverDrive+0x6c>)
 8002488:	f042 5280 	orr.w	r2, r2, #268435456	@ 0x10000000
 800248c:	641a      	str	r2, [r3, #64]	@ 0x40
 800248e:	6c1b      	ldr	r3, [r3, #64]	@ 0x40
 8002490:	f003 5380 	and.w	r3, r3, #268435456	@ 0x10000000
 8002494:	9301      	str	r3, [sp, #4]
 8002496:	9b01      	ldr	r3, [sp, #4]
 8002498:	6823      	ldr	r3, [r4, #0]
 800249a:	f443 3380 	orr.w	r3, r3, #65536	@ 0x10000
 800249e:	6023      	str	r3, [r4, #0]
 80024a0:	f7fe fec8 	bl	8001234 <HAL_GetTick>
 80024a4:	4605      	mov	r5, r0
 80024a6:	6863      	ldr	r3, [r4, #4]
 80024a8:	03da      	lsls	r2, r3, #15
 80024aa:	d50c      	bpl.n	80024c6 <HAL_PWREx_EnableOverDrive+0x46>
 80024ac:	6823      	ldr	r3, [r4, #0]
 80024ae:	4d0f      	ldr	r5, [pc, #60]	@ (80024ec <HAL_PWREx_EnableOverDrive+0x6c>)
 80024b0:	f443 3300 	orr.w	r3, r3, #131072	@ 0x20000
 80024b4:	6023      	str	r3, [r4, #0]
 80024b6:	f7fe febd 	bl	8001234 <HAL_GetTick>
 80024ba:	4604      	mov	r4, r0
 80024bc:	686b      	ldr	r3, [r5, #4]
 80024be:	039b      	lsls	r3, r3, #14
 80024c0:	d50a      	bpl.n	80024d8 <HAL_PWREx_EnableOverDrive+0x58>
 80024c2:	2000      	movs	r0, #0
 80024c4:	e006      	b.n	80024d4 <HAL_PWREx_EnableOverDrive+0x54>
 80024c6:	f7fe feb5 	bl	8001234 <HAL_GetTick>
 80024ca:	1b40      	subs	r0, r0, r5
 80024cc:	f5b0 7f7a 	cmp.w	r0, #1000	@ 0x3e8
 80024d0:	d9e9      	bls.n	80024a6 <HAL_PWREx_EnableOverDrive+0x26>
 80024d2:	2003      	movs	r0, #3
 80024d4:	b003      	add	sp, #12
 80024d6:	bd30      	pop	{r4, r5, pc}
 80024d8:	f7fe feac 	bl	8001234 <HAL_GetTick>
 80024dc:	1b00      	subs	r0, r0, r4
 80024de:	f5b0 7f7a 	cmp.w	r0, #1000	@ 0x3e8
 80024e2:	d9eb      	bls.n	80024bc <HAL_PWREx_EnableOverDrive+0x3c>
 80024e4:	e7f5      	b.n	80024d2 <HAL_PWREx_EnableOverDrive+0x52>
 80024e6:	bf00      	nop
 80024e8:	40023800 	.word	0x40023800
 80024ec:	40007000 	.word	0x40007000

080024f0 <HAL_RCC_OscConfig>:
 80024f0:	e92d 41f3 	stmdb	sp!, {r0, r1, r4, r5, r6, r7, r8, lr}
 80024f4:	4604      	mov	r4, r0
 80024f6:	b340      	cbz	r0, 800254a <HAL_RCC_OscConfig+0x5a>
 80024f8:	6803      	ldr	r3, [r0, #0]
 80024fa:	07de      	lsls	r6, r3, #31
 80024fc:	d410      	bmi.n	8002520 <HAL_RCC_OscConfig+0x30>
 80024fe:	6823      	ldr	r3, [r4, #0]
 8002500:	079d      	lsls	r5, r3, #30
 8002502:	d461      	bmi.n	80025c8 <HAL_RCC_OscConfig+0xd8>
 8002504:	6823      	ldr	r3, [r4, #0]
 8002506:	0719      	lsls	r1, r3, #28
 8002508:	f100 80a6 	bmi.w	8002658 <HAL_RCC_OscConfig+0x168>
 800250c:	6823      	ldr	r3, [r4, #0]
 800250e:	075a      	lsls	r2, r3, #29
 8002510:	f100 80c7 	bmi.w	80026a2 <HAL_RCC_OscConfig+0x1b2>
 8002514:	69a2      	ldr	r2, [r4, #24]
 8002516:	2a00      	cmp	r2, #0
 8002518:	f040 8130 	bne.w	800277c <HAL_RCC_OscConfig+0x28c>
 800251c:	2000      	movs	r0, #0
 800251e:	e02c      	b.n	800257a <HAL_RCC_OscConfig+0x8a>
 8002520:	4b94      	ldr	r3, [pc, #592]	@ (8002774 <HAL_RCC_OscConfig+0x284>)
 8002522:	689a      	ldr	r2, [r3, #8]
 8002524:	f002 020c 	and.w	r2, r2, #12
 8002528:	2a04      	cmp	r2, #4
 800252a:	d007      	beq.n	800253c <HAL_RCC_OscConfig+0x4c>
 800252c:	689a      	ldr	r2, [r3, #8]
 800252e:	f002 020c 	and.w	r2, r2, #12
 8002532:	2a08      	cmp	r2, #8
 8002534:	d10b      	bne.n	800254e <HAL_RCC_OscConfig+0x5e>
 8002536:	685b      	ldr	r3, [r3, #4]
 8002538:	0259      	lsls	r1, r3, #9
 800253a:	d508      	bpl.n	800254e <HAL_RCC_OscConfig+0x5e>
 800253c:	4b8d      	ldr	r3, [pc, #564]	@ (8002774 <HAL_RCC_OscConfig+0x284>)
 800253e:	681b      	ldr	r3, [r3, #0]
 8002540:	039a      	lsls	r2, r3, #14
 8002542:	d5dc      	bpl.n	80024fe <HAL_RCC_OscConfig+0xe>
 8002544:	6863      	ldr	r3, [r4, #4]
 8002546:	2b00      	cmp	r3, #0
 8002548:	d1d9      	bne.n	80024fe <HAL_RCC_OscConfig+0xe>
 800254a:	2001      	movs	r0, #1
 800254c:	e015      	b.n	800257a <HAL_RCC_OscConfig+0x8a>
 800254e:	6863      	ldr	r3, [r4, #4]
 8002550:	4d88      	ldr	r5, [pc, #544]	@ (8002774 <HAL_RCC_OscConfig+0x284>)
 8002552:	f5b3 3f80 	cmp.w	r3, #65536	@ 0x10000
 8002556:	d113      	bne.n	8002580 <HAL_RCC_OscConfig+0x90>
 8002558:	682b      	ldr	r3, [r5, #0]
 800255a:	f443 3380 	orr.w	r3, r3, #65536	@ 0x10000
 800255e:	602b      	str	r3, [r5, #0]
 8002560:	f7fe fe68 	bl	8001234 <HAL_GetTick>
 8002564:	4e83      	ldr	r6, [pc, #524]	@ (8002774 <HAL_RCC_OscConfig+0x284>)
 8002566:	4605      	mov	r5, r0
 8002568:	6833      	ldr	r3, [r6, #0]
 800256a:	039b      	lsls	r3, r3, #14
 800256c:	d4c7      	bmi.n	80024fe <HAL_RCC_OscConfig+0xe>
 800256e:	f7fe fe61 	bl	8001234 <HAL_GetTick>
 8002572:	1b40      	subs	r0, r0, r5
 8002574:	2864      	cmp	r0, #100	@ 0x64
 8002576:	d9f7      	bls.n	8002568 <HAL_RCC_OscConfig+0x78>
 8002578:	2003      	movs	r0, #3
 800257a:	b002      	add	sp, #8
 800257c:	e8bd 81f0 	ldmia.w	sp!, {r4, r5, r6, r7, r8, pc}
 8002580:	b99b      	cbnz	r3, 80025aa <HAL_RCC_OscConfig+0xba>
 8002582:	682b      	ldr	r3, [r5, #0]
 8002584:	f423 3380 	bic.w	r3, r3, #65536	@ 0x10000
 8002588:	602b      	str	r3, [r5, #0]
 800258a:	682b      	ldr	r3, [r5, #0]
 800258c:	f423 2380 	bic.w	r3, r3, #262144	@ 0x40000
 8002590:	602b      	str	r3, [r5, #0]
 8002592:	f7fe fe4f 	bl	8001234 <HAL_GetTick>
 8002596:	4606      	mov	r6, r0
 8002598:	682b      	ldr	r3, [r5, #0]
 800259a:	039f      	lsls	r7, r3, #14
 800259c:	d5af      	bpl.n	80024fe <HAL_RCC_OscConfig+0xe>
 800259e:	f7fe fe49 	bl	8001234 <HAL_GetTick>
 80025a2:	1b80      	subs	r0, r0, r6
 80025a4:	2864      	cmp	r0, #100	@ 0x64
 80025a6:	d9f7      	bls.n	8002598 <HAL_RCC_OscConfig+0xa8>
 80025a8:	e7e6      	b.n	8002578 <HAL_RCC_OscConfig+0x88>
 80025aa:	f5b3 2fa0 	cmp.w	r3, #327680	@ 0x50000
 80025ae:	682b      	ldr	r3, [r5, #0]
 80025b0:	d103      	bne.n	80025ba <HAL_RCC_OscConfig+0xca>
 80025b2:	f443 2380 	orr.w	r3, r3, #262144	@ 0x40000
 80025b6:	602b      	str	r3, [r5, #0]
 80025b8:	e7ce      	b.n	8002558 <HAL_RCC_OscConfig+0x68>
 80025ba:	f423 3380 	bic.w	r3, r3, #65536	@ 0x10000
 80025be:	602b      	str	r3, [r5, #0]
 80025c0:	682b      	ldr	r3, [r5, #0]
 80025c2:	f423 2380 	bic.w	r3, r3, #262144	@ 0x40000
 80025c6:	e7ca      	b.n	800255e <HAL_RCC_OscConfig+0x6e>
 80025c8:	4b6a      	ldr	r3, [pc, #424]	@ (8002774 <HAL_RCC_OscConfig+0x284>)
 80025ca:	689a      	ldr	r2, [r3, #8]
 80025cc:	f012 0f0c 	tst.w	r2, #12
 80025d0:	d007      	beq.n	80025e2 <HAL_RCC_OscConfig+0xf2>
 80025d2:	689a      	ldr	r2, [r3, #8]
 80025d4:	f002 020c 	and.w	r2, r2, #12
 80025d8:	2a08      	cmp	r2, #8
 80025da:	d111      	bne.n	8002600 <HAL_RCC_OscConfig+0x110>
 80025dc:	685b      	ldr	r3, [r3, #4]
 80025de:	025d      	lsls	r5, r3, #9
 80025e0:	d40e      	bmi.n	8002600 <HAL_RCC_OscConfig+0x110>
 80025e2:	4a64      	ldr	r2, [pc, #400]	@ (8002774 <HAL_RCC_OscConfig+0x284>)
 80025e4:	6813      	ldr	r3, [r2, #0]
 80025e6:	0799      	lsls	r1, r3, #30
 80025e8:	d502      	bpl.n	80025f0 <HAL_RCC_OscConfig+0x100>
 80025ea:	68e3      	ldr	r3, [r4, #12]
 80025ec:	2b01      	cmp	r3, #1
 80025ee:	d1ac      	bne.n	800254a <HAL_RCC_OscConfig+0x5a>
 80025f0:	6813      	ldr	r3, [r2, #0]
 80025f2:	6921      	ldr	r1, [r4, #16]
 80025f4:	f023 03f8 	bic.w	r3, r3, #248	@ 0xf8
 80025f8:	ea43 03c1 	orr.w	r3, r3, r1, lsl #3
 80025fc:	6013      	str	r3, [r2, #0]
 80025fe:	e781      	b.n	8002504 <HAL_RCC_OscConfig+0x14>
 8002600:	68e3      	ldr	r3, [r4, #12]
 8002602:	4d5c      	ldr	r5, [pc, #368]	@ (8002774 <HAL_RCC_OscConfig+0x284>)
 8002604:	b1bb      	cbz	r3, 8002636 <HAL_RCC_OscConfig+0x146>
 8002606:	682b      	ldr	r3, [r5, #0]
 8002608:	f043 0301 	orr.w	r3, r3, #1
 800260c:	602b      	str	r3, [r5, #0]
 800260e:	f7fe fe11 	bl	8001234 <HAL_GetTick>
 8002612:	4606      	mov	r6, r0
 8002614:	682b      	ldr	r3, [r5, #0]
 8002616:	079b      	lsls	r3, r3, #30
 8002618:	d507      	bpl.n	800262a <HAL_RCC_OscConfig+0x13a>
 800261a:	682b      	ldr	r3, [r5, #0]
 800261c:	6922      	ldr	r2, [r4, #16]
 800261e:	f023 03f8 	bic.w	r3, r3, #248	@ 0xf8
 8002622:	ea43 03c2 	orr.w	r3, r3, r2, lsl #3
 8002626:	602b      	str	r3, [r5, #0]
 8002628:	e76c      	b.n	8002504 <HAL_RCC_OscConfig+0x14>
 800262a:	f7fe fe03 	bl	8001234 <HAL_GetTick>
 800262e:	1b80      	subs	r0, r0, r6
 8002630:	2802      	cmp	r0, #2
 8002632:	d9ef      	bls.n	8002614 <HAL_RCC_OscConfig+0x124>
 8002634:	e7a0      	b.n	8002578 <HAL_RCC_OscConfig+0x88>
 8002636:	682b      	ldr	r3, [r5, #0]
 8002638:	f023 0301 	bic.w	r3, r3, #1
 800263c:	602b      	str	r3, [r5, #0]
 800263e:	f7fe fdf9 	bl	8001234 <HAL_GetTick>
 8002642:	4606      	mov	r6, r0
 8002644:	682b      	ldr	r3, [r5, #0]
 8002646:	079f      	lsls	r7, r3, #30
 8002648:	f57f af5c 	bpl.w	8002504 <HAL_RCC_OscConfig+0x14>
 800264c:	f7fe fdf2 	bl	8001234 <HAL_GetTick>
 8002650:	1b80      	subs	r0, r0, r6
 8002652:	2802      	cmp	r0, #2
 8002654:	d9f6      	bls.n	8002644 <HAL_RCC_OscConfig+0x154>
 8002656:	e78f      	b.n	8002578 <HAL_RCC_OscConfig+0x88>
 8002658:	6963      	ldr	r3, [r4, #20]
 800265a:	4d46      	ldr	r5, [pc, #280]	@ (8002774 <HAL_RCC_OscConfig+0x284>)
 800265c:	b183      	cbz	r3, 8002680 <HAL_RCC_OscConfig+0x190>
 800265e:	6f6b      	ldr	r3, [r5, #116]	@ 0x74
 8002660:	f043 0301 	orr.w	r3, r3, #1
 8002664:	676b      	str	r3, [r5, #116]	@ 0x74
 8002666:	f7fe fde5 	bl	8001234 <HAL_GetTick>
 800266a:	4606      	mov	r6, r0
 800266c:	6f6b      	ldr	r3, [r5, #116]	@ 0x74
 800266e:	079b      	lsls	r3, r3, #30
 8002670:	f53f af4c 	bmi.w	800250c <HAL_RCC_OscConfig+0x1c>
 8002674:	f7fe fdde 	bl	8001234 <HAL_GetTick>
 8002678:	1b80      	subs	r0, r0, r6
 800267a:	2802      	cmp	r0, #2
 800267c:	d9f6      	bls.n	800266c <HAL_RCC_OscConfig+0x17c>
 800267e:	e77b      	b.n	8002578 <HAL_RCC_OscConfig+0x88>
 8002680:	6f6b      	ldr	r3, [r5, #116]	@ 0x74
 8002682:	f023 0301 	bic.w	r3, r3, #1
 8002686:	676b      	str	r3, [r5, #116]	@ 0x74
 8002688:	f7fe fdd4 	bl	8001234 <HAL_GetTick>
 800268c:	4606      	mov	r6, r0
 800268e:	6f6b      	ldr	r3, [r5, #116]	@ 0x74
 8002690:	079f      	lsls	r7, r3, #30
 8002692:	f57f af3b 	bpl.w	800250c <HAL_RCC_OscConfig+0x1c>
 8002696:	f7fe fdcd 	bl	8001234 <HAL_GetTick>
 800269a:	1b80      	subs	r0, r0, r6
 800269c:	2802      	cmp	r0, #2
 800269e:	d9f6      	bls.n	800268e <HAL_RCC_OscConfig+0x19e>
 80026a0:	e76a      	b.n	8002578 <HAL_RCC_OscConfig+0x88>
 80026a2:	4b34      	ldr	r3, [pc, #208]	@ (8002774 <HAL_RCC_OscConfig+0x284>)
 80026a4:	6c1a      	ldr	r2, [r3, #64]	@ 0x40
 80026a6:	00d5      	lsls	r5, r2, #3
 80026a8:	d427      	bmi.n	80026fa <HAL_RCC_OscConfig+0x20a>
 80026aa:	6c1a      	ldr	r2, [r3, #64]	@ 0x40
 80026ac:	2701      	movs	r7, #1
 80026ae:	f042 5280 	orr.w	r2, r2, #268435456	@ 0x10000000
 80026b2:	641a      	str	r2, [r3, #64]	@ 0x40
 80026b4:	6c1b      	ldr	r3, [r3, #64]	@ 0x40
 80026b6:	f003 5380 	and.w	r3, r3, #268435456	@ 0x10000000
 80026ba:	9301      	str	r3, [sp, #4]
 80026bc:	9b01      	ldr	r3, [sp, #4]
 80026be:	4d2e      	ldr	r5, [pc, #184]	@ (8002778 <HAL_RCC_OscConfig+0x288>)
 80026c0:	682b      	ldr	r3, [r5, #0]
 80026c2:	05d8      	lsls	r0, r3, #23
 80026c4:	d51b      	bpl.n	80026fe <HAL_RCC_OscConfig+0x20e>
 80026c6:	68a3      	ldr	r3, [r4, #8]
 80026c8:	4d2a      	ldr	r5, [pc, #168]	@ (8002774 <HAL_RCC_OscConfig+0x284>)
 80026ca:	2b01      	cmp	r3, #1
 80026cc:	d127      	bne.n	800271e <HAL_RCC_OscConfig+0x22e>
 80026ce:	6f2b      	ldr	r3, [r5, #112]	@ 0x70
 80026d0:	f043 0301 	orr.w	r3, r3, #1
 80026d4:	672b      	str	r3, [r5, #112]	@ 0x70
 80026d6:	f241 3888 	movw	r8, #5000	@ 0x1388
 80026da:	f7fe fdab 	bl	8001234 <HAL_GetTick>
 80026de:	4e25      	ldr	r6, [pc, #148]	@ (8002774 <HAL_RCC_OscConfig+0x284>)
 80026e0:	4605      	mov	r5, r0
 80026e2:	6f33      	ldr	r3, [r6, #112]	@ 0x70
 80026e4:	079a      	lsls	r2, r3, #30
 80026e6:	d53f      	bpl.n	8002768 <HAL_RCC_OscConfig+0x278>
 80026e8:	2f00      	cmp	r7, #0
 80026ea:	f43f af13 	beq.w	8002514 <HAL_RCC_OscConfig+0x24>
 80026ee:	4a21      	ldr	r2, [pc, #132]	@ (8002774 <HAL_RCC_OscConfig+0x284>)
 80026f0:	6c13      	ldr	r3, [r2, #64]	@ 0x40
 80026f2:	f023 5380 	bic.w	r3, r3, #268435456	@ 0x10000000
 80026f6:	6413      	str	r3, [r2, #64]	@ 0x40
 80026f8:	e70c      	b.n	8002514 <HAL_RCC_OscConfig+0x24>
 80026fa:	2700      	movs	r7, #0
 80026fc:	e7df      	b.n	80026be <HAL_RCC_OscConfig+0x1ce>
 80026fe:	682b      	ldr	r3, [r5, #0]
 8002700:	f443 7380 	orr.w	r3, r3, #256	@ 0x100
 8002704:	602b      	str	r3, [r5, #0]
 8002706:	f7fe fd95 	bl	8001234 <HAL_GetTick>
 800270a:	4606      	mov	r6, r0
 800270c:	682b      	ldr	r3, [r5, #0]
 800270e:	05d9      	lsls	r1, r3, #23
 8002710:	d4d9      	bmi.n	80026c6 <HAL_RCC_OscConfig+0x1d6>
 8002712:	f7fe fd8f 	bl	8001234 <HAL_GetTick>
 8002716:	1b80      	subs	r0, r0, r6
 8002718:	2864      	cmp	r0, #100	@ 0x64
 800271a:	d9f7      	bls.n	800270c <HAL_RCC_OscConfig+0x21c>
 800271c:	e72c      	b.n	8002578 <HAL_RCC_OscConfig+0x88>
 800271e:	b9ab      	cbnz	r3, 800274c <HAL_RCC_OscConfig+0x25c>
 8002720:	6f2b      	ldr	r3, [r5, #112]	@ 0x70
 8002722:	f241 3888 	movw	r8, #5000	@ 0x1388
 8002726:	f023 0301 	bic.w	r3, r3, #1
 800272a:	672b      	str	r3, [r5, #112]	@ 0x70
 800272c:	6f2b      	ldr	r3, [r5, #112]	@ 0x70
 800272e:	f023 0304 	bic.w	r3, r3, #4
 8002732:	672b      	str	r3, [r5, #112]	@ 0x70
 8002734:	f7fe fd7e 	bl	8001234 <HAL_GetTick>
 8002738:	4606      	mov	r6, r0
 800273a:	6f2b      	ldr	r3, [r5, #112]	@ 0x70
 800273c:	079b      	lsls	r3, r3, #30
 800273e:	d5d3      	bpl.n	80026e8 <HAL_RCC_OscConfig+0x1f8>
 8002740:	f7fe fd78 	bl	8001234 <HAL_GetTick>
 8002744:	1b80      	subs	r0, r0, r6
 8002746:	4540      	cmp	r0, r8
 8002748:	d9f7      	bls.n	800273a <HAL_RCC_OscConfig+0x24a>
 800274a:	e715      	b.n	8002578 <HAL_RCC_OscConfig+0x88>
 800274c:	2b05      	cmp	r3, #5
 800274e:	6f2b      	ldr	r3, [r5, #112]	@ 0x70
 8002750:	d103      	bne.n	800275a <HAL_RCC_OscConfig+0x26a>
 8002752:	f043 0304 	orr.w	r3, r3, #4
 8002756:	672b      	str	r3, [r5, #112]	@ 0x70
 8002758:	e7b9      	b.n	80026ce <HAL_RCC_OscConfig+0x1de>
 800275a:	f023 0301 	bic.w	r3, r3, #1
 800275e:	672b      	str	r3, [r5, #112]	@ 0x70
 8002760:	6f2b      	ldr	r3, [r5, #112]	@ 0x70
 8002762:	f023 0304 	bic.w	r3, r3, #4
 8002766:	e7b5      	b.n	80026d4 <HAL_RCC_OscConfig+0x1e4>
 8002768:	f7fe fd64 	bl	8001234 <HAL_GetTick>
 800276c:	1b40      	subs	r0, r0, r5
 800276e:	4540      	cmp	r0, r8
 8002770:	d9b7      	bls.n	80026e2 <HAL_RCC_OscConfig+0x1f2>
 8002772:	e701      	b.n	8002578 <HAL_RCC_OscConfig+0x88>
 8002774:	40023800 	.word	0x40023800
 8002778:	40007000 	.word	0x40007000
 800277c:	4d38      	ldr	r5, [pc, #224]	@ (8002860 <HAL_RCC_OscConfig+0x370>)
 800277e:	68ab      	ldr	r3, [r5, #8]
 8002780:	f003 030c 	and.w	r3, r3, #12
 8002784:	2b08      	cmp	r3, #8
 8002786:	d041      	beq.n	800280c <HAL_RCC_OscConfig+0x31c>
 8002788:	682b      	ldr	r3, [r5, #0]
 800278a:	2a02      	cmp	r2, #2
 800278c:	f023 7380 	bic.w	r3, r3, #16777216	@ 0x1000000
 8002790:	602b      	str	r3, [r5, #0]
 8002792:	d12e      	bne.n	80027f2 <HAL_RCC_OscConfig+0x302>
 8002794:	f7fe fd4e 	bl	8001234 <HAL_GetTick>
 8002798:	4606      	mov	r6, r0
 800279a:	682b      	ldr	r3, [r5, #0]
 800279c:	0199      	lsls	r1, r3, #6
 800279e:	d422      	bmi.n	80027e6 <HAL_RCC_OscConfig+0x2f6>
 80027a0:	6aa3      	ldr	r3, [r4, #40]	@ 0x28
 80027a2:	085b      	lsrs	r3, r3, #1
 80027a4:	1e5a      	subs	r2, r3, #1
 80027a6:	e9d4 3107 	ldrd	r3, r1, [r4, #28]
 80027aa:	430b      	orrs	r3, r1
 80027ac:	ea43 4302 	orr.w	r3, r3, r2, lsl #16
 80027b0:	6a62      	ldr	r2, [r4, #36]	@ 0x24
 80027b2:	ea43 1382 	orr.w	r3, r3, r2, lsl #6
 80027b6:	6ae2      	ldr	r2, [r4, #44]	@ 0x2c
 80027b8:	ea43 6302 	orr.w	r3, r3, r2, lsl #24
 80027bc:	f043 5300 	orr.w	r3, r3, #536870912	@ 0x20000000
 80027c0:	606b      	str	r3, [r5, #4]
 80027c2:	682b      	ldr	r3, [r5, #0]
 80027c4:	f043 7380 	orr.w	r3, r3, #16777216	@ 0x1000000
 80027c8:	602b      	str	r3, [r5, #0]
 80027ca:	f7fe fd33 	bl	8001234 <HAL_GetTick>
 80027ce:	4d24      	ldr	r5, [pc, #144]	@ (8002860 <HAL_RCC_OscConfig+0x370>)
 80027d0:	4604      	mov	r4, r0
 80027d2:	682b      	ldr	r3, [r5, #0]
 80027d4:	019a      	lsls	r2, r3, #6
 80027d6:	f53f aea1 	bmi.w	800251c <HAL_RCC_OscConfig+0x2c>
 80027da:	f7fe fd2b 	bl	8001234 <HAL_GetTick>
 80027de:	1b00      	subs	r0, r0, r4
 80027e0:	2802      	cmp	r0, #2
 80027e2:	d9f6      	bls.n	80027d2 <HAL_RCC_OscConfig+0x2e2>
 80027e4:	e6c8      	b.n	8002578 <HAL_RCC_OscConfig+0x88>
 80027e6:	f7fe fd25 	bl	8001234 <HAL_GetTick>
 80027ea:	1b80      	subs	r0, r0, r6
 80027ec:	2802      	cmp	r0, #2
 80027ee:	d9d4      	bls.n	800279a <HAL_RCC_OscConfig+0x2aa>
 80027f0:	e6c2      	b.n	8002578 <HAL_RCC_OscConfig+0x88>
 80027f2:	f7fe fd1f 	bl	8001234 <HAL_GetTick>
 80027f6:	4604      	mov	r4, r0
 80027f8:	682b      	ldr	r3, [r5, #0]
 80027fa:	019b      	lsls	r3, r3, #6
 80027fc:	f57f ae8e 	bpl.w	800251c <HAL_RCC_OscConfig+0x2c>
 8002800:	f7fe fd18 	bl	8001234 <HAL_GetTick>
 8002804:	1b00      	subs	r0, r0, r4
 8002806:	2802      	cmp	r0, #2
 8002808:	d9f6      	bls.n	80027f8 <HAL_RCC_OscConfig+0x308>
 800280a:	e6b5      	b.n	8002578 <HAL_RCC_OscConfig+0x88>
 800280c:	2a01      	cmp	r2, #1
 800280e:	686b      	ldr	r3, [r5, #4]
 8002810:	f43f ae9b 	beq.w	800254a <HAL_RCC_OscConfig+0x5a>
 8002814:	f403 0280 	and.w	r2, r3, #4194304	@ 0x400000
 8002818:	69e1      	ldr	r1, [r4, #28]
 800281a:	428a      	cmp	r2, r1
 800281c:	f47f ae95 	bne.w	800254a <HAL_RCC_OscConfig+0x5a>
 8002820:	f003 023f 	and.w	r2, r3, #63	@ 0x3f
 8002824:	6a21      	ldr	r1, [r4, #32]
 8002826:	428a      	cmp	r2, r1
 8002828:	f47f ae8f 	bne.w	800254a <HAL_RCC_OscConfig+0x5a>
 800282c:	f647 72c0 	movw	r2, #32704	@ 0x7fc0
 8002830:	6a61      	ldr	r1, [r4, #36]	@ 0x24
 8002832:	401a      	ands	r2, r3
 8002834:	ebb2 1f81 	cmp.w	r2, r1, lsl #6
 8002838:	f47f ae87 	bne.w	800254a <HAL_RCC_OscConfig+0x5a>
 800283c:	6aa2      	ldr	r2, [r4, #40]	@ 0x28
 800283e:	f403 3140 	and.w	r1, r3, #196608	@ 0x30000
 8002842:	0852      	lsrs	r2, r2, #1
 8002844:	3a01      	subs	r2, #1
 8002846:	ebb1 4f02 	cmp.w	r1, r2, lsl #16
 800284a:	f47f ae7e 	bne.w	800254a <HAL_RCC_OscConfig+0x5a>
 800284e:	6ae2      	ldr	r2, [r4, #44]	@ 0x2c
 8002850:	f003 6370 	and.w	r3, r3, #251658240	@ 0xf000000
 8002854:	ebb3 6f02 	cmp.w	r3, r2, lsl #24
 8002858:	bf14      	ite	ne
 800285a:	2001      	movne	r0, #1
 800285c:	2000      	moveq	r0, #0
 800285e:	e68c      	b.n	800257a <HAL_RCC_OscConfig+0x8a>
 8002860:	40023800 	.word	0x40023800

08002864 <HAL_RCC_GetSysClockFreq>:
 8002864:	4913      	ldr	r1, [pc, #76]	@ (80028b4 <HAL_RCC_GetSysClockFreq+0x50>)
 8002866:	b508      	push	{r3, lr}
 8002868:	688b      	ldr	r3, [r1, #8]
 800286a:	f003 030c 	and.w	r3, r3, #12
 800286e:	2b04      	cmp	r3, #4
 8002870:	d01b      	beq.n	80028aa <HAL_RCC_GetSysClockFreq+0x46>
 8002872:	2b08      	cmp	r3, #8
 8002874:	d11b      	bne.n	80028ae <HAL_RCC_GetSysClockFreq+0x4a>
 8002876:	684a      	ldr	r2, [r1, #4]
 8002878:	684b      	ldr	r3, [r1, #4]
 800287a:	6849      	ldr	r1, [r1, #4]
 800287c:	f002 023f 	and.w	r2, r2, #63	@ 0x3f
 8002880:	f413 0380 	ands.w	r3, r3, #4194304	@ 0x400000
 8002884:	f3c1 1188 	ubfx	r1, r1, #6, #9
 8002888:	bf1a      	itte	ne
 800288a:	480b      	ldrne	r0, [pc, #44]	@ (80028b8 <HAL_RCC_GetSysClockFreq+0x54>)
 800288c:	2300      	movne	r3, #0
 800288e:	480b      	ldreq	r0, [pc, #44]	@ (80028bc <HAL_RCC_GetSysClockFreq+0x58>)
 8002890:	fba1 0100 	umull	r0, r1, r1, r0
 8002894:	f7fd fcb8 	bl	8000208 <__aeabi_uldivmod>
 8002898:	4b06      	ldr	r3, [pc, #24]	@ (80028b4 <HAL_RCC_GetSysClockFreq+0x50>)
 800289a:	685b      	ldr	r3, [r3, #4]
 800289c:	f3c3 4301 	ubfx	r3, r3, #16, #2
 80028a0:	3301      	adds	r3, #1
 80028a2:	005b      	lsls	r3, r3, #1
 80028a4:	fbb0 f0f3 	udiv	r0, r0, r3
 80028a8:	bd08      	pop	{r3, pc}
 80028aa:	4803      	ldr	r0, [pc, #12]	@ (80028b8 <HAL_RCC_GetSysClockFreq+0x54>)
 80028ac:	e7fc      	b.n	80028a8 <HAL_RCC_GetSysClockFreq+0x44>
 80028ae:	4803      	ldr	r0, [pc, #12]	@ (80028bc <HAL_RCC_GetSysClockFreq+0x58>)
 80028b0:	e7fa      	b.n	80028a8 <HAL_RCC_GetSysClockFreq+0x44>
 80028b2:	bf00      	nop
 80028b4:	40023800 	.word	0x40023800
 80028b8:	017d7840 	.word	0x017d7840
 80028bc:	00f42400 	.word	0x00f42400

080028c0 <HAL_RCC_ClockConfig>:
 80028c0:	e92d 41f0 	stmdb	sp!, {r4, r5, r6, r7, r8, lr}
 80028c4:	460d      	mov	r5, r1
 80028c6:	4604      	mov	r4, r0
 80028c8:	b910      	cbnz	r0, 80028d0 <HAL_RCC_ClockConfig+0x10>
 80028ca:	2001      	movs	r0, #1
 80028cc:	e8bd 81f0 	ldmia.w	sp!, {r4, r5, r6, r7, r8, pc}
 80028d0:	4a45      	ldr	r2, [pc, #276]	@ (80029e8 <HAL_RCC_ClockConfig+0x128>)
 80028d2:	6813      	ldr	r3, [r2, #0]
 80028d4:	f003 030f 	and.w	r3, r3, #15
 80028d8:	428b      	cmp	r3, r1
 80028da:	d328      	bcc.n	800292e <HAL_RCC_ClockConfig+0x6e>
 80028dc:	6821      	ldr	r1, [r4, #0]
 80028de:	078f      	lsls	r7, r1, #30
 80028e0:	d430      	bmi.n	8002944 <HAL_RCC_ClockConfig+0x84>
 80028e2:	07c8      	lsls	r0, r1, #31
 80028e4:	d443      	bmi.n	800296e <HAL_RCC_ClockConfig+0xae>
 80028e6:	4a40      	ldr	r2, [pc, #256]	@ (80029e8 <HAL_RCC_ClockConfig+0x128>)
 80028e8:	6813      	ldr	r3, [r2, #0]
 80028ea:	f003 030f 	and.w	r3, r3, #15
 80028ee:	42ab      	cmp	r3, r5
 80028f0:	d866      	bhi.n	80029c0 <HAL_RCC_ClockConfig+0x100>
 80028f2:	6822      	ldr	r2, [r4, #0]
 80028f4:	0751      	lsls	r1, r2, #29
 80028f6:	d46f      	bmi.n	80029d8 <HAL_RCC_ClockConfig+0x118>
 80028f8:	0713      	lsls	r3, r2, #28
 80028fa:	d507      	bpl.n	800290c <HAL_RCC_ClockConfig+0x4c>
 80028fc:	4a3b      	ldr	r2, [pc, #236]	@ (80029ec <HAL_RCC_ClockConfig+0x12c>)
 80028fe:	6921      	ldr	r1, [r4, #16]
 8002900:	6893      	ldr	r3, [r2, #8]
 8002902:	f423 4360 	bic.w	r3, r3, #57344	@ 0xe000
 8002906:	ea43 03c1 	orr.w	r3, r3, r1, lsl #3
 800290a:	6093      	str	r3, [r2, #8]
 800290c:	f7ff ffaa 	bl	8002864 <HAL_RCC_GetSysClockFreq>
 8002910:	4b36      	ldr	r3, [pc, #216]	@ (80029ec <HAL_RCC_ClockConfig+0x12c>)
 8002912:	4a37      	ldr	r2, [pc, #220]	@ (80029f0 <HAL_RCC_ClockConfig+0x130>)
 8002914:	689b      	ldr	r3, [r3, #8]
 8002916:	f3c3 1303 	ubfx	r3, r3, #4, #4
 800291a:	5cd3      	ldrb	r3, [r2, r3]
 800291c:	40d8      	lsrs	r0, r3
 800291e:	4b35      	ldr	r3, [pc, #212]	@ (80029f4 <HAL_RCC_ClockConfig+0x134>)
 8002920:	6018      	str	r0, [r3, #0]
 8002922:	4b35      	ldr	r3, [pc, #212]	@ (80029f8 <HAL_RCC_ClockConfig+0x138>)
 8002924:	6818      	ldr	r0, [r3, #0]
 8002926:	f7fe fbab 	bl	8001080 <HAL_InitTick>
 800292a:	2000      	movs	r0, #0
 800292c:	e7ce      	b.n	80028cc <HAL_RCC_ClockConfig+0xc>
 800292e:	6813      	ldr	r3, [r2, #0]
 8002930:	f023 030f 	bic.w	r3, r3, #15
 8002934:	430b      	orrs	r3, r1
 8002936:	6013      	str	r3, [r2, #0]
 8002938:	6813      	ldr	r3, [r2, #0]
 800293a:	f003 030f 	and.w	r3, r3, #15
 800293e:	428b      	cmp	r3, r1
 8002940:	d1c3      	bne.n	80028ca <HAL_RCC_ClockConfig+0xa>
 8002942:	e7cb      	b.n	80028dc <HAL_RCC_ClockConfig+0x1c>
 8002944:	f011 0f04 	tst.w	r1, #4
 8002948:	4b28      	ldr	r3, [pc, #160]	@ (80029ec <HAL_RCC_ClockConfig+0x12c>)
 800294a:	d003      	beq.n	8002954 <HAL_RCC_ClockConfig+0x94>
 800294c:	689a      	ldr	r2, [r3, #8]
 800294e:	f442 52e0 	orr.w	r2, r2, #7168	@ 0x1c00
 8002952:	609a      	str	r2, [r3, #8]
 8002954:	070e      	lsls	r6, r1, #28
 8002956:	d503      	bpl.n	8002960 <HAL_RCC_ClockConfig+0xa0>
 8002958:	689a      	ldr	r2, [r3, #8]
 800295a:	f442 4260 	orr.w	r2, r2, #57344	@ 0xe000
 800295e:	609a      	str	r2, [r3, #8]
 8002960:	689a      	ldr	r2, [r3, #8]
 8002962:	68a0      	ldr	r0, [r4, #8]
 8002964:	f022 02f0 	bic.w	r2, r2, #240	@ 0xf0
 8002968:	4302      	orrs	r2, r0
 800296a:	609a      	str	r2, [r3, #8]
 800296c:	e7b9      	b.n	80028e2 <HAL_RCC_ClockConfig+0x22>
 800296e:	6861      	ldr	r1, [r4, #4]
 8002970:	4b1e      	ldr	r3, [pc, #120]	@ (80029ec <HAL_RCC_ClockConfig+0x12c>)
 8002972:	2901      	cmp	r1, #1
 8002974:	681a      	ldr	r2, [r3, #0]
 8002976:	d11b      	bne.n	80029b0 <HAL_RCC_ClockConfig+0xf0>
 8002978:	f412 3f00 	tst.w	r2, #131072	@ 0x20000
 800297c:	d0a5      	beq.n	80028ca <HAL_RCC_ClockConfig+0xa>
 800297e:	689a      	ldr	r2, [r3, #8]
 8002980:	f241 3888 	movw	r8, #5000	@ 0x1388
 8002984:	4f19      	ldr	r7, [pc, #100]	@ (80029ec <HAL_RCC_ClockConfig+0x12c>)
 8002986:	f022 0203 	bic.w	r2, r2, #3
 800298a:	430a      	orrs	r2, r1
 800298c:	609a      	str	r2, [r3, #8]
 800298e:	f7fe fc51 	bl	8001234 <HAL_GetTick>
 8002992:	4606      	mov	r6, r0
 8002994:	68bb      	ldr	r3, [r7, #8]
 8002996:	6862      	ldr	r2, [r4, #4]
 8002998:	f003 030c 	and.w	r3, r3, #12
 800299c:	ebb3 0f82 	cmp.w	r3, r2, lsl #2
 80029a0:	d0a1      	beq.n	80028e6 <HAL_RCC_ClockConfig+0x26>
 80029a2:	f7fe fc47 	bl	8001234 <HAL_GetTick>
 80029a6:	1b80      	subs	r0, r0, r6
 80029a8:	4540      	cmp	r0, r8
 80029aa:	d9f3      	bls.n	8002994 <HAL_RCC_ClockConfig+0xd4>
 80029ac:	2003      	movs	r0, #3
 80029ae:	e78d      	b.n	80028cc <HAL_RCC_ClockConfig+0xc>
 80029b0:	2902      	cmp	r1, #2
 80029b2:	d102      	bne.n	80029ba <HAL_RCC_ClockConfig+0xfa>
 80029b4:	f012 7f00 	tst.w	r2, #33554432	@ 0x2000000
 80029b8:	e7e0      	b.n	800297c <HAL_RCC_ClockConfig+0xbc>
 80029ba:	f012 0f02 	tst.w	r2, #2
 80029be:	e7dd      	b.n	800297c <HAL_RCC_ClockConfig+0xbc>
 80029c0:	6813      	ldr	r3, [r2, #0]
 80029c2:	f023 030f 	bic.w	r3, r3, #15
 80029c6:	432b      	orrs	r3, r5
 80029c8:	6013      	str	r3, [r2, #0]
 80029ca:	6813      	ldr	r3, [r2, #0]
 80029cc:	f003 030f 	and.w	r3, r3, #15
 80029d0:	42ab      	cmp	r3, r5
 80029d2:	f47f af7a 	bne.w	80028ca <HAL_RCC_ClockConfig+0xa>
 80029d6:	e78c      	b.n	80028f2 <HAL_RCC_ClockConfig+0x32>
 80029d8:	4904      	ldr	r1, [pc, #16]	@ (80029ec <HAL_RCC_ClockConfig+0x12c>)
 80029da:	68e0      	ldr	r0, [r4, #12]
 80029dc:	688b      	ldr	r3, [r1, #8]
 80029de:	f423 53e0 	bic.w	r3, r3, #7168	@ 0x1c00
 80029e2:	4303      	orrs	r3, r0
 80029e4:	608b      	str	r3, [r1, #8]
 80029e6:	e787      	b.n	80028f8 <HAL_RCC_ClockConfig+0x38>
 80029e8:	40023c00 	.word	0x40023c00
 80029ec:	40023800 	.word	0x40023800
 80029f0:	08006ac4 	.word	0x08006ac4
 80029f4:	20000008 	.word	0x20000008
 80029f8:	20000010 	.word	0x20000010

080029fc <HAL_RCC_GetPCLK1Freq>:
 80029fc:	4b04      	ldr	r3, [pc, #16]	@ (8002a10 <HAL_RCC_GetPCLK1Freq+0x14>)
 80029fe:	4a05      	ldr	r2, [pc, #20]	@ (8002a14 <HAL_RCC_GetPCLK1Freq+0x18>)
 8002a00:	689b      	ldr	r3, [r3, #8]
 8002a02:	f3c3 2382 	ubfx	r3, r3, #10, #3
 8002a06:	5cd3      	ldrb	r3, [r2, r3]
 8002a08:	4a03      	ldr	r2, [pc, #12]	@ (8002a18 <HAL_RCC_GetPCLK1Freq+0x1c>)
 8002a0a:	6810      	ldr	r0, [r2, #0]
 8002a0c:	40d8      	lsrs	r0, r3
 8002a0e:	4770      	bx	lr
 8002a10:	40023800 	.word	0x40023800
 8002a14:	08006abc 	.word	0x08006abc
 8002a18:	20000008 	.word	0x20000008

08002a1c <HAL_RCC_GetClockConfig>:
 8002a1c:	230f      	movs	r3, #15
 8002a1e:	6003      	str	r3, [r0, #0]
 8002a20:	4b0b      	ldr	r3, [pc, #44]	@ (8002a50 <HAL_RCC_GetClockConfig+0x34>)
 8002a22:	689a      	ldr	r2, [r3, #8]
 8002a24:	f002 0203 	and.w	r2, r2, #3
 8002a28:	6042      	str	r2, [r0, #4]
 8002a2a:	689a      	ldr	r2, [r3, #8]
 8002a2c:	f002 02f0 	and.w	r2, r2, #240	@ 0xf0
 8002a30:	6082      	str	r2, [r0, #8]
 8002a32:	689a      	ldr	r2, [r3, #8]
 8002a34:	f402 52e0 	and.w	r2, r2, #7168	@ 0x1c00
 8002a38:	60c2      	str	r2, [r0, #12]
 8002a3a:	689b      	ldr	r3, [r3, #8]
 8002a3c:	08db      	lsrs	r3, r3, #3
 8002a3e:	f403 53e0 	and.w	r3, r3, #7168	@ 0x1c00
 8002a42:	6103      	str	r3, [r0, #16]
 8002a44:	4b03      	ldr	r3, [pc, #12]	@ (8002a54 <HAL_RCC_GetClockConfig+0x38>)
 8002a46:	681b      	ldr	r3, [r3, #0]
 8002a48:	f003 030f 	and.w	r3, r3, #15
 8002a4c:	600b      	str	r3, [r1, #0]
 8002a4e:	4770      	bx	lr
 8002a50:	40023800 	.word	0x40023800
 8002a54:	40023c00 	.word	0x40023c00

08002a58 <HAL_RCCEx_PeriphCLKConfig>:
 8002a58:	6803      	ldr	r3, [r0, #0]
 8002a5a:	e92d 43f7 	stmdb	sp!, {r0, r1, r2, r4, r5, r6, r7, r8, r9, lr}
 8002a5e:	f013 0601 	ands.w	r6, r3, #1
 8002a62:	4604      	mov	r4, r0
 8002a64:	d00b      	beq.n	8002a7e <HAL_RCCEx_PeriphCLKConfig+0x26>
 8002a66:	4aad      	ldr	r2, [pc, #692]	@ (8002d1c <HAL_RCCEx_PeriphCLKConfig+0x2c4>)
 8002a68:	6891      	ldr	r1, [r2, #8]
 8002a6a:	f421 0100 	bic.w	r1, r1, #8388608	@ 0x800000
 8002a6e:	6091      	str	r1, [r2, #8]
 8002a70:	6b46      	ldr	r6, [r0, #52]	@ 0x34
 8002a72:	6891      	ldr	r1, [r2, #8]
 8002a74:	4331      	orrs	r1, r6
 8002a76:	fab6 f686 	clz	r6, r6
 8002a7a:	0976      	lsrs	r6, r6, #5
 8002a7c:	6091      	str	r1, [r2, #8]
 8002a7e:	f413 2500 	ands.w	r5, r3, #524288	@ 0x80000
 8002a82:	d012      	beq.n	8002aaa <HAL_RCCEx_PeriphCLKConfig+0x52>
 8002a84:	49a5      	ldr	r1, [pc, #660]	@ (8002d1c <HAL_RCCEx_PeriphCLKConfig+0x2c4>)
 8002a86:	6be5      	ldr	r5, [r4, #60]	@ 0x3c
 8002a88:	f8d1 208c 	ldr.w	r2, [r1, #140]	@ 0x8c
 8002a8c:	f5b5 1f80 	cmp.w	r5, #1048576	@ 0x100000
 8002a90:	f422 1240 	bic.w	r2, r2, #3145728	@ 0x300000
 8002a94:	bf08      	it	eq
 8002a96:	2601      	moveq	r6, #1
 8002a98:	ea42 0205 	orr.w	r2, r2, r5
 8002a9c:	bf16      	itet	ne
 8002a9e:	fab5 f585 	clzne	r5, r5
 8002aa2:	2500      	moveq	r5, #0
 8002aa4:	096d      	lsrne	r5, r5, #5
 8002aa6:	f8c1 208c 	str.w	r2, [r1, #140]	@ 0x8c
 8002aaa:	02d8      	lsls	r0, r3, #11
 8002aac:	d510      	bpl.n	8002ad0 <HAL_RCCEx_PeriphCLKConfig+0x78>
 8002aae:	489b      	ldr	r0, [pc, #620]	@ (8002d1c <HAL_RCCEx_PeriphCLKConfig+0x2c4>)
 8002ab0:	6c21      	ldr	r1, [r4, #64]	@ 0x40
 8002ab2:	f8d0 208c 	ldr.w	r2, [r0, #140]	@ 0x8c
 8002ab6:	f5b1 0f80 	cmp.w	r1, #4194304	@ 0x400000
 8002aba:	f422 0240 	bic.w	r2, r2, #12582912	@ 0xc00000
 8002abe:	ea42 0201 	orr.w	r2, r2, r1
 8002ac2:	f8c0 208c 	str.w	r2, [r0, #140]	@ 0x8c
 8002ac6:	f000 8186 	beq.w	8002dd6 <HAL_RCCEx_PeriphCLKConfig+0x37e>
 8002aca:	2900      	cmp	r1, #0
 8002acc:	bf08      	it	eq
 8002ace:	2501      	moveq	r5, #1
 8002ad0:	f013 7f80 	tst.w	r3, #16777216	@ 0x1000000
 8002ad4:	bf18      	it	ne
 8002ad6:	2601      	movne	r6, #1
 8002ad8:	0699      	lsls	r1, r3, #26
 8002ada:	d532      	bpl.n	8002b42 <HAL_RCCEx_PeriphCLKConfig+0xea>
 8002adc:	4b8f      	ldr	r3, [pc, #572]	@ (8002d1c <HAL_RCCEx_PeriphCLKConfig+0x2c4>)
 8002ade:	4f90      	ldr	r7, [pc, #576]	@ (8002d20 <HAL_RCCEx_PeriphCLKConfig+0x2c8>)
 8002ae0:	6c1a      	ldr	r2, [r3, #64]	@ 0x40
 8002ae2:	f042 5280 	orr.w	r2, r2, #268435456	@ 0x10000000
 8002ae6:	641a      	str	r2, [r3, #64]	@ 0x40
 8002ae8:	6c1b      	ldr	r3, [r3, #64]	@ 0x40
 8002aea:	f003 5380 	and.w	r3, r3, #268435456	@ 0x10000000
 8002aee:	9301      	str	r3, [sp, #4]
 8002af0:	9b01      	ldr	r3, [sp, #4]
 8002af2:	683b      	ldr	r3, [r7, #0]
 8002af4:	f443 7380 	orr.w	r3, r3, #256	@ 0x100
 8002af8:	603b      	str	r3, [r7, #0]
 8002afa:	f7fe fb9b 	bl	8001234 <HAL_GetTick>
 8002afe:	4680      	mov	r8, r0
 8002b00:	683b      	ldr	r3, [r7, #0]
 8002b02:	05da      	lsls	r2, r3, #23
 8002b04:	f140 8169 	bpl.w	8002dda <HAL_RCCEx_PeriphCLKConfig+0x382>
 8002b08:	4f84      	ldr	r7, [pc, #528]	@ (8002d1c <HAL_RCCEx_PeriphCLKConfig+0x2c4>)
 8002b0a:	6b22      	ldr	r2, [r4, #48]	@ 0x30
 8002b0c:	6f3b      	ldr	r3, [r7, #112]	@ 0x70
 8002b0e:	f413 7340 	ands.w	r3, r3, #768	@ 0x300
 8002b12:	f040 816d 	bne.w	8002df0 <HAL_RCCEx_PeriphCLKConfig+0x398>
 8002b16:	6b23      	ldr	r3, [r4, #48]	@ 0x30
 8002b18:	f403 7240 	and.w	r2, r3, #768	@ 0x300
 8002b1c:	f5b2 7f40 	cmp.w	r2, #768	@ 0x300
 8002b20:	4a7e      	ldr	r2, [pc, #504]	@ (8002d1c <HAL_RCCEx_PeriphCLKConfig+0x2c4>)
 8002b22:	f040 818a 	bne.w	8002e3a <HAL_RCCEx_PeriphCLKConfig+0x3e2>
 8002b26:	6891      	ldr	r1, [r2, #8]
 8002b28:	f023 4070 	bic.w	r0, r3, #4026531840	@ 0xf0000000
 8002b2c:	f421 11f8 	bic.w	r1, r1, #2031616	@ 0x1f0000
 8002b30:	f420 7040 	bic.w	r0, r0, #768	@ 0x300
 8002b34:	4301      	orrs	r1, r0
 8002b36:	6091      	str	r1, [r2, #8]
 8002b38:	f3c3 030b 	ubfx	r3, r3, #0, #12
 8002b3c:	6f11      	ldr	r1, [r2, #112]	@ 0x70
 8002b3e:	430b      	orrs	r3, r1
 8002b40:	6713      	str	r3, [r2, #112]	@ 0x70
 8002b42:	6823      	ldr	r3, [r4, #0]
 8002b44:	06d9      	lsls	r1, r3, #27
 8002b46:	d50c      	bpl.n	8002b62 <HAL_RCCEx_PeriphCLKConfig+0x10a>
 8002b48:	4a74      	ldr	r2, [pc, #464]	@ (8002d1c <HAL_RCCEx_PeriphCLKConfig+0x2c4>)
 8002b4a:	f8d2 108c 	ldr.w	r1, [r2, #140]	@ 0x8c
 8002b4e:	f021 7180 	bic.w	r1, r1, #16777216	@ 0x1000000
 8002b52:	f8c2 108c 	str.w	r1, [r2, #140]	@ 0x8c
 8002b56:	f8d2 108c 	ldr.w	r1, [r2, #140]	@ 0x8c
 8002b5a:	6ba0      	ldr	r0, [r4, #56]	@ 0x38
 8002b5c:	4301      	orrs	r1, r0
 8002b5e:	f8c2 108c 	str.w	r1, [r2, #140]	@ 0x8c
 8002b62:	045a      	lsls	r2, r3, #17
 8002b64:	d508      	bpl.n	8002b78 <HAL_RCCEx_PeriphCLKConfig+0x120>
 8002b66:	496d      	ldr	r1, [pc, #436]	@ (8002d1c <HAL_RCCEx_PeriphCLKConfig+0x2c4>)
 8002b68:	6e60      	ldr	r0, [r4, #100]	@ 0x64
 8002b6a:	f8d1 2090 	ldr.w	r2, [r1, #144]	@ 0x90
 8002b6e:	f422 3240 	bic.w	r2, r2, #196608	@ 0x30000
 8002b72:	4302      	orrs	r2, r0
 8002b74:	f8c1 2090 	str.w	r2, [r1, #144]	@ 0x90
 8002b78:	041f      	lsls	r7, r3, #16
 8002b7a:	d508      	bpl.n	8002b8e <HAL_RCCEx_PeriphCLKConfig+0x136>
 8002b7c:	4967      	ldr	r1, [pc, #412]	@ (8002d1c <HAL_RCCEx_PeriphCLKConfig+0x2c4>)
 8002b7e:	6ea0      	ldr	r0, [r4, #104]	@ 0x68
 8002b80:	f8d1 2090 	ldr.w	r2, [r1, #144]	@ 0x90
 8002b84:	f422 2240 	bic.w	r2, r2, #786432	@ 0xc0000
 8002b88:	4302      	orrs	r2, r0
 8002b8a:	f8c1 2090 	str.w	r2, [r1, #144]	@ 0x90
 8002b8e:	03d8      	lsls	r0, r3, #15
 8002b90:	d508      	bpl.n	8002ba4 <HAL_RCCEx_PeriphCLKConfig+0x14c>
 8002b92:	4962      	ldr	r1, [pc, #392]	@ (8002d1c <HAL_RCCEx_PeriphCLKConfig+0x2c4>)
 8002b94:	6ee0      	ldr	r0, [r4, #108]	@ 0x6c
 8002b96:	f8d1 2090 	ldr.w	r2, [r1, #144]	@ 0x90
 8002b9a:	f422 1240 	bic.w	r2, r2, #3145728	@ 0x300000
 8002b9e:	4302      	orrs	r2, r0
 8002ba0:	f8c1 2090 	str.w	r2, [r1, #144]	@ 0x90
 8002ba4:	0399      	lsls	r1, r3, #14
 8002ba6:	d508      	bpl.n	8002bba <HAL_RCCEx_PeriphCLKConfig+0x162>
 8002ba8:	495c      	ldr	r1, [pc, #368]	@ (8002d1c <HAL_RCCEx_PeriphCLKConfig+0x2c4>)
 8002baa:	6f20      	ldr	r0, [r4, #112]	@ 0x70
 8002bac:	f8d1 2090 	ldr.w	r2, [r1, #144]	@ 0x90
 8002bb0:	f422 0240 	bic.w	r2, r2, #12582912	@ 0xc00000
 8002bb4:	4302      	orrs	r2, r0
 8002bb6:	f8c1 2090 	str.w	r2, [r1, #144]	@ 0x90
 8002bba:	065a      	lsls	r2, r3, #25
 8002bbc:	d508      	bpl.n	8002bd0 <HAL_RCCEx_PeriphCLKConfig+0x178>
 8002bbe:	4957      	ldr	r1, [pc, #348]	@ (8002d1c <HAL_RCCEx_PeriphCLKConfig+0x2c4>)
 8002bc0:	6c60      	ldr	r0, [r4, #68]	@ 0x44
 8002bc2:	f8d1 2090 	ldr.w	r2, [r1, #144]	@ 0x90
 8002bc6:	f022 0203 	bic.w	r2, r2, #3
 8002bca:	4302      	orrs	r2, r0
 8002bcc:	f8c1 2090 	str.w	r2, [r1, #144]	@ 0x90
 8002bd0:	061f      	lsls	r7, r3, #24
 8002bd2:	d508      	bpl.n	8002be6 <HAL_RCCEx_PeriphCLKConfig+0x18e>
 8002bd4:	4951      	ldr	r1, [pc, #324]	@ (8002d1c <HAL_RCCEx_PeriphCLKConfig+0x2c4>)
 8002bd6:	6ca0      	ldr	r0, [r4, #72]	@ 0x48
 8002bd8:	f8d1 2090 	ldr.w	r2, [r1, #144]	@ 0x90
 8002bdc:	f022 020c 	bic.w	r2, r2, #12
 8002be0:	4302      	orrs	r2, r0
 8002be2:	f8c1 2090 	str.w	r2, [r1, #144]	@ 0x90
 8002be6:	05d8      	lsls	r0, r3, #23
 8002be8:	d508      	bpl.n	8002bfc <HAL_RCCEx_PeriphCLKConfig+0x1a4>
 8002bea:	494c      	ldr	r1, [pc, #304]	@ (8002d1c <HAL_RCCEx_PeriphCLKConfig+0x2c4>)
 8002bec:	6ce0      	ldr	r0, [r4, #76]	@ 0x4c
 8002bee:	f8d1 2090 	ldr.w	r2, [r1, #144]	@ 0x90
 8002bf2:	f022 0230 	bic.w	r2, r2, #48	@ 0x30
 8002bf6:	4302      	orrs	r2, r0
 8002bf8:	f8c1 2090 	str.w	r2, [r1, #144]	@ 0x90
 8002bfc:	0599      	lsls	r1, r3, #22
 8002bfe:	d508      	bpl.n	8002c12 <HAL_RCCEx_PeriphCLKConfig+0x1ba>
 8002c00:	4946      	ldr	r1, [pc, #280]	@ (8002d1c <HAL_RCCEx_PeriphCLKConfig+0x2c4>)
 8002c02:	6d20      	ldr	r0, [r4, #80]	@ 0x50
 8002c04:	f8d1 2090 	ldr.w	r2, [r1, #144]	@ 0x90
 8002c08:	f022 02c0 	bic.w	r2, r2, #192	@ 0xc0
 8002c0c:	4302      	orrs	r2, r0
 8002c0e:	f8c1 2090 	str.w	r2, [r1, #144]	@ 0x90
 8002c12:	055a      	lsls	r2, r3, #21
 8002c14:	d508      	bpl.n	8002c28 <HAL_RCCEx_PeriphCLKConfig+0x1d0>
 8002c16:	4941      	ldr	r1, [pc, #260]	@ (8002d1c <HAL_RCCEx_PeriphCLKConfig+0x2c4>)
 8002c18:	6d60      	ldr	r0, [r4, #84]	@ 0x54
 8002c1a:	f8d1 2090 	ldr.w	r2, [r1, #144]	@ 0x90
 8002c1e:	f422 7240 	bic.w	r2, r2, #768	@ 0x300
 8002c22:	4302      	orrs	r2, r0
 8002c24:	f8c1 2090 	str.w	r2, [r1, #144]	@ 0x90
 8002c28:	051f      	lsls	r7, r3, #20
 8002c2a:	d508      	bpl.n	8002c3e <HAL_RCCEx_PeriphCLKConfig+0x1e6>
 8002c2c:	493b      	ldr	r1, [pc, #236]	@ (8002d1c <HAL_RCCEx_PeriphCLKConfig+0x2c4>)
 8002c2e:	6da0      	ldr	r0, [r4, #88]	@ 0x58
 8002c30:	f8d1 2090 	ldr.w	r2, [r1, #144]	@ 0x90
 8002c34:	f422 6240 	bic.w	r2, r2, #3072	@ 0xc00
 8002c38:	4302      	orrs	r2, r0
 8002c3a:	f8c1 2090 	str.w	r2, [r1, #144]	@ 0x90
 8002c3e:	04d8      	lsls	r0, r3, #19
 8002c40:	d508      	bpl.n	8002c54 <HAL_RCCEx_PeriphCLKConfig+0x1fc>
 8002c42:	4936      	ldr	r1, [pc, #216]	@ (8002d1c <HAL_RCCEx_PeriphCLKConfig+0x2c4>)
 8002c44:	6de0      	ldr	r0, [r4, #92]	@ 0x5c
 8002c46:	f8d1 2090 	ldr.w	r2, [r1, #144]	@ 0x90
 8002c4a:	f422 5240 	bic.w	r2, r2, #12288	@ 0x3000
 8002c4e:	4302      	orrs	r2, r0
 8002c50:	f8c1 2090 	str.w	r2, [r1, #144]	@ 0x90
 8002c54:	0499      	lsls	r1, r3, #18
 8002c56:	d508      	bpl.n	8002c6a <HAL_RCCEx_PeriphCLKConfig+0x212>
 8002c58:	4930      	ldr	r1, [pc, #192]	@ (8002d1c <HAL_RCCEx_PeriphCLKConfig+0x2c4>)
 8002c5a:	6e20      	ldr	r0, [r4, #96]	@ 0x60
 8002c5c:	f8d1 2090 	ldr.w	r2, [r1, #144]	@ 0x90
 8002c60:	f422 4240 	bic.w	r2, r2, #49152	@ 0xc000
 8002c64:	4302      	orrs	r2, r0
 8002c66:	f8c1 2090 	str.w	r2, [r1, #144]	@ 0x90
 8002c6a:	025a      	lsls	r2, r3, #9
 8002c6c:	d508      	bpl.n	8002c80 <HAL_RCCEx_PeriphCLKConfig+0x228>
 8002c6e:	492b      	ldr	r1, [pc, #172]	@ (8002d1c <HAL_RCCEx_PeriphCLKConfig+0x2c4>)
 8002c70:	6fa0      	ldr	r0, [r4, #120]	@ 0x78
 8002c72:	f8d1 2090 	ldr.w	r2, [r1, #144]	@ 0x90
 8002c76:	f022 6280 	bic.w	r2, r2, #67108864	@ 0x4000000
 8002c7a:	4302      	orrs	r2, r0
 8002c7c:	f8c1 2090 	str.w	r2, [r1, #144]	@ 0x90
 8002c80:	029f      	lsls	r7, r3, #10
 8002c82:	d50c      	bpl.n	8002c9e <HAL_RCCEx_PeriphCLKConfig+0x246>
 8002c84:	4825      	ldr	r0, [pc, #148]	@ (8002d1c <HAL_RCCEx_PeriphCLKConfig+0x2c4>)
 8002c86:	6fe1      	ldr	r1, [r4, #124]	@ 0x7c
 8002c88:	f8d0 2090 	ldr.w	r2, [r0, #144]	@ 0x90
 8002c8c:	f1b1 6f00 	cmp.w	r1, #134217728	@ 0x8000000
 8002c90:	f022 6200 	bic.w	r2, r2, #134217728	@ 0x8000000
 8002c94:	bf08      	it	eq
 8002c96:	2501      	moveq	r5, #1
 8002c98:	430a      	orrs	r2, r1
 8002c9a:	f8c0 2090 	str.w	r2, [r0, #144]	@ 0x90
 8002c9e:	f013 0f08 	tst.w	r3, #8
 8002ca2:	bf18      	it	ne
 8002ca4:	2501      	movne	r5, #1
 8002ca6:	0358      	lsls	r0, r3, #13
 8002ca8:	d508      	bpl.n	8002cbc <HAL_RCCEx_PeriphCLKConfig+0x264>
 8002caa:	491c      	ldr	r1, [pc, #112]	@ (8002d1c <HAL_RCCEx_PeriphCLKConfig+0x2c4>)
 8002cac:	6f60      	ldr	r0, [r4, #116]	@ 0x74
 8002cae:	f8d1 2090 	ldr.w	r2, [r1, #144]	@ 0x90
 8002cb2:	f022 7240 	bic.w	r2, r2, #50331648	@ 0x3000000
 8002cb6:	4302      	orrs	r2, r0
 8002cb8:	f8c1 2090 	str.w	r2, [r1, #144]	@ 0x90
 8002cbc:	0219      	lsls	r1, r3, #8
 8002cbe:	d509      	bpl.n	8002cd4 <HAL_RCCEx_PeriphCLKConfig+0x27c>
 8002cc0:	4916      	ldr	r1, [pc, #88]	@ (8002d1c <HAL_RCCEx_PeriphCLKConfig+0x2c4>)
 8002cc2:	f8d4 0080 	ldr.w	r0, [r4, #128]	@ 0x80
 8002cc6:	f8d1 2090 	ldr.w	r2, [r1, #144]	@ 0x90
 8002cca:	f022 5280 	bic.w	r2, r2, #268435456	@ 0x10000000
 8002cce:	4302      	orrs	r2, r0
 8002cd0:	f8c1 2090 	str.w	r2, [r1, #144]	@ 0x90
 8002cd4:	2e01      	cmp	r6, #1
 8002cd6:	f000 80b4 	beq.w	8002e42 <HAL_RCCEx_PeriphCLKConfig+0x3ea>
 8002cda:	019a      	lsls	r2, r3, #6
 8002cdc:	f100 80b1 	bmi.w	8002e42 <HAL_RCCEx_PeriphCLKConfig+0x3ea>
 8002ce0:	2d01      	cmp	r5, #1
 8002ce2:	d176      	bne.n	8002dd2 <HAL_RCCEx_PeriphCLKConfig+0x37a>
 8002ce4:	4d0d      	ldr	r5, [pc, #52]	@ (8002d1c <HAL_RCCEx_PeriphCLKConfig+0x2c4>)
 8002ce6:	682b      	ldr	r3, [r5, #0]
 8002ce8:	f023 5380 	bic.w	r3, r3, #268435456	@ 0x10000000
 8002cec:	602b      	str	r3, [r5, #0]
 8002cee:	f7fe faa1 	bl	8001234 <HAL_GetTick>
 8002cf2:	4606      	mov	r6, r0
 8002cf4:	682b      	ldr	r3, [r5, #0]
 8002cf6:	009f      	lsls	r7, r3, #2
 8002cf8:	f100 8127 	bmi.w	8002f4a <HAL_RCCEx_PeriphCLKConfig+0x4f2>
 8002cfc:	6821      	ldr	r1, [r4, #0]
 8002cfe:	030e      	lsls	r6, r1, #12
 8002d00:	d501      	bpl.n	8002d06 <HAL_RCCEx_PeriphCLKConfig+0x2ae>
 8002d02:	6be3      	ldr	r3, [r4, #60]	@ 0x3c
 8002d04:	b11b      	cbz	r3, 8002d0e <HAL_RCCEx_PeriphCLKConfig+0x2b6>
 8002d06:	02cd      	lsls	r5, r1, #11
 8002d08:	d523      	bpl.n	8002d52 <HAL_RCCEx_PeriphCLKConfig+0x2fa>
 8002d0a:	6c23      	ldr	r3, [r4, #64]	@ 0x40
 8002d0c:	bb0b      	cbnz	r3, 8002d52 <HAL_RCCEx_PeriphCLKConfig+0x2fa>
 8002d0e:	4a03      	ldr	r2, [pc, #12]	@ (8002d1c <HAL_RCCEx_PeriphCLKConfig+0x2c4>)
 8002d10:	f8d2 3088 	ldr.w	r3, [r2, #136]	@ 0x88
 8002d14:	f8d2 0088 	ldr.w	r0, [r2, #136]	@ 0x88
 8002d18:	e004      	b.n	8002d24 <HAL_RCCEx_PeriphCLKConfig+0x2cc>
 8002d1a:	bf00      	nop
 8002d1c:	40023800 	.word	0x40023800
 8002d20:	40007000 	.word	0x40007000
 8002d24:	f403 3340 	and.w	r3, r3, #196608	@ 0x30000
 8002d28:	f000 40e0 	and.w	r0, r0, #1879048192	@ 0x70000000
 8002d2c:	4303      	orrs	r3, r0
 8002d2e:	6960      	ldr	r0, [r4, #20]
 8002d30:	ea43 1380 	orr.w	r3, r3, r0, lsl #6
 8002d34:	69a0      	ldr	r0, [r4, #24]
 8002d36:	ea43 6300 	orr.w	r3, r3, r0, lsl #24
 8002d3a:	f8c2 3088 	str.w	r3, [r2, #136]	@ 0x88
 8002d3e:	f8d2 308c 	ldr.w	r3, [r2, #140]	@ 0x8c
 8002d42:	6aa0      	ldr	r0, [r4, #40]	@ 0x28
 8002d44:	f423 53f8 	bic.w	r3, r3, #7936	@ 0x1f00
 8002d48:	3801      	subs	r0, #1
 8002d4a:	ea43 2300 	orr.w	r3, r3, r0, lsl #8
 8002d4e:	f8c2 308c 	str.w	r3, [r2, #140]	@ 0x8c
 8002d52:	0288      	lsls	r0, r1, #10
 8002d54:	d515      	bpl.n	8002d82 <HAL_RCCEx_PeriphCLKConfig+0x32a>
 8002d56:	6fe3      	ldr	r3, [r4, #124]	@ 0x7c
 8002d58:	f1b3 6f00 	cmp.w	r3, #134217728	@ 0x8000000
 8002d5c:	d111      	bne.n	8002d82 <HAL_RCCEx_PeriphCLKConfig+0x32a>
 8002d5e:	4a82      	ldr	r2, [pc, #520]	@ (8002f68 <HAL_RCCEx_PeriphCLKConfig+0x510>)
 8002d60:	f8d2 3088 	ldr.w	r3, [r2, #136]	@ 0x88
 8002d64:	f8d2 0088 	ldr.w	r0, [r2, #136]	@ 0x88
 8002d68:	f003 6370 	and.w	r3, r3, #251658240	@ 0xf000000
 8002d6c:	f000 40e0 	and.w	r0, r0, #1879048192	@ 0x70000000
 8002d70:	4303      	orrs	r3, r0
 8002d72:	6960      	ldr	r0, [r4, #20]
 8002d74:	ea43 1380 	orr.w	r3, r3, r0, lsl #6
 8002d78:	6a20      	ldr	r0, [r4, #32]
 8002d7a:	ea43 4300 	orr.w	r3, r3, r0, lsl #16
 8002d7e:	f8c2 3088 	str.w	r3, [r2, #136]	@ 0x88
 8002d82:	070a      	lsls	r2, r1, #28
 8002d84:	d519      	bpl.n	8002dba <HAL_RCCEx_PeriphCLKConfig+0x362>
 8002d86:	4a78      	ldr	r2, [pc, #480]	@ (8002f68 <HAL_RCCEx_PeriphCLKConfig+0x510>)
 8002d88:	f8d2 1088 	ldr.w	r1, [r2, #136]	@ 0x88
 8002d8c:	f8d2 3088 	ldr.w	r3, [r2, #136]	@ 0x88
 8002d90:	f001 6170 	and.w	r1, r1, #251658240	@ 0xf000000
 8002d94:	f403 3340 	and.w	r3, r3, #196608	@ 0x30000
 8002d98:	430b      	orrs	r3, r1
 8002d9a:	6961      	ldr	r1, [r4, #20]
 8002d9c:	ea43 1381 	orr.w	r3, r3, r1, lsl #6
 8002da0:	69e1      	ldr	r1, [r4, #28]
 8002da2:	ea43 7301 	orr.w	r3, r3, r1, lsl #28
 8002da6:	f8c2 3088 	str.w	r3, [r2, #136]	@ 0x88
 8002daa:	f8d2 308c 	ldr.w	r3, [r2, #140]	@ 0x8c
 8002dae:	6ae1      	ldr	r1, [r4, #44]	@ 0x2c
 8002db0:	f423 3340 	bic.w	r3, r3, #196608	@ 0x30000
 8002db4:	430b      	orrs	r3, r1
 8002db6:	f8c2 308c 	str.w	r3, [r2, #140]	@ 0x8c
 8002dba:	4c6b      	ldr	r4, [pc, #428]	@ (8002f68 <HAL_RCCEx_PeriphCLKConfig+0x510>)
 8002dbc:	6823      	ldr	r3, [r4, #0]
 8002dbe:	f043 5380 	orr.w	r3, r3, #268435456	@ 0x10000000
 8002dc2:	6023      	str	r3, [r4, #0]
 8002dc4:	f7fe fa36 	bl	8001234 <HAL_GetTick>
 8002dc8:	4605      	mov	r5, r0
 8002dca:	6823      	ldr	r3, [r4, #0]
 8002dcc:	009b      	lsls	r3, r3, #2
 8002dce:	f140 80c3 	bpl.w	8002f58 <HAL_RCCEx_PeriphCLKConfig+0x500>
 8002dd2:	2000      	movs	r0, #0
 8002dd4:	e009      	b.n	8002dea <HAL_RCCEx_PeriphCLKConfig+0x392>
 8002dd6:	2601      	movs	r6, #1
 8002dd8:	e67a      	b.n	8002ad0 <HAL_RCCEx_PeriphCLKConfig+0x78>
 8002dda:	f7fe fa2b 	bl	8001234 <HAL_GetTick>
 8002dde:	eba0 0008 	sub.w	r0, r0, r8
 8002de2:	2864      	cmp	r0, #100	@ 0x64
 8002de4:	f67f ae8c 	bls.w	8002b00 <HAL_RCCEx_PeriphCLKConfig+0xa8>
 8002de8:	2003      	movs	r0, #3
 8002dea:	b003      	add	sp, #12
 8002dec:	e8bd 83f0 	ldmia.w	sp!, {r4, r5, r6, r7, r8, r9, pc}
 8002df0:	f402 7240 	and.w	r2, r2, #768	@ 0x300
 8002df4:	4293      	cmp	r3, r2
 8002df6:	f43f ae8e 	beq.w	8002b16 <HAL_RCCEx_PeriphCLKConfig+0xbe>
 8002dfa:	6f3b      	ldr	r3, [r7, #112]	@ 0x70
 8002dfc:	6f3a      	ldr	r2, [r7, #112]	@ 0x70
 8002dfe:	f423 7340 	bic.w	r3, r3, #768	@ 0x300
 8002e02:	f442 3280 	orr.w	r2, r2, #65536	@ 0x10000
 8002e06:	673a      	str	r2, [r7, #112]	@ 0x70
 8002e08:	6f3a      	ldr	r2, [r7, #112]	@ 0x70
 8002e0a:	f422 3280 	bic.w	r2, r2, #65536	@ 0x10000
 8002e0e:	673a      	str	r2, [r7, #112]	@ 0x70
 8002e10:	673b      	str	r3, [r7, #112]	@ 0x70
 8002e12:	6f3b      	ldr	r3, [r7, #112]	@ 0x70
 8002e14:	07db      	lsls	r3, r3, #31
 8002e16:	f57f ae7e 	bpl.w	8002b16 <HAL_RCCEx_PeriphCLKConfig+0xbe>
 8002e1a:	f7fe fa0b 	bl	8001234 <HAL_GetTick>
 8002e1e:	f241 3988 	movw	r9, #5000	@ 0x1388
 8002e22:	4680      	mov	r8, r0
 8002e24:	6f3b      	ldr	r3, [r7, #112]	@ 0x70
 8002e26:	0798      	lsls	r0, r3, #30
 8002e28:	f53f ae75 	bmi.w	8002b16 <HAL_RCCEx_PeriphCLKConfig+0xbe>
 8002e2c:	f7fe fa02 	bl	8001234 <HAL_GetTick>
 8002e30:	eba0 0008 	sub.w	r0, r0, r8
 8002e34:	4548      	cmp	r0, r9
 8002e36:	d9f5      	bls.n	8002e24 <HAL_RCCEx_PeriphCLKConfig+0x3cc>
 8002e38:	e7d6      	b.n	8002de8 <HAL_RCCEx_PeriphCLKConfig+0x390>
 8002e3a:	6891      	ldr	r1, [r2, #8]
 8002e3c:	f421 11f8 	bic.w	r1, r1, #2031616	@ 0x1f0000
 8002e40:	e679      	b.n	8002b36 <HAL_RCCEx_PeriphCLKConfig+0xde>
 8002e42:	4e49      	ldr	r6, [pc, #292]	@ (8002f68 <HAL_RCCEx_PeriphCLKConfig+0x510>)
 8002e44:	6833      	ldr	r3, [r6, #0]
 8002e46:	f023 6380 	bic.w	r3, r3, #67108864	@ 0x4000000
 8002e4a:	6033      	str	r3, [r6, #0]
 8002e4c:	f7fe f9f2 	bl	8001234 <HAL_GetTick>
 8002e50:	4607      	mov	r7, r0
 8002e52:	6833      	ldr	r3, [r6, #0]
 8002e54:	011b      	lsls	r3, r3, #4
 8002e56:	d472      	bmi.n	8002f3e <HAL_RCCEx_PeriphCLKConfig+0x4e6>
 8002e58:	6822      	ldr	r2, [r4, #0]
 8002e5a:	07d7      	lsls	r7, r2, #31
 8002e5c:	d512      	bpl.n	8002e84 <HAL_RCCEx_PeriphCLKConfig+0x42c>
 8002e5e:	6b63      	ldr	r3, [r4, #52]	@ 0x34
 8002e60:	b983      	cbnz	r3, 8002e84 <HAL_RCCEx_PeriphCLKConfig+0x42c>
 8002e62:	f8d6 3084 	ldr.w	r3, [r6, #132]	@ 0x84
 8002e66:	f8d6 1084 	ldr.w	r1, [r6, #132]	@ 0x84
 8002e6a:	f403 3340 	and.w	r3, r3, #196608	@ 0x30000
 8002e6e:	f001 6170 	and.w	r1, r1, #251658240	@ 0xf000000
 8002e72:	430b      	orrs	r3, r1
 8002e74:	6861      	ldr	r1, [r4, #4]
 8002e76:	ea43 1381 	orr.w	r3, r3, r1, lsl #6
 8002e7a:	68a1      	ldr	r1, [r4, #8]
 8002e7c:	ea43 7301 	orr.w	r3, r3, r1, lsl #28
 8002e80:	f8c6 3084 	str.w	r3, [r6, #132]	@ 0x84
 8002e84:	0316      	lsls	r6, r2, #12
 8002e86:	d503      	bpl.n	8002e90 <HAL_RCCEx_PeriphCLKConfig+0x438>
 8002e88:	6be3      	ldr	r3, [r4, #60]	@ 0x3c
 8002e8a:	f5b3 1f80 	cmp.w	r3, #1048576	@ 0x100000
 8002e8e:	d005      	beq.n	8002e9c <HAL_RCCEx_PeriphCLKConfig+0x444>
 8002e90:	02d0      	lsls	r0, r2, #11
 8002e92:	d51e      	bpl.n	8002ed2 <HAL_RCCEx_PeriphCLKConfig+0x47a>
 8002e94:	6c23      	ldr	r3, [r4, #64]	@ 0x40
 8002e96:	f5b3 0f80 	cmp.w	r3, #4194304	@ 0x400000
 8002e9a:	d11a      	bne.n	8002ed2 <HAL_RCCEx_PeriphCLKConfig+0x47a>
 8002e9c:	4932      	ldr	r1, [pc, #200]	@ (8002f68 <HAL_RCCEx_PeriphCLKConfig+0x510>)
 8002e9e:	f8d1 3084 	ldr.w	r3, [r1, #132]	@ 0x84
 8002ea2:	f8d1 0084 	ldr.w	r0, [r1, #132]	@ 0x84
 8002ea6:	f403 3340 	and.w	r3, r3, #196608	@ 0x30000
 8002eaa:	f000 40e0 	and.w	r0, r0, #1879048192	@ 0x70000000
 8002eae:	4303      	orrs	r3, r0
 8002eb0:	6860      	ldr	r0, [r4, #4]
 8002eb2:	ea43 1380 	orr.w	r3, r3, r0, lsl #6
 8002eb6:	68e0      	ldr	r0, [r4, #12]
 8002eb8:	ea43 6300 	orr.w	r3, r3, r0, lsl #24
 8002ebc:	f8c1 3084 	str.w	r3, [r1, #132]	@ 0x84
 8002ec0:	f8d1 008c 	ldr.w	r0, [r1, #140]	@ 0x8c
 8002ec4:	6a63      	ldr	r3, [r4, #36]	@ 0x24
 8002ec6:	f020 001f 	bic.w	r0, r0, #31
 8002eca:	3b01      	subs	r3, #1
 8002ecc:	4303      	orrs	r3, r0
 8002ece:	f8c1 308c 	str.w	r3, [r1, #140]	@ 0x8c
 8002ed2:	01d1      	lsls	r1, r2, #7
 8002ed4:	d511      	bpl.n	8002efa <HAL_RCCEx_PeriphCLKConfig+0x4a2>
 8002ed6:	4924      	ldr	r1, [pc, #144]	@ (8002f68 <HAL_RCCEx_PeriphCLKConfig+0x510>)
 8002ed8:	f8d1 3084 	ldr.w	r3, [r1, #132]	@ 0x84
 8002edc:	f8d1 0084 	ldr.w	r0, [r1, #132]	@ 0x84
 8002ee0:	f003 6370 	and.w	r3, r3, #251658240	@ 0xf000000
 8002ee4:	f000 40e0 	and.w	r0, r0, #1879048192	@ 0x70000000
 8002ee8:	4303      	orrs	r3, r0
 8002eea:	6860      	ldr	r0, [r4, #4]
 8002eec:	ea43 1380 	orr.w	r3, r3, r0, lsl #6
 8002ef0:	6920      	ldr	r0, [r4, #16]
 8002ef2:	ea43 4300 	orr.w	r3, r3, r0, lsl #16
 8002ef6:	f8c1 3084 	str.w	r3, [r1, #132]	@ 0x84
 8002efa:	0192      	lsls	r2, r2, #6
 8002efc:	d50d      	bpl.n	8002f1a <HAL_RCCEx_PeriphCLKConfig+0x4c2>
 8002efe:	6923      	ldr	r3, [r4, #16]
 8002f00:	6862      	ldr	r2, [r4, #4]
 8002f02:	041b      	lsls	r3, r3, #16
 8002f04:	ea43 1382 	orr.w	r3, r3, r2, lsl #6
 8002f08:	68e2      	ldr	r2, [r4, #12]
 8002f0a:	ea43 6302 	orr.w	r3, r3, r2, lsl #24
 8002f0e:	68a2      	ldr	r2, [r4, #8]
 8002f10:	ea43 7302 	orr.w	r3, r3, r2, lsl #28
 8002f14:	4a14      	ldr	r2, [pc, #80]	@ (8002f68 <HAL_RCCEx_PeriphCLKConfig+0x510>)
 8002f16:	f8c2 3084 	str.w	r3, [r2, #132]	@ 0x84
 8002f1a:	4e13      	ldr	r6, [pc, #76]	@ (8002f68 <HAL_RCCEx_PeriphCLKConfig+0x510>)
 8002f1c:	6833      	ldr	r3, [r6, #0]
 8002f1e:	f043 6380 	orr.w	r3, r3, #67108864	@ 0x4000000
 8002f22:	6033      	str	r3, [r6, #0]
 8002f24:	f7fe f986 	bl	8001234 <HAL_GetTick>
 8002f28:	4607      	mov	r7, r0
 8002f2a:	6833      	ldr	r3, [r6, #0]
 8002f2c:	011b      	lsls	r3, r3, #4
 8002f2e:	f53f aed7 	bmi.w	8002ce0 <HAL_RCCEx_PeriphCLKConfig+0x288>
 8002f32:	f7fe f97f 	bl	8001234 <HAL_GetTick>
 8002f36:	1bc0      	subs	r0, r0, r7
 8002f38:	2864      	cmp	r0, #100	@ 0x64
 8002f3a:	d9f6      	bls.n	8002f2a <HAL_RCCEx_PeriphCLKConfig+0x4d2>
 8002f3c:	e754      	b.n	8002de8 <HAL_RCCEx_PeriphCLKConfig+0x390>
 8002f3e:	f7fe f979 	bl	8001234 <HAL_GetTick>
 8002f42:	1bc0      	subs	r0, r0, r7
 8002f44:	2864      	cmp	r0, #100	@ 0x64
 8002f46:	d984      	bls.n	8002e52 <HAL_RCCEx_PeriphCLKConfig+0x3fa>
 8002f48:	e74e      	b.n	8002de8 <HAL_RCCEx_PeriphCLKConfig+0x390>
 8002f4a:	f7fe f973 	bl	8001234 <HAL_GetTick>
 8002f4e:	1b80      	subs	r0, r0, r6
 8002f50:	2864      	cmp	r0, #100	@ 0x64
 8002f52:	f67f aecf 	bls.w	8002cf4 <HAL_RCCEx_PeriphCLKConfig+0x29c>
 8002f56:	e747      	b.n	8002de8 <HAL_RCCEx_PeriphCLKConfig+0x390>
 8002f58:	f7fe f96c 	bl	8001234 <HAL_GetTick>
 8002f5c:	1b40      	subs	r0, r0, r5
 8002f5e:	2864      	cmp	r0, #100	@ 0x64
 8002f60:	f67f af33 	bls.w	8002dca <HAL_RCCEx_PeriphCLKConfig+0x372>
 8002f64:	e740      	b.n	8002de8 <HAL_RCCEx_PeriphCLKConfig+0x390>
 8002f66:	bf00      	nop
 8002f68:	40023800 	.word	0x40023800

08002f6c <HAL_RCCEx_GetPeriphCLKFreq>:
 8002f6c:	f5b0 2f00 	cmp.w	r0, #524288	@ 0x80000
 8002f70:	d140      	bne.n	8002ff4 <HAL_RCCEx_GetPeriphCLKFreq+0x88>
 8002f72:	4b2e      	ldr	r3, [pc, #184]	@ (800302c <HAL_RCCEx_GetPeriphCLKFreq+0xc0>)
 8002f74:	f8d3 208c 	ldr.w	r2, [r3, #140]	@ 0x8c
 8002f78:	f402 1240 	and.w	r2, r2, #3145728	@ 0x300000
 8002f7c:	f5b2 1f80 	cmp.w	r2, #1048576	@ 0x100000
 8002f80:	d046      	beq.n	8003010 <HAL_RCCEx_GetPeriphCLKFreq+0xa4>
 8002f82:	f5b2 1f00 	cmp.w	r2, #2097152	@ 0x200000
 8002f86:	d04c      	beq.n	8003022 <HAL_RCCEx_GetPeriphCLKFreq+0xb6>
 8002f88:	2a00      	cmp	r2, #0
 8002f8a:	d14c      	bne.n	8003026 <HAL_RCCEx_GetPeriphCLKFreq+0xba>
 8002f8c:	685a      	ldr	r2, [r3, #4]
 8002f8e:	f412 0f80 	tst.w	r2, #4194304	@ 0x400000
 8002f92:	685a      	ldr	r2, [r3, #4]
 8002f94:	bf08      	it	eq
 8002f96:	4b26      	ldreq	r3, [pc, #152]	@ (8003030 <HAL_RCCEx_GetPeriphCLKFreq+0xc4>)
 8002f98:	f002 023f 	and.w	r2, r2, #63	@ 0x3f
 8002f9c:	bf18      	it	ne
 8002f9e:	4b25      	ldrne	r3, [pc, #148]	@ (8003034 <HAL_RCCEx_GetPeriphCLKFreq+0xc8>)
 8002fa0:	fbb3 f3f2 	udiv	r3, r3, r2
 8002fa4:	4a21      	ldr	r2, [pc, #132]	@ (800302c <HAL_RCCEx_GetPeriphCLKFreq+0xc0>)
 8002fa6:	f8d2 1088 	ldr.w	r1, [r2, #136]	@ 0x88
 8002faa:	f8d2 0088 	ldr.w	r0, [r2, #136]	@ 0x88
 8002fae:	f3c0 1088 	ubfx	r0, r0, #6, #9
 8002fb2:	4358      	muls	r0, r3
 8002fb4:	f3c1 6303 	ubfx	r3, r1, #24, #4
 8002fb8:	fbb0 f0f3 	udiv	r0, r0, r3
 8002fbc:	f8d2 308c 	ldr.w	r3, [r2, #140]	@ 0x8c
 8002fc0:	f3c3 2304 	ubfx	r3, r3, #8, #5
 8002fc4:	e012      	b.n	8002fec <HAL_RCCEx_GetPeriphCLKFreq+0x80>
 8002fc6:	4b1b      	ldr	r3, [pc, #108]	@ (8003034 <HAL_RCCEx_GetPeriphCLKFreq+0xc8>)
 8002fc8:	fbb3 f3f2 	udiv	r3, r3, r2
 8002fcc:	4a17      	ldr	r2, [pc, #92]	@ (800302c <HAL_RCCEx_GetPeriphCLKFreq+0xc0>)
 8002fce:	f8d2 1084 	ldr.w	r1, [r2, #132]	@ 0x84
 8002fd2:	f8d2 0084 	ldr.w	r0, [r2, #132]	@ 0x84
 8002fd6:	f3c0 1088 	ubfx	r0, r0, #6, #9
 8002fda:	4358      	muls	r0, r3
 8002fdc:	f3c1 6303 	ubfx	r3, r1, #24, #4
 8002fe0:	fbb0 f0f3 	udiv	r0, r0, r3
 8002fe4:	f8d2 308c 	ldr.w	r3, [r2, #140]	@ 0x8c
 8002fe8:	f003 031f 	and.w	r3, r3, #31
 8002fec:	3301      	adds	r3, #1
 8002fee:	fbb0 f0f3 	udiv	r0, r0, r3
 8002ff2:	4770      	bx	lr
 8002ff4:	f5b0 1f80 	cmp.w	r0, #1048576	@ 0x100000
 8002ff8:	d115      	bne.n	8003026 <HAL_RCCEx_GetPeriphCLKFreq+0xba>
 8002ffa:	4b0c      	ldr	r3, [pc, #48]	@ (800302c <HAL_RCCEx_GetPeriphCLKFreq+0xc0>)
 8002ffc:	f8d3 208c 	ldr.w	r2, [r3, #140]	@ 0x8c
 8003000:	f402 0240 	and.w	r2, r2, #12582912	@ 0xc00000
 8003004:	f5b2 0f80 	cmp.w	r2, #4194304	@ 0x400000
 8003008:	d002      	beq.n	8003010 <HAL_RCCEx_GetPeriphCLKFreq+0xa4>
 800300a:	f5b2 0f00 	cmp.w	r2, #8388608	@ 0x800000
 800300e:	e7ba      	b.n	8002f86 <HAL_RCCEx_GetPeriphCLKFreq+0x1a>
 8003010:	685a      	ldr	r2, [r3, #4]
 8003012:	f412 0f80 	tst.w	r2, #4194304	@ 0x400000
 8003016:	685a      	ldr	r2, [r3, #4]
 8003018:	f002 023f 	and.w	r2, r2, #63	@ 0x3f
 800301c:	d1d3      	bne.n	8002fc6 <HAL_RCCEx_GetPeriphCLKFreq+0x5a>
 800301e:	4b04      	ldr	r3, [pc, #16]	@ (8003030 <HAL_RCCEx_GetPeriphCLKFreq+0xc4>)
 8003020:	e7d2      	b.n	8002fc8 <HAL_RCCEx_GetPeriphCLKFreq+0x5c>
 8003022:	4805      	ldr	r0, [pc, #20]	@ (8003038 <HAL_RCCEx_GetPeriphCLKFreq+0xcc>)
 8003024:	4770      	bx	lr
 8003026:	2000      	movs	r0, #0
 8003028:	4770      	bx	lr
 800302a:	bf00      	nop
 800302c:	40023800 	.word	0x40023800
 8003030:	00f42400 	.word	0x00f42400
 8003034:	017d7840 	.word	0x017d7840
 8003038:	00bb8000 	.word	0x00bb8000

0800303c <HAL_RTC_WaitForSynchro>:
 800303c:	b538      	push	{r3, r4, r5, lr}
 800303e:	4a0a      	ldr	r2, [pc, #40]	@ (8003068 <HAL_RTC_WaitForSynchro+0x2c>)
 8003040:	4604      	mov	r4, r0
 8003042:	6803      	ldr	r3, [r0, #0]
 8003044:	60da      	str	r2, [r3, #12]
 8003046:	f7fe f8f5 	bl	8001234 <HAL_GetTick>
 800304a:	4605      	mov	r5, r0
 800304c:	6823      	ldr	r3, [r4, #0]
 800304e:	68db      	ldr	r3, [r3, #12]
 8003050:	069b      	lsls	r3, r3, #26
 8003052:	d501      	bpl.n	8003058 <HAL_RTC_WaitForSynchro+0x1c>
 8003054:	2000      	movs	r0, #0
 8003056:	bd38      	pop	{r3, r4, r5, pc}
 8003058:	f7fe f8ec 	bl	8001234 <HAL_GetTick>
 800305c:	1b40      	subs	r0, r0, r5
 800305e:	f5b0 7f7a 	cmp.w	r0, #1000	@ 0x3e8
 8003062:	d9f3      	bls.n	800304c <HAL_RTC_WaitForSynchro+0x10>
 8003064:	2003      	movs	r0, #3
 8003066:	e7f6      	b.n	8003056 <HAL_RTC_WaitForSynchro+0x1a>
 8003068:	0001ff5f 	.word	0x0001ff5f

0800306c <RTC_EnterInitMode>:
 800306c:	6803      	ldr	r3, [r0, #0]
 800306e:	b570      	push	{r4, r5, r6, lr}
 8003070:	68dc      	ldr	r4, [r3, #12]
 8003072:	4605      	mov	r5, r0
 8003074:	f014 0440 	ands.w	r4, r4, #64	@ 0x40
 8003078:	d117      	bne.n	80030aa <RTC_EnterInitMode+0x3e>
 800307a:	68da      	ldr	r2, [r3, #12]
 800307c:	f042 0280 	orr.w	r2, r2, #128	@ 0x80
 8003080:	60da      	str	r2, [r3, #12]
 8003082:	f7fe f8d7 	bl	8001234 <HAL_GetTick>
 8003086:	4606      	mov	r6, r0
 8003088:	682b      	ldr	r3, [r5, #0]
 800308a:	68db      	ldr	r3, [r3, #12]
 800308c:	065b      	lsls	r3, r3, #25
 800308e:	d400      	bmi.n	8003092 <RTC_EnterInitMode+0x26>
 8003090:	b10c      	cbz	r4, 8003096 <RTC_EnterInitMode+0x2a>
 8003092:	4620      	mov	r0, r4
 8003094:	bd70      	pop	{r4, r5, r6, pc}
 8003096:	f7fe f8cd 	bl	8001234 <HAL_GetTick>
 800309a:	1b80      	subs	r0, r0, r6
 800309c:	f5b0 7f7a 	cmp.w	r0, #1000	@ 0x3e8
 80030a0:	d9f2      	bls.n	8003088 <RTC_EnterInitMode+0x1c>
 80030a2:	2304      	movs	r3, #4
 80030a4:	2401      	movs	r4, #1
 80030a6:	776b      	strb	r3, [r5, #29]
 80030a8:	e7ee      	b.n	8003088 <RTC_EnterInitMode+0x1c>
 80030aa:	2400      	movs	r4, #0
 80030ac:	e7f1      	b.n	8003092 <RTC_EnterInitMode+0x26>

080030ae <RTC_ExitInitMode>:
 80030ae:	6803      	ldr	r3, [r0, #0]
 80030b0:	68da      	ldr	r2, [r3, #12]
 80030b2:	f022 0280 	bic.w	r2, r2, #128	@ 0x80
 80030b6:	b510      	push	{r4, lr}
 80030b8:	60da      	str	r2, [r3, #12]
 80030ba:	4604      	mov	r4, r0
 80030bc:	689b      	ldr	r3, [r3, #8]
 80030be:	069b      	lsls	r3, r3, #26
 80030c0:	d501      	bpl.n	80030c6 <RTC_ExitInitMode+0x18>
 80030c2:	2000      	movs	r0, #0
 80030c4:	bd10      	pop	{r4, pc}
 80030c6:	f7ff ffb9 	bl	800303c <HAL_RTC_WaitForSynchro>
 80030ca:	2800      	cmp	r0, #0
 80030cc:	d0f9      	beq.n	80030c2 <RTC_ExitInitMode+0x14>
 80030ce:	2304      	movs	r3, #4
 80030d0:	2001      	movs	r0, #1
 80030d2:	7763      	strb	r3, [r4, #29]
 80030d4:	e7f6      	b.n	80030c4 <RTC_ExitInitMode+0x16>

080030d6 <HAL_RTC_Init>:
 80030d6:	b510      	push	{r4, lr}
 80030d8:	4604      	mov	r4, r0
 80030da:	2800      	cmp	r0, #0
 80030dc:	d041      	beq.n	8003162 <HAL_RTC_Init+0x8c>
 80030de:	7f43      	ldrb	r3, [r0, #29]
 80030e0:	f003 02ff 	and.w	r2, r3, #255	@ 0xff
 80030e4:	b913      	cbnz	r3, 80030ec <HAL_RTC_Init+0x16>
 80030e6:	7702      	strb	r2, [r0, #28]
 80030e8:	f7fd ff0c 	bl	8000f04 <HAL_RTC_MspInit>
 80030ec:	2302      	movs	r3, #2
 80030ee:	7763      	strb	r3, [r4, #29]
 80030f0:	6823      	ldr	r3, [r4, #0]
 80030f2:	68da      	ldr	r2, [r3, #12]
 80030f4:	06d2      	lsls	r2, r2, #27
 80030f6:	d503      	bpl.n	8003100 <HAL_RTC_Init+0x2a>
 80030f8:	2301      	movs	r3, #1
 80030fa:	2000      	movs	r0, #0
 80030fc:	7763      	strb	r3, [r4, #29]
 80030fe:	bd10      	pop	{r4, pc}
 8003100:	22ca      	movs	r2, #202	@ 0xca
 8003102:	4620      	mov	r0, r4
 8003104:	625a      	str	r2, [r3, #36]	@ 0x24
 8003106:	2253      	movs	r2, #83	@ 0x53
 8003108:	625a      	str	r2, [r3, #36]	@ 0x24
 800310a:	f7ff ffaf 	bl	800306c <RTC_EnterInitMode>
 800310e:	bb10      	cbnz	r0, 8003156 <HAL_RTC_Init+0x80>
 8003110:	6823      	ldr	r3, [r4, #0]
 8003112:	6920      	ldr	r0, [r4, #16]
 8003114:	689a      	ldr	r2, [r3, #8]
 8003116:	f422 02e0 	bic.w	r2, r2, #7340032	@ 0x700000
 800311a:	f022 0240 	bic.w	r2, r2, #64	@ 0x40
 800311e:	609a      	str	r2, [r3, #8]
 8003120:	6862      	ldr	r2, [r4, #4]
 8003122:	6899      	ldr	r1, [r3, #8]
 8003124:	4302      	orrs	r2, r0
 8003126:	6960      	ldr	r0, [r4, #20]
 8003128:	4302      	orrs	r2, r0
 800312a:	4620      	mov	r0, r4
 800312c:	430a      	orrs	r2, r1
 800312e:	68a1      	ldr	r1, [r4, #8]
 8003130:	609a      	str	r2, [r3, #8]
 8003132:	68e2      	ldr	r2, [r4, #12]
 8003134:	611a      	str	r2, [r3, #16]
 8003136:	691a      	ldr	r2, [r3, #16]
 8003138:	ea42 4201 	orr.w	r2, r2, r1, lsl #16
 800313c:	611a      	str	r2, [r3, #16]
 800313e:	f7ff ffb6 	bl	80030ae <RTC_ExitInitMode>
 8003142:	b940      	cbnz	r0, 8003156 <HAL_RTC_Init+0x80>
 8003144:	6823      	ldr	r3, [r4, #0]
 8003146:	69a1      	ldr	r1, [r4, #24]
 8003148:	6cda      	ldr	r2, [r3, #76]	@ 0x4c
 800314a:	f022 0208 	bic.w	r2, r2, #8
 800314e:	64da      	str	r2, [r3, #76]	@ 0x4c
 8003150:	6cda      	ldr	r2, [r3, #76]	@ 0x4c
 8003152:	430a      	orrs	r2, r1
 8003154:	64da      	str	r2, [r3, #76]	@ 0x4c
 8003156:	6823      	ldr	r3, [r4, #0]
 8003158:	22ff      	movs	r2, #255	@ 0xff
 800315a:	625a      	str	r2, [r3, #36]	@ 0x24
 800315c:	2800      	cmp	r0, #0
 800315e:	d0cb      	beq.n	80030f8 <HAL_RTC_Init+0x22>
 8003160:	e7cd      	b.n	80030fe <HAL_RTC_Init+0x28>
 8003162:	2001      	movs	r0, #1
 8003164:	e7cb      	b.n	80030fe <HAL_RTC_Init+0x28>

08003166 <RTC_ByteToBcd2>:
 8003166:	2300      	movs	r3, #0
 8003168:	2809      	cmp	r0, #9
 800316a:	d803      	bhi.n	8003174 <RTC_ByteToBcd2+0xe>
 800316c:	ea40 1003 	orr.w	r0, r0, r3, lsl #4
 8003170:	b2c0      	uxtb	r0, r0
 8003172:	4770      	bx	lr
 8003174:	380a      	subs	r0, #10
 8003176:	3301      	adds	r3, #1
 8003178:	b2c0      	uxtb	r0, r0
 800317a:	e7f5      	b.n	8003168 <RTC_ByteToBcd2+0x2>

0800317c <HAL_RTC_SetTime>:
 800317c:	e92d 41f0 	stmdb	sp!, {r4, r5, r6, r7, r8, lr}
 8003180:	7f03      	ldrb	r3, [r0, #28]
 8003182:	4606      	mov	r6, r0
 8003184:	460f      	mov	r7, r1
 8003186:	2002      	movs	r0, #2
 8003188:	2b01      	cmp	r3, #1
 800318a:	d041      	beq.n	8003210 <HAL_RTC_SetTime+0x94>
 800318c:	2301      	movs	r3, #1
 800318e:	6831      	ldr	r1, [r6, #0]
 8003190:	7770      	strb	r0, [r6, #29]
 8003192:	7733      	strb	r3, [r6, #28]
 8003194:	7838      	ldrb	r0, [r7, #0]
 8003196:	787d      	ldrb	r5, [r7, #1]
 8003198:	78bc      	ldrb	r4, [r7, #2]
 800319a:	688b      	ldr	r3, [r1, #8]
 800319c:	2a00      	cmp	r2, #0
 800319e:	d139      	bne.n	8003214 <HAL_RTC_SetTime+0x98>
 80031a0:	f013 0340 	ands.w	r3, r3, #64	@ 0x40
 80031a4:	bf08      	it	eq
 80031a6:	70fb      	strbeq	r3, [r7, #3]
 80031a8:	f7ff ffdd 	bl	8003166 <RTC_ByteToBcd2>
 80031ac:	4680      	mov	r8, r0
 80031ae:	4628      	mov	r0, r5
 80031b0:	f7ff ffd9 	bl	8003166 <RTC_ByteToBcd2>
 80031b4:	4602      	mov	r2, r0
 80031b6:	4620      	mov	r0, r4
 80031b8:	f7ff ffd5 	bl	8003166 <RTC_ByteToBcd2>
 80031bc:	78fb      	ldrb	r3, [r7, #3]
 80031be:	ea40 5383 	orr.w	r3, r0, r3, lsl #22
 80031c2:	ea43 4308 	orr.w	r3, r3, r8, lsl #16
 80031c6:	ea43 2402 	orr.w	r4, r3, r2, lsl #8
 80031ca:	23ca      	movs	r3, #202	@ 0xca
 80031cc:	4630      	mov	r0, r6
 80031ce:	624b      	str	r3, [r1, #36]	@ 0x24
 80031d0:	2353      	movs	r3, #83	@ 0x53
 80031d2:	624b      	str	r3, [r1, #36]	@ 0x24
 80031d4:	f7ff ff4a 	bl	800306c <RTC_EnterInitMode>
 80031d8:	b9a8      	cbnz	r0, 8003206 <HAL_RTC_SetTime+0x8a>
 80031da:	f004 347f 	and.w	r4, r4, #2139062143	@ 0x7f7f7f7f
 80031de:	6832      	ldr	r2, [r6, #0]
 80031e0:	f024 44fe 	bic.w	r4, r4, #2130706432	@ 0x7f000000
 80031e4:	6014      	str	r4, [r2, #0]
 80031e6:	6893      	ldr	r3, [r2, #8]
 80031e8:	f423 2380 	bic.w	r3, r3, #262144	@ 0x40000
 80031ec:	6093      	str	r3, [r2, #8]
 80031ee:	6891      	ldr	r1, [r2, #8]
 80031f0:	e9d7 3003 	ldrd	r3, r0, [r7, #12]
 80031f4:	4303      	orrs	r3, r0
 80031f6:	4630      	mov	r0, r6
 80031f8:	430b      	orrs	r3, r1
 80031fa:	6093      	str	r3, [r2, #8]
 80031fc:	f7ff ff57 	bl	80030ae <RTC_ExitInitMode>
 8003200:	b908      	cbnz	r0, 8003206 <HAL_RTC_SetTime+0x8a>
 8003202:	2301      	movs	r3, #1
 8003204:	7773      	strb	r3, [r6, #29]
 8003206:	6833      	ldr	r3, [r6, #0]
 8003208:	22ff      	movs	r2, #255	@ 0xff
 800320a:	625a      	str	r2, [r3, #36]	@ 0x24
 800320c:	2300      	movs	r3, #0
 800320e:	7733      	strb	r3, [r6, #28]
 8003210:	e8bd 81f0 	ldmia.w	sp!, {r4, r5, r6, r7, r8, pc}
 8003214:	022d      	lsls	r5, r5, #8
 8003216:	f013 0340 	ands.w	r3, r3, #64	@ 0x40
 800321a:	ea45 4500 	orr.w	r5, r5, r0, lsl #16
 800321e:	bf08      	it	eq
 8003220:	70fb      	strbeq	r3, [r7, #3]
 8003222:	78fa      	ldrb	r2, [r7, #3]
 8003224:	ea45 0304 	orr.w	r3, r5, r4
 8003228:	ea43 5482 	orr.w	r4, r3, r2, lsl #22
 800322c:	e7cd      	b.n	80031ca <HAL_RTC_SetTime+0x4e>

0800322e <HAL_RTC_SetDate>:
 800322e:	b5f8      	push	{r3, r4, r5, r6, r7, lr}
 8003230:	7f03      	ldrb	r3, [r0, #28]
 8003232:	4605      	mov	r5, r0
 8003234:	2002      	movs	r0, #2
 8003236:	2b01      	cmp	r3, #1
 8003238:	d027      	beq.n	800328a <HAL_RTC_SetDate+0x5c>
 800323a:	2301      	movs	r3, #1
 800323c:	7768      	strb	r0, [r5, #29]
 800323e:	772b      	strb	r3, [r5, #28]
 8003240:	780e      	ldrb	r6, [r1, #0]
 8003242:	78c8      	ldrb	r0, [r1, #3]
 8003244:	784c      	ldrb	r4, [r1, #1]
 8003246:	0376      	lsls	r6, r6, #13
 8003248:	788f      	ldrb	r7, [r1, #2]
 800324a:	b1fa      	cbz	r2, 800328c <HAL_RTC_SetDate+0x5e>
 800324c:	ea46 4300 	orr.w	r3, r6, r0, lsl #16
 8003250:	433b      	orrs	r3, r7
 8003252:	ea43 2404 	orr.w	r4, r3, r4, lsl #8
 8003256:	682b      	ldr	r3, [r5, #0]
 8003258:	22ca      	movs	r2, #202	@ 0xca
 800325a:	4628      	mov	r0, r5
 800325c:	625a      	str	r2, [r3, #36]	@ 0x24
 800325e:	2253      	movs	r2, #83	@ 0x53
 8003260:	625a      	str	r2, [r3, #36]	@ 0x24
 8003262:	f7ff ff03 	bl	800306c <RTC_EnterInitMode>
 8003266:	b958      	cbnz	r0, 8003280 <HAL_RTC_SetDate+0x52>
 8003268:	f024 447f 	bic.w	r4, r4, #4278190080	@ 0xff000000
 800326c:	682a      	ldr	r2, [r5, #0]
 800326e:	4628      	mov	r0, r5
 8003270:	f024 04c0 	bic.w	r4, r4, #192	@ 0xc0
 8003274:	6054      	str	r4, [r2, #4]
 8003276:	f7ff ff1a 	bl	80030ae <RTC_ExitInitMode>
 800327a:	b908      	cbnz	r0, 8003280 <HAL_RTC_SetDate+0x52>
 800327c:	2301      	movs	r3, #1
 800327e:	776b      	strb	r3, [r5, #29]
 8003280:	682b      	ldr	r3, [r5, #0]
 8003282:	22ff      	movs	r2, #255	@ 0xff
 8003284:	625a      	str	r2, [r3, #36]	@ 0x24
 8003286:	2300      	movs	r3, #0
 8003288:	772b      	strb	r3, [r5, #28]
 800328a:	bdf8      	pop	{r3, r4, r5, r6, r7, pc}
 800328c:	06e3      	lsls	r3, r4, #27
 800328e:	bf42      	ittt	mi
 8003290:	f024 0410 	bicmi.w	r4, r4, #16
 8003294:	340a      	addmi	r4, #10
 8003296:	704c      	strbmi	r4, [r1, #1]
 8003298:	f7ff ff65 	bl	8003166 <RTC_ByteToBcd2>
 800329c:	4604      	mov	r4, r0
 800329e:	7848      	ldrb	r0, [r1, #1]
 80032a0:	f7ff ff61 	bl	8003166 <RTC_ByteToBcd2>
 80032a4:	4602      	mov	r2, r0
 80032a6:	4638      	mov	r0, r7
 80032a8:	f7ff ff5d 	bl	8003166 <RTC_ByteToBcd2>
 80032ac:	ea40 0306 	orr.w	r3, r0, r6
 80032b0:	ea43 4304 	orr.w	r3, r3, r4, lsl #16
 80032b4:	ea43 2402 	orr.w	r4, r3, r2, lsl #8
 80032b8:	e7cd      	b.n	8003256 <HAL_RTC_SetDate+0x28>

080032ba <HAL_RTC_SetAlarm>:
 80032ba:	e92d 43f8 	stmdb	sp!, {r3, r4, r5, r6, r7, r8, r9, lr}
 80032be:	7f03      	ldrb	r3, [r0, #28]
 80032c0:	4604      	mov	r4, r0
 80032c2:	2002      	movs	r0, #2
 80032c4:	2b01      	cmp	r3, #1
 80032c6:	d07c      	beq.n	80033c2 <HAL_RTC_SetAlarm+0x108>
 80032c8:	2301      	movs	r3, #1
 80032ca:	6826      	ldr	r6, [r4, #0]
 80032cc:	7760      	strb	r0, [r4, #29]
 80032ce:	7723      	strb	r3, [r4, #28]
 80032d0:	69cd      	ldr	r5, [r1, #28]
 80032d2:	7808      	ldrb	r0, [r1, #0]
 80032d4:	f891 8001 	ldrb.w	r8, [r1, #1]
 80032d8:	f891 9002 	ldrb.w	r9, [r1, #2]
 80032dc:	68b3      	ldr	r3, [r6, #8]
 80032de:	2a00      	cmp	r2, #0
 80032e0:	d14d      	bne.n	800337e <HAL_RTC_SetAlarm+0xc4>
 80032e2:	f013 0340 	ands.w	r3, r3, #64	@ 0x40
 80032e6:	bf08      	it	eq
 80032e8:	70cb      	strbeq	r3, [r1, #3]
 80032ea:	f7ff ff3c 	bl	8003166 <RTC_ByteToBcd2>
 80032ee:	4607      	mov	r7, r0
 80032f0:	4640      	mov	r0, r8
 80032f2:	f7ff ff38 	bl	8003166 <RTC_ByteToBcd2>
 80032f6:	4602      	mov	r2, r0
 80032f8:	4648      	mov	r0, r9
 80032fa:	f7ff ff34 	bl	8003166 <RTC_ByteToBcd2>
 80032fe:	4680      	mov	r8, r0
 8003300:	f891 0020 	ldrb.w	r0, [r1, #32]
 8003304:	f7ff ff2f 	bl	8003166 <RTC_ByteToBcd2>
 8003308:	694b      	ldr	r3, [r1, #20]
 800330a:	f891 c003 	ldrb.w	ip, [r1, #3]
 800330e:	432b      	orrs	r3, r5
 8003310:	ea43 538c 	orr.w	r3, r3, ip, lsl #22
 8003314:	ea43 0308 	orr.w	r3, r3, r8
 8003318:	ea43 4307 	orr.w	r3, r3, r7, lsl #16
 800331c:	ea43 2302 	orr.w	r3, r3, r2, lsl #8
 8003320:	ea43 6500 	orr.w	r5, r3, r0, lsl #24
 8003324:	698b      	ldr	r3, [r1, #24]
 8003326:	684f      	ldr	r7, [r1, #4]
 8003328:	431f      	orrs	r7, r3
 800332a:	23ca      	movs	r3, #202	@ 0xca
 800332c:	6273      	str	r3, [r6, #36]	@ 0x24
 800332e:	2353      	movs	r3, #83	@ 0x53
 8003330:	6273      	str	r3, [r6, #36]	@ 0x24
 8003332:	6a4b      	ldr	r3, [r1, #36]	@ 0x24
 8003334:	f5b3 7f80 	cmp.w	r3, #256	@ 0x100
 8003338:	68b3      	ldr	r3, [r6, #8]
 800333a:	d144      	bne.n	80033c6 <HAL_RTC_SetAlarm+0x10c>
 800333c:	f423 7380 	bic.w	r3, r3, #256	@ 0x100
 8003340:	60b3      	str	r3, [r6, #8]
 8003342:	68b3      	ldr	r3, [r6, #8]
 8003344:	f423 5380 	bic.w	r3, r3, #4096	@ 0x1000
 8003348:	60b3      	str	r3, [r6, #8]
 800334a:	68f3      	ldr	r3, [r6, #12]
 800334c:	b2db      	uxtb	r3, r3
 800334e:	f463 73c0 	orn	r3, r3, #384	@ 0x180
 8003352:	60f3      	str	r3, [r6, #12]
 8003354:	f7fd ff6e 	bl	8001234 <HAL_GetTick>
 8003358:	4606      	mov	r6, r0
 800335a:	6823      	ldr	r3, [r4, #0]
 800335c:	68da      	ldr	r2, [r3, #12]
 800335e:	07d1      	lsls	r1, r2, #31
 8003360:	d521      	bpl.n	80033a6 <HAL_RTC_SetAlarm+0xec>
 8003362:	61dd      	str	r5, [r3, #28]
 8003364:	645f      	str	r7, [r3, #68]	@ 0x44
 8003366:	689a      	ldr	r2, [r3, #8]
 8003368:	f442 7280 	orr.w	r2, r2, #256	@ 0x100
 800336c:	609a      	str	r2, [r3, #8]
 800336e:	22ff      	movs	r2, #255	@ 0xff
 8003370:	6823      	ldr	r3, [r4, #0]
 8003372:	2000      	movs	r0, #0
 8003374:	625a      	str	r2, [r3, #36]	@ 0x24
 8003376:	2301      	movs	r3, #1
 8003378:	7720      	strb	r0, [r4, #28]
 800337a:	7763      	strb	r3, [r4, #29]
 800337c:	e021      	b.n	80033c2 <HAL_RTC_SetAlarm+0x108>
 800337e:	f013 0340 	ands.w	r3, r3, #64	@ 0x40
 8003382:	bf08      	it	eq
 8003384:	70cb      	strbeq	r3, [r1, #3]
 8003386:	694b      	ldr	r3, [r1, #20]
 8003388:	431d      	orrs	r5, r3
 800338a:	78cb      	ldrb	r3, [r1, #3]
 800338c:	ea45 0509 	orr.w	r5, r5, r9
 8003390:	ea45 4500 	orr.w	r5, r5, r0, lsl #16
 8003394:	ea45 2508 	orr.w	r5, r5, r8, lsl #8
 8003398:	ea45 5583 	orr.w	r5, r5, r3, lsl #22
 800339c:	f891 3020 	ldrb.w	r3, [r1, #32]
 80033a0:	ea45 6503 	orr.w	r5, r5, r3, lsl #24
 80033a4:	e7be      	b.n	8003324 <HAL_RTC_SetAlarm+0x6a>
 80033a6:	f7fd ff45 	bl	8001234 <HAL_GetTick>
 80033aa:	1b80      	subs	r0, r0, r6
 80033ac:	f5b0 7f7a 	cmp.w	r0, #1000	@ 0x3e8
 80033b0:	d9d3      	bls.n	800335a <HAL_RTC_SetAlarm+0xa0>
 80033b2:	6823      	ldr	r3, [r4, #0]
 80033b4:	22ff      	movs	r2, #255	@ 0xff
 80033b6:	2003      	movs	r0, #3
 80033b8:	625a      	str	r2, [r3, #36]	@ 0x24
 80033ba:	2303      	movs	r3, #3
 80033bc:	7763      	strb	r3, [r4, #29]
 80033be:	2300      	movs	r3, #0
 80033c0:	7723      	strb	r3, [r4, #28]
 80033c2:	e8bd 83f8 	ldmia.w	sp!, {r3, r4, r5, r6, r7, r8, r9, pc}
 80033c6:	f423 7300 	bic.w	r3, r3, #512	@ 0x200
 80033ca:	60b3      	str	r3, [r6, #8]
 80033cc:	68b3      	ldr	r3, [r6, #8]
 80033ce:	f423 5300 	bic.w	r3, r3, #8192	@ 0x2000
 80033d2:	60b3      	str	r3, [r6, #8]
 80033d4:	68f3      	ldr	r3, [r6, #12]
 80033d6:	b2db      	uxtb	r3, r3
 80033d8:	f463 7320 	orn	r3, r3, #640	@ 0x280
 80033dc:	60f3      	str	r3, [r6, #12]
 80033de:	f7fd ff29 	bl	8001234 <HAL_GetTick>
 80033e2:	4606      	mov	r6, r0
 80033e4:	6823      	ldr	r3, [r4, #0]
 80033e6:	68da      	ldr	r2, [r3, #12]
 80033e8:	0792      	lsls	r2, r2, #30
 80033ea:	d505      	bpl.n	80033f8 <HAL_RTC_SetAlarm+0x13e>
 80033ec:	621d      	str	r5, [r3, #32]
 80033ee:	649f      	str	r7, [r3, #72]	@ 0x48
 80033f0:	689a      	ldr	r2, [r3, #8]
 80033f2:	f442 7200 	orr.w	r2, r2, #512	@ 0x200
 80033f6:	e7b9      	b.n	800336c <HAL_RTC_SetAlarm+0xb2>
 80033f8:	f7fd ff1c 	bl	8001234 <HAL_GetTick>
 80033fc:	1b80      	subs	r0, r0, r6
 80033fe:	f5b0 7f7a 	cmp.w	r0, #1000	@ 0x3e8
 8003402:	d9ef      	bls.n	80033e4 <HAL_RTC_SetAlarm+0x12a>
 8003404:	e7d5      	b.n	80033b2 <HAL_RTC_SetAlarm+0xf8>

08003406 <HAL_RTCEx_SetTimeStamp>:
 8003406:	b510      	push	{r4, lr}
 8003408:	7f03      	ldrb	r3, [r0, #28]
 800340a:	4604      	mov	r4, r0
 800340c:	2002      	movs	r0, #2
 800340e:	2b01      	cmp	r3, #1
 8003410:	d027      	beq.n	8003462 <HAL_RTCEx_SetTimeStamp+0x5c>
 8003412:	6823      	ldr	r3, [r4, #0]
 8003414:	7760      	strb	r0, [r4, #29]
 8003416:	6cd8      	ldr	r0, [r3, #76]	@ 0x4c
 8003418:	f020 0006 	bic.w	r0, r0, #6
 800341c:	64d8      	str	r0, [r3, #76]	@ 0x4c
 800341e:	6cd8      	ldr	r0, [r3, #76]	@ 0x4c
 8003420:	4302      	orrs	r2, r0
 8003422:	2000      	movs	r0, #0
 8003424:	64da      	str	r2, [r3, #76]	@ 0x4c
 8003426:	689a      	ldr	r2, [r3, #8]
 8003428:	f422 6200 	bic.w	r2, r2, #2048	@ 0x800
 800342c:	f022 0208 	bic.w	r2, r2, #8
 8003430:	430a      	orrs	r2, r1
 8003432:	21ca      	movs	r1, #202	@ 0xca
 8003434:	6259      	str	r1, [r3, #36]	@ 0x24
 8003436:	2153      	movs	r1, #83	@ 0x53
 8003438:	6259      	str	r1, [r3, #36]	@ 0x24
 800343a:	609a      	str	r2, [r3, #8]
 800343c:	68da      	ldr	r2, [r3, #12]
 800343e:	b2d2      	uxtb	r2, r2
 8003440:	f462 6208 	orn	r2, r2, #2176	@ 0x880
 8003444:	60da      	str	r2, [r3, #12]
 8003446:	68da      	ldr	r2, [r3, #12]
 8003448:	b2d2      	uxtb	r2, r2
 800344a:	f462 5284 	orn	r2, r2, #4224	@ 0x1080
 800344e:	60da      	str	r2, [r3, #12]
 8003450:	689a      	ldr	r2, [r3, #8]
 8003452:	f442 6200 	orr.w	r2, r2, #2048	@ 0x800
 8003456:	609a      	str	r2, [r3, #8]
 8003458:	22ff      	movs	r2, #255	@ 0xff
 800345a:	625a      	str	r2, [r3, #36]	@ 0x24
 800345c:	2301      	movs	r3, #1
 800345e:	7720      	strb	r0, [r4, #28]
 8003460:	7763      	strb	r3, [r4, #29]
 8003462:	bd10      	pop	{r4, pc}

08003464 <SAI_InterruptFlag>:
 8003464:	2901      	cmp	r1, #1
 8003466:	6b01      	ldr	r1, [r0, #48]	@ 0x30
 8003468:	6842      	ldr	r2, [r0, #4]
 800346a:	bf0c      	ite	eq
 800346c:	2309      	moveq	r3, #9
 800346e:	2301      	movne	r3, #1
 8003470:	2908      	cmp	r1, #8
 8003472:	d105      	bne.n	8003480 <SAI_InterruptFlag+0x1c>
 8003474:	f022 0102 	bic.w	r1, r2, #2
 8003478:	2901      	cmp	r1, #1
 800347a:	bf08      	it	eq
 800347c:	f043 0310 	orreq.w	r3, r3, #16
 8003480:	3a02      	subs	r2, #2
 8003482:	2a01      	cmp	r2, #1
 8003484:	bf94      	ite	ls
 8003486:	f043 0060 	orrls.w	r0, r3, #96	@ 0x60
 800348a:	f043 0004 	orrhi.w	r0, r3, #4
 800348e:	4770      	bx	lr

08003490 <SAI_Disable.isra.0>:
 8003490:	4b0c      	ldr	r3, [pc, #48]	@ (80034c4 <SAI_Disable.isra.0+0x34>)
 8003492:	f641 3258 	movw	r2, #7000	@ 0x1b58
 8003496:	681b      	ldr	r3, [r3, #0]
 8003498:	fbb3 f3f2 	udiv	r3, r3, r2
 800349c:	6802      	ldr	r2, [r0, #0]
 800349e:	009b      	lsls	r3, r3, #2
 80034a0:	6811      	ldr	r1, [r2, #0]
 80034a2:	f421 3180 	bic.w	r1, r1, #65536	@ 0x10000
 80034a6:	6011      	str	r1, [r2, #0]
 80034a8:	3b01      	subs	r3, #1
 80034aa:	d206      	bcs.n	80034ba <SAI_Disable.isra.0+0x2a>
 80034ac:	f8d0 3080 	ldr.w	r3, [r0, #128]	@ 0x80
 80034b0:	f043 0340 	orr.w	r3, r3, #64	@ 0x40
 80034b4:	f8c0 3080 	str.w	r3, [r0, #128]	@ 0x80
 80034b8:	4770      	bx	lr
 80034ba:	6811      	ldr	r1, [r2, #0]
 80034bc:	03c9      	lsls	r1, r1, #15
 80034be:	d4f3      	bmi.n	80034a8 <SAI_Disable.isra.0+0x18>
 80034c0:	4770      	bx	lr
 80034c2:	bf00      	nop
 80034c4:	20000008 	.word	0x20000008

080034c8 <HAL_SAI_Init>:
 80034c8:	b570      	push	{r4, r5, r6, lr}
 80034ca:	4604      	mov	r4, r0
 80034cc:	2800      	cmp	r0, #0
 80034ce:	f000 80c8 	beq.w	8003662 <HAL_SAI_Init+0x19a>
 80034d2:	f890 307d 	ldrb.w	r3, [r0, #125]	@ 0x7d
 80034d6:	f003 02ff 	and.w	r2, r3, #255	@ 0xff
 80034da:	b91b      	cbnz	r3, 80034e4 <HAL_SAI_Init+0x1c>
 80034dc:	f880 207c 	strb.w	r2, [r0, #124]	@ 0x7c
 80034e0:	f7fd fd32 	bl	8000f48 <HAL_SAI_MspInit>
 80034e4:	2302      	movs	r3, #2
 80034e6:	4620      	mov	r0, r4
 80034e8:	f884 307d 	strb.w	r3, [r4, #125]	@ 0x7d
 80034ec:	f7ff ffd0 	bl	8003490 <SAI_Disable.isra.0>
 80034f0:	68e3      	ldr	r3, [r4, #12]
 80034f2:	2b01      	cmp	r3, #1
 80034f4:	f000 80a5 	beq.w	8003642 <HAL_SAI_Init+0x17a>
 80034f8:	1e98      	subs	r0, r3, #2
 80034fa:	4243      	negs	r3, r0
 80034fc:	4143      	adcs	r3, r0
 80034fe:	015b      	lsls	r3, r3, #5
 8003500:	68a5      	ldr	r5, [r4, #8]
 8003502:	2d02      	cmp	r5, #2
 8003504:	f000 80a1 	beq.w	800364a <HAL_SAI_Init+0x182>
 8003508:	2d03      	cmp	r5, #3
 800350a:	f000 809c 	beq.w	8003646 <HAL_SAI_Init+0x17e>
 800350e:	1e69      	subs	r1, r5, #1
 8003510:	424d      	negs	r5, r1
 8003512:	414d      	adcs	r5, r1
 8003514:	02ad      	lsls	r5, r5, #10
 8003516:	6822      	ldr	r2, [r4, #0]
 8003518:	4953      	ldr	r1, [pc, #332]	@ (8003668 <HAL_SAI_Init+0x1a0>)
 800351a:	4854      	ldr	r0, [pc, #336]	@ (800366c <HAL_SAI_Init+0x1a4>)
 800351c:	428a      	cmp	r2, r1
 800351e:	d003      	beq.n	8003528 <HAL_SAI_Init+0x60>
 8003520:	4e53      	ldr	r6, [pc, #332]	@ (8003670 <HAL_SAI_Init+0x1a8>)
 8003522:	42b2      	cmp	r2, r6
 8003524:	f040 8094 	bne.w	8003650 <HAL_SAI_Init+0x188>
 8003528:	f8c0 3800 	str.w	r3, [r0, #2048]	@ 0x800
 800352c:	69e3      	ldr	r3, [r4, #28]
 800352e:	b33b      	cbz	r3, 8003580 <HAL_SAI_Init+0xb8>
 8003530:	428a      	cmp	r2, r1
 8003532:	d003      	beq.n	800353c <HAL_SAI_Init+0x74>
 8003534:	4b4e      	ldr	r3, [pc, #312]	@ (8003670 <HAL_SAI_Init+0x1a8>)
 8003536:	429a      	cmp	r2, r3
 8003538:	f040 808d 	bne.w	8003656 <HAL_SAI_Init+0x18e>
 800353c:	f44f 2000 	mov.w	r0, #524288	@ 0x80000
 8003540:	f7ff fd14 	bl	8002f6c <HAL_RCCEx_GetPeriphCLKFreq>
 8003544:	6823      	ldr	r3, [r4, #0]
 8003546:	4a4b      	ldr	r2, [pc, #300]	@ (8003674 <HAL_SAI_Init+0x1ac>)
 8003548:	4293      	cmp	r3, r2
 800354a:	d002      	beq.n	8003552 <HAL_SAI_Init+0x8a>
 800354c:	3220      	adds	r2, #32
 800354e:	4293      	cmp	r3, r2
 8003550:	d103      	bne.n	800355a <HAL_SAI_Init+0x92>
 8003552:	f44f 1080 	mov.w	r0, #1048576	@ 0x100000
 8003556:	f7ff fd09 	bl	8002f6c <HAL_RCCEx_GetPeriphCLKFreq>
 800355a:	220a      	movs	r2, #10
 800355c:	69e3      	ldr	r3, [r4, #28]
 800355e:	4350      	muls	r0, r2
 8003560:	025b      	lsls	r3, r3, #9
 8003562:	fbb0 f0f3 	udiv	r0, r0, r3
 8003566:	fbb0 f3f2 	udiv	r3, r0, r2
 800356a:	fb02 0013 	mls	r0, r2, r3, r0
 800356e:	6b22      	ldr	r2, [r4, #48]	@ 0x30
 8003570:	2809      	cmp	r0, #9
 8003572:	bf08      	it	eq
 8003574:	3301      	addeq	r3, #1
 8003576:	2a04      	cmp	r2, #4
 8003578:	6223      	str	r3, [r4, #32]
 800357a:	bf04      	itt	eq
 800357c:	085b      	lsreq	r3, r3, #1
 800357e:	6223      	streq	r3, [r4, #32]
 8003580:	6863      	ldr	r3, [r4, #4]
 8003582:	6be1      	ldr	r1, [r4, #60]	@ 0x3c
 8003584:	f033 0202 	bics.w	r2, r3, #2
 8003588:	d167      	bne.n	800365a <HAL_SAI_Init+0x192>
 800358a:	3901      	subs	r1, #1
 800358c:	bf18      	it	ne
 800358e:	2101      	movne	r1, #1
 8003590:	6822      	ldr	r2, [r4, #0]
 8003592:	0249      	lsls	r1, r1, #9
 8003594:	4838      	ldr	r0, [pc, #224]	@ (8003678 <HAL_SAI_Init+0x1b0>)
 8003596:	6816      	ldr	r6, [r2, #0]
 8003598:	4030      	ands	r0, r6
 800359a:	6b26      	ldr	r6, [r4, #48]	@ 0x30
 800359c:	4333      	orrs	r3, r6
 800359e:	6b66      	ldr	r6, [r4, #52]	@ 0x34
 80035a0:	6010      	str	r0, [r2, #0]
 80035a2:	4333      	orrs	r3, r6
 80035a4:	6ba6      	ldr	r6, [r4, #56]	@ 0x38
 80035a6:	6810      	ldr	r0, [r2, #0]
 80035a8:	4333      	orrs	r3, r6
 80035aa:	6a66      	ldr	r6, [r4, #36]	@ 0x24
 80035ac:	4333      	orrs	r3, r6
 80035ae:	6926      	ldr	r6, [r4, #16]
 80035b0:	4333      	orrs	r3, r6
 80035b2:	6966      	ldr	r6, [r4, #20]
 80035b4:	4333      	orrs	r3, r6
 80035b6:	4303      	orrs	r3, r0
 80035b8:	6a20      	ldr	r0, [r4, #32]
 80035ba:	ea43 5300 	orr.w	r3, r3, r0, lsl #20
 80035be:	6aa0      	ldr	r0, [r4, #40]	@ 0x28
 80035c0:	432b      	orrs	r3, r5
 80035c2:	430b      	orrs	r3, r1
 80035c4:	6013      	str	r3, [r2, #0]
 80035c6:	6853      	ldr	r3, [r2, #4]
 80035c8:	f423 4360 	bic.w	r3, r3, #57344	@ 0xe000
 80035cc:	f023 030f 	bic.w	r3, r3, #15
 80035d0:	6053      	str	r3, [r2, #4]
 80035d2:	69a3      	ldr	r3, [r4, #24]
 80035d4:	6851      	ldr	r1, [r2, #4]
 80035d6:	4303      	orrs	r3, r0
 80035d8:	6ae0      	ldr	r0, [r4, #44]	@ 0x2c
 80035da:	4303      	orrs	r3, r0
 80035dc:	6ca0      	ldr	r0, [r4, #72]	@ 0x48
 80035de:	430b      	orrs	r3, r1
 80035e0:	6053      	str	r3, [r2, #4]
 80035e2:	4b26      	ldr	r3, [pc, #152]	@ (800367c <HAL_SAI_Init+0x1b4>)
 80035e4:	6891      	ldr	r1, [r2, #8]
 80035e6:	400b      	ands	r3, r1
 80035e8:	6093      	str	r3, [r2, #8]
 80035ea:	6d23      	ldr	r3, [r4, #80]	@ 0x50
 80035ec:	6891      	ldr	r1, [r2, #8]
 80035ee:	4303      	orrs	r3, r0
 80035f0:	6ce0      	ldr	r0, [r4, #76]	@ 0x4c
 80035f2:	4303      	orrs	r3, r0
 80035f4:	430b      	orrs	r3, r1
 80035f6:	6c21      	ldr	r1, [r4, #64]	@ 0x40
 80035f8:	3901      	subs	r1, #1
 80035fa:	430b      	orrs	r3, r1
 80035fc:	6c61      	ldr	r1, [r4, #68]	@ 0x44
 80035fe:	3901      	subs	r1, #1
 8003600:	ea43 2301 	orr.w	r3, r3, r1, lsl #8
 8003604:	6093      	str	r3, [r2, #8]
 8003606:	68d3      	ldr	r3, [r2, #12]
 8003608:	f423 637d 	bic.w	r3, r3, #4048	@ 0xfd0
 800360c:	f023 030f 	bic.w	r3, r3, #15
 8003610:	041b      	lsls	r3, r3, #16
 8003612:	0c1b      	lsrs	r3, r3, #16
 8003614:	60d3      	str	r3, [r2, #12]
 8003616:	68d1      	ldr	r1, [r2, #12]
 8003618:	e9d4 3015 	ldrd	r3, r0, [r4, #84]	@ 0x54
 800361c:	4303      	orrs	r3, r0
 800361e:	2000      	movs	r0, #0
 8003620:	430b      	orrs	r3, r1
 8003622:	6e21      	ldr	r1, [r4, #96]	@ 0x60
 8003624:	ea43 4301 	orr.w	r3, r3, r1, lsl #16
 8003628:	6de1      	ldr	r1, [r4, #92]	@ 0x5c
 800362a:	3901      	subs	r1, #1
 800362c:	ea43 2301 	orr.w	r3, r3, r1, lsl #8
 8003630:	60d3      	str	r3, [r2, #12]
 8003632:	2301      	movs	r3, #1
 8003634:	f8c4 0080 	str.w	r0, [r4, #128]	@ 0x80
 8003638:	f884 007c 	strb.w	r0, [r4, #124]	@ 0x7c
 800363c:	f884 307d 	strb.w	r3, [r4, #125]	@ 0x7d
 8003640:	bd70      	pop	{r4, r5, r6, pc}
 8003642:	2310      	movs	r3, #16
 8003644:	e75c      	b.n	8003500 <HAL_SAI_Init+0x38>
 8003646:	f043 0301 	orr.w	r3, r3, #1
 800364a:	f44f 6500 	mov.w	r5, #2048	@ 0x800
 800364e:	e762      	b.n	8003516 <HAL_SAI_Init+0x4e>
 8003650:	f8c0 3c00 	str.w	r3, [r0, #3072]	@ 0xc00
 8003654:	e76a      	b.n	800352c <HAL_SAI_Init+0x64>
 8003656:	2000      	movs	r0, #0
 8003658:	e774      	b.n	8003544 <HAL_SAI_Init+0x7c>
 800365a:	1e4a      	subs	r2, r1, #1
 800365c:	4251      	negs	r1, r2
 800365e:	4151      	adcs	r1, r2
 8003660:	e796      	b.n	8003590 <HAL_SAI_Init+0xc8>
 8003662:	2001      	movs	r0, #1
 8003664:	e7ec      	b.n	8003640 <HAL_SAI_Init+0x178>
 8003666:	bf00      	nop
 8003668:	40015804 	.word	0x40015804
 800366c:	40015000 	.word	0x40015000
 8003670:	40015824 	.word	0x40015824
 8003674:	40015c04 	.word	0x40015c04
 8003678:	ff05c010 	.word	0xff05c010
 800367c:	fff88000 	.word	0xfff88000

08003680 <HAL_SAI_InitProtocol>:
 8003680:	2902      	cmp	r1, #2
 8003682:	b430      	push	{r4, r5}
 8003684:	d905      	bls.n	8003692 <HAL_SAI_InitProtocol+0x12>
 8003686:	1ecc      	subs	r4, r1, #3
 8003688:	2c01      	cmp	r4, #1
 800368a:	d95a      	bls.n	8003742 <HAL_SAI_InitProtocol+0xc2>
 800368c:	2001      	movs	r0, #1
 800368e:	bc30      	pop	{r4, r5}
 8003690:	4770      	bx	lr
 8003692:	6845      	ldr	r5, [r0, #4]
 8003694:	2400      	movs	r4, #0
 8003696:	65c3      	str	r3, [r0, #92]	@ 0x5c
 8003698:	f035 0502 	bics.w	r5, r5, #2
 800369c:	6304      	str	r4, [r0, #48]	@ 0x30
 800369e:	6384      	str	r4, [r0, #56]	@ 0x38
 80036a0:	bf14      	ite	ne
 80036a2:	2501      	movne	r5, #1
 80036a4:	4625      	moveq	r5, r4
 80036a6:	6544      	str	r4, [r0, #84]	@ 0x54
 80036a8:	f013 0401 	ands.w	r4, r3, #1
 80036ac:	63c5      	str	r5, [r0, #60]	@ 0x3c
 80036ae:	f44f 3580 	mov.w	r5, #65536	@ 0x10000
 80036b2:	6485      	str	r5, [r0, #72]	@ 0x48
 80036b4:	f64f 75ff 	movw	r5, #65535	@ 0xffff
 80036b8:	6605      	str	r5, [r0, #96]	@ 0x60
 80036ba:	d1e7      	bne.n	800368c <HAL_SAI_InitProtocol+0xc>
 80036bc:	2900      	cmp	r1, #0
 80036be:	bf0a      	itet	eq
 80036c0:	2500      	moveq	r5, #0
 80036c2:	f44f 3500 	movne.w	r5, #131072	@ 0x20000
 80036c6:	f44f 2480 	moveq.w	r4, #262144	@ 0x40000
 80036ca:	e9c0 5413 	strd	r5, r4, [r0, #76]	@ 0x4c
 80036ce:	2a03      	cmp	r2, #3
 80036d0:	d8dc      	bhi.n	800368c <HAL_SAI_InitProtocol+0xc>
 80036d2:	e8df f002 	tbb	[pc, r2]
 80036d6:	0c02      	.short	0x0c02
 80036d8:	2d1d      	.short	0x2d1d
 80036da:	2280      	movs	r2, #128	@ 0x80
 80036dc:	085b      	lsrs	r3, r3, #1
 80036de:	6342      	str	r2, [r0, #52]	@ 0x34
 80036e0:	015a      	lsls	r2, r3, #5
 80036e2:	011b      	lsls	r3, r3, #4
 80036e4:	6402      	str	r2, [r0, #64]	@ 0x40
 80036e6:	6443      	str	r3, [r0, #68]	@ 0x44
 80036e8:	2340      	movs	r3, #64	@ 0x40
 80036ea:	6583      	str	r3, [r0, #88]	@ 0x58
 80036ec:	e00d      	b.n	800370a <HAL_SAI_InitProtocol+0x8a>
 80036ee:	085b      	lsrs	r3, r3, #1
 80036f0:	2280      	movs	r2, #128	@ 0x80
 80036f2:	2902      	cmp	r1, #2
 80036f4:	ea4f 1483 	mov.w	r4, r3, lsl #6
 80036f8:	6342      	str	r2, [r0, #52]	@ 0x34
 80036fa:	ea4f 1343 	mov.w	r3, r3, lsl #5
 80036fe:	6582      	str	r2, [r0, #88]	@ 0x58
 8003700:	6404      	str	r4, [r0, #64]	@ 0x40
 8003702:	6443      	str	r3, [r0, #68]	@ 0x44
 8003704:	d101      	bne.n	800370a <HAL_SAI_InitProtocol+0x8a>
 8003706:	2310      	movs	r3, #16
 8003708:	6543      	str	r3, [r0, #84]	@ 0x54
 800370a:	bc30      	pop	{r4, r5}
 800370c:	f7ff bedc 	b.w	80034c8 <HAL_SAI_Init>
 8003710:	22c0      	movs	r2, #192	@ 0xc0
 8003712:	085b      	lsrs	r3, r3, #1
 8003714:	2902      	cmp	r1, #2
 8003716:	6342      	str	r2, [r0, #52]	@ 0x34
 8003718:	ea4f 1283 	mov.w	r2, r3, lsl #6
 800371c:	ea4f 1343 	mov.w	r3, r3, lsl #5
 8003720:	6402      	str	r2, [r0, #64]	@ 0x40
 8003722:	6443      	str	r3, [r0, #68]	@ 0x44
 8003724:	f04f 0380 	mov.w	r3, #128	@ 0x80
 8003728:	6583      	str	r3, [r0, #88]	@ 0x58
 800372a:	d1ee      	bne.n	800370a <HAL_SAI_InitProtocol+0x8a>
 800372c:	2308      	movs	r3, #8
 800372e:	e7eb      	b.n	8003708 <HAL_SAI_InitProtocol+0x88>
 8003730:	22e0      	movs	r2, #224	@ 0xe0
 8003732:	085b      	lsrs	r3, r3, #1
 8003734:	6342      	str	r2, [r0, #52]	@ 0x34
 8003736:	019a      	lsls	r2, r3, #6
 8003738:	015b      	lsls	r3, r3, #5
 800373a:	6402      	str	r2, [r0, #64]	@ 0x40
 800373c:	6443      	str	r3, [r0, #68]	@ 0x44
 800373e:	2380      	movs	r3, #128	@ 0x80
 8003740:	e7d3      	b.n	80036ea <HAL_SAI_InitProtocol+0x6a>
 8003742:	6845      	ldr	r5, [r0, #4]
 8003744:	2400      	movs	r4, #0
 8003746:	f44f 3c00 	mov.w	ip, #131072	@ 0x20000
 800374a:	65c3      	str	r3, [r0, #92]	@ 0x5c
 800374c:	f035 0502 	bics.w	r5, r5, #2
 8003750:	6304      	str	r4, [r0, #48]	@ 0x30
 8003752:	6384      	str	r4, [r0, #56]	@ 0x38
 8003754:	bf14      	ite	ne
 8003756:	4625      	movne	r5, r4
 8003758:	2501      	moveq	r5, #1
 800375a:	2904      	cmp	r1, #4
 800375c:	6484      	str	r4, [r0, #72]	@ 0x48
 800375e:	63c5      	str	r5, [r0, #60]	@ 0x3c
 8003760:	f44f 2580 	mov.w	r5, #262144	@ 0x40000
 8003764:	bf14      	ite	ne
 8003766:	210d      	movne	r1, #13
 8003768:	2101      	moveq	r1, #1
 800376a:	6544      	str	r4, [r0, #84]	@ 0x54
 800376c:	f64f 74ff 	movw	r4, #65535	@ 0xffff
 8003770:	6441      	str	r1, [r0, #68]	@ 0x44
 8003772:	6604      	str	r4, [r0, #96]	@ 0x60
 8003774:	e9c0 c513 	strd	ip, r5, [r0, #76]	@ 0x4c
 8003778:	2a03      	cmp	r2, #3
 800377a:	d887      	bhi.n	800368c <HAL_SAI_InitProtocol+0xc>
 800377c:	e8df f002 	tbb	[pc, r2]
 8003780:	120d0702 	.word	0x120d0702
 8003784:	2280      	movs	r2, #128	@ 0x80
 8003786:	011b      	lsls	r3, r3, #4
 8003788:	6342      	str	r2, [r0, #52]	@ 0x34
 800378a:	6403      	str	r3, [r0, #64]	@ 0x40
 800378c:	e7ac      	b.n	80036e8 <HAL_SAI_InitProtocol+0x68>
 800378e:	2280      	movs	r2, #128	@ 0x80
 8003790:	015b      	lsls	r3, r3, #5
 8003792:	6342      	str	r2, [r0, #52]	@ 0x34
 8003794:	6403      	str	r3, [r0, #64]	@ 0x40
 8003796:	6582      	str	r2, [r0, #88]	@ 0x58
 8003798:	e7b7      	b.n	800370a <HAL_SAI_InitProtocol+0x8a>
 800379a:	22c0      	movs	r2, #192	@ 0xc0
 800379c:	015b      	lsls	r3, r3, #5
 800379e:	6342      	str	r2, [r0, #52]	@ 0x34
 80037a0:	6403      	str	r3, [r0, #64]	@ 0x40
 80037a2:	e7cc      	b.n	800373e <HAL_SAI_InitProtocol+0xbe>
 80037a4:	22e0      	movs	r2, #224	@ 0xe0
 80037a6:	e7f9      	b.n	800379c <HAL_SAI_InitProtocol+0x11c>

080037a8 <HAL_SAI_Transmit_DMA>:
 80037a8:	e92d 41f0 	stmdb	sp!, {r4, r5, r6, r7, r8, lr}
 80037ac:	460e      	mov	r6, r1
 80037ae:	4604      	mov	r4, r0
 80037b0:	4615      	mov	r5, r2
 80037b2:	f7fd fd3f 	bl	8001234 <HAL_GetTick>
 80037b6:	4607      	mov	r7, r0
 80037b8:	b34e      	cbz	r6, 800380e <HAL_SAI_Transmit_DMA+0x66>
 80037ba:	b345      	cbz	r5, 800380e <HAL_SAI_Transmit_DMA+0x66>
 80037bc:	f894 307d 	ldrb.w	r3, [r4, #125]	@ 0x7d
 80037c0:	2b01      	cmp	r3, #1
 80037c2:	b2da      	uxtb	r2, r3
 80037c4:	d153      	bne.n	800386e <HAL_SAI_Transmit_DMA+0xc6>
 80037c6:	f894 307c 	ldrb.w	r3, [r4, #124]	@ 0x7c
 80037ca:	2b01      	cmp	r3, #1
 80037cc:	d04f      	beq.n	800386e <HAL_SAI_Transmit_DMA+0xc6>
 80037ce:	f04f 0800 	mov.w	r8, #0
 80037d2:	2312      	movs	r3, #18
 80037d4:	6ee0      	ldr	r0, [r4, #108]	@ 0x6c
 80037d6:	4631      	mov	r1, r6
 80037d8:	f8c4 8080 	str.w	r8, [r4, #128]	@ 0x80
 80037dc:	f884 307d 	strb.w	r3, [r4, #125]	@ 0x7d
 80037e0:	4b24      	ldr	r3, [pc, #144]	@ (8003874 <HAL_SAI_Transmit_DMA+0xcc>)
 80037e2:	f884 207c 	strb.w	r2, [r4, #124]	@ 0x7c
 80037e6:	f8a4 5068 	strh.w	r5, [r4, #104]	@ 0x68
 80037ea:	f8a4 506a 	strh.w	r5, [r4, #106]	@ 0x6a
 80037ee:	6666      	str	r6, [r4, #100]	@ 0x64
 80037f0:	6403      	str	r3, [r0, #64]	@ 0x40
 80037f2:	4b21      	ldr	r3, [pc, #132]	@ (8003878 <HAL_SAI_Transmit_DMA+0xd0>)
 80037f4:	6822      	ldr	r2, [r4, #0]
 80037f6:	63c3      	str	r3, [r0, #60]	@ 0x3c
 80037f8:	4b20      	ldr	r3, [pc, #128]	@ (800387c <HAL_SAI_Transmit_DMA+0xd4>)
 80037fa:	321c      	adds	r2, #28
 80037fc:	e9c0 3813 	strd	r3, r8, [r0, #76]	@ 0x4c
 8003800:	462b      	mov	r3, r5
 8003802:	f7fd fe15 	bl	8001430 <HAL_DMA_Start_IT>
 8003806:	4605      	mov	r5, r0
 8003808:	b128      	cbz	r0, 8003816 <HAL_SAI_Transmit_DMA+0x6e>
 800380a:	f884 807c 	strb.w	r8, [r4, #124]	@ 0x7c
 800380e:	2501      	movs	r5, #1
 8003810:	4628      	mov	r0, r5
 8003812:	e8bd 81f0 	ldmia.w	sp!, {r4, r5, r6, r7, r8, pc}
 8003816:	4601      	mov	r1, r0
 8003818:	4620      	mov	r0, r4
 800381a:	f7ff fe23 	bl	8003464 <SAI_InterruptFlag>
 800381e:	6823      	ldr	r3, [r4, #0]
 8003820:	691a      	ldr	r2, [r3, #16]
 8003822:	4302      	orrs	r2, r0
 8003824:	611a      	str	r2, [r3, #16]
 8003826:	681a      	ldr	r2, [r3, #0]
 8003828:	f442 3200 	orr.w	r2, r2, #131072	@ 0x20000
 800382c:	601a      	str	r2, [r3, #0]
 800382e:	6823      	ldr	r3, [r4, #0]
 8003830:	695e      	ldr	r6, [r3, #20]
 8003832:	f416 26e0 	ands.w	r6, r6, #458752	@ 0x70000
 8003836:	d00a      	beq.n	800384e <HAL_SAI_Transmit_DMA+0xa6>
 8003838:	681a      	ldr	r2, [r3, #0]
 800383a:	03d2      	lsls	r2, r2, #15
 800383c:	d403      	bmi.n	8003846 <HAL_SAI_Transmit_DMA+0x9e>
 800383e:	681a      	ldr	r2, [r3, #0]
 8003840:	f442 3280 	orr.w	r2, r2, #65536	@ 0x10000
 8003844:	601a      	str	r2, [r3, #0]
 8003846:	2300      	movs	r3, #0
 8003848:	f884 307c 	strb.w	r3, [r4, #124]	@ 0x7c
 800384c:	e7e0      	b.n	8003810 <HAL_SAI_Transmit_DMA+0x68>
 800384e:	f7fd fcf1 	bl	8001234 <HAL_GetTick>
 8003852:	1bc0      	subs	r0, r0, r7
 8003854:	f5b0 7f7a 	cmp.w	r0, #1000	@ 0x3e8
 8003858:	d9e9      	bls.n	800382e <HAL_SAI_Transmit_DMA+0x86>
 800385a:	f8d4 3080 	ldr.w	r3, [r4, #128]	@ 0x80
 800385e:	2503      	movs	r5, #3
 8003860:	f884 607c 	strb.w	r6, [r4, #124]	@ 0x7c
 8003864:	f043 0340 	orr.w	r3, r3, #64	@ 0x40
 8003868:	f8c4 3080 	str.w	r3, [r4, #128]	@ 0x80
 800386c:	e7d0      	b.n	8003810 <HAL_SAI_Transmit_DMA+0x68>
 800386e:	2502      	movs	r5, #2
 8003870:	e7ce      	b.n	8003810 <HAL_SAI_Transmit_DMA+0x68>
 8003872:	bf00      	nop
 8003874:	08003955 	.word	0x08003955
 8003878:	0800391d 	.word	0x0800391d
 800387c:	080039a3 	.word	0x080039a3

08003880 <HAL_SAI_Receive_DMA>:
 8003880:	4613      	mov	r3, r2
 8003882:	460a      	mov	r2, r1
 8003884:	b570      	push	{r4, r5, r6, lr}
 8003886:	4604      	mov	r4, r0
 8003888:	b331      	cbz	r1, 80038d8 <HAL_SAI_Receive_DMA+0x58>
 800388a:	b32b      	cbz	r3, 80038d8 <HAL_SAI_Receive_DMA+0x58>
 800388c:	f890 107d 	ldrb.w	r1, [r0, #125]	@ 0x7d
 8003890:	2901      	cmp	r1, #1
 8003892:	b2c8      	uxtb	r0, r1
 8003894:	d13a      	bne.n	800390c <HAL_SAI_Receive_DMA+0x8c>
 8003896:	f894 107c 	ldrb.w	r1, [r4, #124]	@ 0x7c
 800389a:	2901      	cmp	r1, #1
 800389c:	d036      	beq.n	800390c <HAL_SAI_Receive_DMA+0x8c>
 800389e:	2600      	movs	r6, #0
 80038a0:	2122      	movs	r1, #34	@ 0x22
 80038a2:	f884 007c 	strb.w	r0, [r4, #124]	@ 0x7c
 80038a6:	f8c4 6080 	str.w	r6, [r4, #128]	@ 0x80
 80038aa:	6f20      	ldr	r0, [r4, #112]	@ 0x70
 80038ac:	f884 107d 	strb.w	r1, [r4, #125]	@ 0x7d
 80038b0:	4917      	ldr	r1, [pc, #92]	@ (8003910 <HAL_SAI_Receive_DMA+0x90>)
 80038b2:	6662      	str	r2, [r4, #100]	@ 0x64
 80038b4:	f8a4 3068 	strh.w	r3, [r4, #104]	@ 0x68
 80038b8:	f8a4 306a 	strh.w	r3, [r4, #106]	@ 0x6a
 80038bc:	6401      	str	r1, [r0, #64]	@ 0x40
 80038be:	4915      	ldr	r1, [pc, #84]	@ (8003914 <HAL_SAI_Receive_DMA+0x94>)
 80038c0:	63c1      	str	r1, [r0, #60]	@ 0x3c
 80038c2:	4915      	ldr	r1, [pc, #84]	@ (8003918 <HAL_SAI_Receive_DMA+0x98>)
 80038c4:	e9c0 1613 	strd	r1, r6, [r0, #76]	@ 0x4c
 80038c8:	6821      	ldr	r1, [r4, #0]
 80038ca:	311c      	adds	r1, #28
 80038cc:	f7fd fdb0 	bl	8001430 <HAL_DMA_Start_IT>
 80038d0:	4605      	mov	r5, r0
 80038d2:	b120      	cbz	r0, 80038de <HAL_SAI_Receive_DMA+0x5e>
 80038d4:	f884 607c 	strb.w	r6, [r4, #124]	@ 0x7c
 80038d8:	2501      	movs	r5, #1
 80038da:	4628      	mov	r0, r5
 80038dc:	bd70      	pop	{r4, r5, r6, pc}
 80038de:	4601      	mov	r1, r0
 80038e0:	4620      	mov	r0, r4
 80038e2:	f7ff fdbf 	bl	8003464 <SAI_InterruptFlag>
 80038e6:	6823      	ldr	r3, [r4, #0]
 80038e8:	691a      	ldr	r2, [r3, #16]
 80038ea:	4302      	orrs	r2, r0
 80038ec:	611a      	str	r2, [r3, #16]
 80038ee:	681a      	ldr	r2, [r3, #0]
 80038f0:	f442 3200 	orr.w	r2, r2, #131072	@ 0x20000
 80038f4:	601a      	str	r2, [r3, #0]
 80038f6:	681a      	ldr	r2, [r3, #0]
 80038f8:	03d2      	lsls	r2, r2, #15
 80038fa:	d403      	bmi.n	8003904 <HAL_SAI_Receive_DMA+0x84>
 80038fc:	681a      	ldr	r2, [r3, #0]
 80038fe:	f442 3280 	orr.w	r2, r2, #65536	@ 0x10000
 8003902:	601a      	str	r2, [r3, #0]
 8003904:	2300      	movs	r3, #0
 8003906:	f884 307c 	strb.w	r3, [r4, #124]	@ 0x7c
 800390a:	e7e6      	b.n	80038da <HAL_SAI_Receive_DMA+0x5a>
 800390c:	2502      	movs	r5, #2
 800390e:	e7e4      	b.n	80038da <HAL_SAI_Receive_DMA+0x5a>
 8003910:	08003997 	.word	0x08003997
 8003914:	0800395f 	.word	0x0800395f
 8003918:	080039a3 	.word	0x080039a3

0800391c <SAI_DMATxCplt>:
 800391c:	b538      	push	{r3, r4, r5, lr}
 800391e:	69c3      	ldr	r3, [r0, #28]
 8003920:	6b84      	ldr	r4, [r0, #56]	@ 0x38
 8003922:	f5b3 7f80 	cmp.w	r3, #256	@ 0x100
 8003926:	d011      	beq.n	800394c <SAI_DMATxCplt+0x30>
 8003928:	6825      	ldr	r5, [r4, #0]
 800392a:	2100      	movs	r1, #0
 800392c:	4620      	mov	r0, r4
 800392e:	682b      	ldr	r3, [r5, #0]
 8003930:	f8a4 106a 	strh.w	r1, [r4, #106]	@ 0x6a
 8003934:	f423 3300 	bic.w	r3, r3, #131072	@ 0x20000
 8003938:	602b      	str	r3, [r5, #0]
 800393a:	f7ff fd93 	bl	8003464 <SAI_InterruptFlag>
 800393e:	692b      	ldr	r3, [r5, #16]
 8003940:	ea23 0300 	bic.w	r3, r3, r0
 8003944:	612b      	str	r3, [r5, #16]
 8003946:	2301      	movs	r3, #1
 8003948:	f884 307d 	strb.w	r3, [r4, #125]	@ 0x7d
 800394c:	4620      	mov	r0, r4
 800394e:	f7fc fdd4 	bl	80004fa <HAL_SAI_TxCpltCallback>
 8003952:	bd38      	pop	{r3, r4, r5, pc}

08003954 <SAI_DMATxHalfCplt>:
 8003954:	6b80      	ldr	r0, [r0, #56]	@ 0x38
 8003956:	b508      	push	{r3, lr}
 8003958:	f7fc fdce 	bl	80004f8 <HAL_SAI_TxHalfCpltCallback>
 800395c:	bd08      	pop	{r3, pc}

0800395e <SAI_DMARxCplt>:
 800395e:	b538      	push	{r3, r4, r5, lr}
 8003960:	69c3      	ldr	r3, [r0, #28]
 8003962:	6b84      	ldr	r4, [r0, #56]	@ 0x38
 8003964:	f5b3 7f80 	cmp.w	r3, #256	@ 0x100
 8003968:	d011      	beq.n	800398e <SAI_DMARxCplt+0x30>
 800396a:	6825      	ldr	r5, [r4, #0]
 800396c:	2100      	movs	r1, #0
 800396e:	4620      	mov	r0, r4
 8003970:	682b      	ldr	r3, [r5, #0]
 8003972:	f423 3300 	bic.w	r3, r3, #131072	@ 0x20000
 8003976:	602b      	str	r3, [r5, #0]
 8003978:	f8a4 106a 	strh.w	r1, [r4, #106]	@ 0x6a
 800397c:	f7ff fd72 	bl	8003464 <SAI_InterruptFlag>
 8003980:	692b      	ldr	r3, [r5, #16]
 8003982:	ea23 0300 	bic.w	r3, r3, r0
 8003986:	612b      	str	r3, [r5, #16]
 8003988:	2301      	movs	r3, #1
 800398a:	f884 307d 	strb.w	r3, [r4, #125]	@ 0x7d
 800398e:	4620      	mov	r0, r4
 8003990:	f7fc fdb5 	bl	80004fe <HAL_SAI_RxCpltCallback>
 8003994:	bd38      	pop	{r3, r4, r5, pc}

08003996 <SAI_DMARxHalfCplt>:
 8003996:	6b80      	ldr	r0, [r0, #56]	@ 0x38
 8003998:	b508      	push	{r3, lr}
 800399a:	f7fc fdaf 	bl	80004fc <HAL_SAI_RxHalfCpltCallback>
 800399e:	bd08      	pop	{r3, pc}

080039a0 <HAL_SAI_ErrorCallback>:
 80039a0:	4770      	bx	lr

080039a2 <SAI_DMAError>:
 80039a2:	6b80      	ldr	r0, [r0, #56]	@ 0x38
 80039a4:	b508      	push	{r3, lr}
 80039a6:	f8d0 3080 	ldr.w	r3, [r0, #128]	@ 0x80
 80039aa:	f043 0380 	orr.w	r3, r3, #128	@ 0x80
 80039ae:	f8c0 3080 	str.w	r3, [r0, #128]	@ 0x80
 80039b2:	6ec3      	ldr	r3, [r0, #108]	@ 0x6c
 80039b4:	6d5b      	ldr	r3, [r3, #84]	@ 0x54
 80039b6:	2b01      	cmp	r3, #1
 80039b8:	d003      	beq.n	80039c2 <SAI_DMAError+0x20>
 80039ba:	6f03      	ldr	r3, [r0, #112]	@ 0x70
 80039bc:	6d5b      	ldr	r3, [r3, #84]	@ 0x54
 80039be:	2b01      	cmp	r3, #1
 80039c0:	d10c      	bne.n	80039dc <SAI_DMAError+0x3a>
 80039c2:	6802      	ldr	r2, [r0, #0]
 80039c4:	6813      	ldr	r3, [r2, #0]
 80039c6:	f423 3300 	bic.w	r3, r3, #131072	@ 0x20000
 80039ca:	6013      	str	r3, [r2, #0]
 80039cc:	f7ff fd60 	bl	8003490 <SAI_Disable.isra.0>
 80039d0:	2301      	movs	r3, #1
 80039d2:	f880 307d 	strb.w	r3, [r0, #125]	@ 0x7d
 80039d6:	2300      	movs	r3, #0
 80039d8:	f8a0 306a 	strh.w	r3, [r0, #106]	@ 0x6a
 80039dc:	f7ff ffe0 	bl	80039a0 <HAL_SAI_ErrorCallback>
 80039e0:	bd08      	pop	{r3, pc}

080039e2 <HAL_TIM_Base_MspInit>:
 80039e2:	4770      	bx	lr

080039e4 <HAL_TIM_Base_Start_IT>:
 80039e4:	f890 303d 	ldrb.w	r3, [r0, #61]	@ 0x3d
 80039e8:	2b01      	cmp	r3, #1
 80039ea:	d133      	bne.n	8003a54 <HAL_TIM_Base_Start_IT+0x70>
 80039ec:	2302      	movs	r3, #2
 80039ee:	f880 303d 	strb.w	r3, [r0, #61]	@ 0x3d
 80039f2:	6803      	ldr	r3, [r0, #0]
 80039f4:	68da      	ldr	r2, [r3, #12]
 80039f6:	f042 0201 	orr.w	r2, r2, #1
 80039fa:	60da      	str	r2, [r3, #12]
 80039fc:	4a16      	ldr	r2, [pc, #88]	@ (8003a58 <HAL_TIM_Base_Start_IT+0x74>)
 80039fe:	4293      	cmp	r3, r2
 8003a00:	d01a      	beq.n	8003a38 <HAL_TIM_Base_Start_IT+0x54>
 8003a02:	f1b3 4f80 	cmp.w	r3, #1073741824	@ 0x40000000
 8003a06:	d017      	beq.n	8003a38 <HAL_TIM_Base_Start_IT+0x54>
 8003a08:	f5a2 427c 	sub.w	r2, r2, #64512	@ 0xfc00
 8003a0c:	4293      	cmp	r3, r2
 8003a0e:	d013      	beq.n	8003a38 <HAL_TIM_Base_Start_IT+0x54>
 8003a10:	f502 6280 	add.w	r2, r2, #1024	@ 0x400
 8003a14:	4293      	cmp	r3, r2
 8003a16:	d00f      	beq.n	8003a38 <HAL_TIM_Base_Start_IT+0x54>
 8003a18:	f502 6280 	add.w	r2, r2, #1024	@ 0x400
 8003a1c:	4293      	cmp	r3, r2
 8003a1e:	d00b      	beq.n	8003a38 <HAL_TIM_Base_Start_IT+0x54>
 8003a20:	f502 4278 	add.w	r2, r2, #63488	@ 0xf800
 8003a24:	4293      	cmp	r3, r2
 8003a26:	d007      	beq.n	8003a38 <HAL_TIM_Base_Start_IT+0x54>
 8003a28:	f502 5270 	add.w	r2, r2, #15360	@ 0x3c00
 8003a2c:	4293      	cmp	r3, r2
 8003a2e:	d003      	beq.n	8003a38 <HAL_TIM_Base_Start_IT+0x54>
 8003a30:	f5a2 3294 	sub.w	r2, r2, #75776	@ 0x12800
 8003a34:	4293      	cmp	r3, r2
 8003a36:	d107      	bne.n	8003a48 <HAL_TIM_Base_Start_IT+0x64>
 8003a38:	6899      	ldr	r1, [r3, #8]
 8003a3a:	4a08      	ldr	r2, [pc, #32]	@ (8003a5c <HAL_TIM_Base_Start_IT+0x78>)
 8003a3c:	400a      	ands	r2, r1
 8003a3e:	2a06      	cmp	r2, #6
 8003a40:	d006      	beq.n	8003a50 <HAL_TIM_Base_Start_IT+0x6c>
 8003a42:	f5b2 3f80 	cmp.w	r2, #65536	@ 0x10000
 8003a46:	d003      	beq.n	8003a50 <HAL_TIM_Base_Start_IT+0x6c>
 8003a48:	681a      	ldr	r2, [r3, #0]
 8003a4a:	f042 0201 	orr.w	r2, r2, #1
 8003a4e:	601a      	str	r2, [r3, #0]
 8003a50:	2000      	movs	r0, #0
 8003a52:	4770      	bx	lr
 8003a54:	2001      	movs	r0, #1
 8003a56:	4770      	bx	lr
 8003a58:	40010000 	.word	0x40010000
 8003a5c:	00010007 	.word	0x00010007

08003a60 <HAL_TIM_OC_DelayElapsedCallback>:
 8003a60:	4770      	bx	lr

08003a62 <HAL_TIM_IC_CaptureCallback>:
 8003a62:	4770      	bx	lr

08003a64 <HAL_TIM_PWM_PulseFinishedCallback>:
 8003a64:	4770      	bx	lr

08003a66 <HAL_TIM_TriggerCallback>:
 8003a66:	4770      	bx	lr

08003a68 <HAL_TIM_IRQHandler>:
 8003a68:	6803      	ldr	r3, [r0, #0]
 8003a6a:	b570      	push	{r4, r5, r6, lr}
 8003a6c:	68dd      	ldr	r5, [r3, #12]
 8003a6e:	4604      	mov	r4, r0
 8003a70:	691e      	ldr	r6, [r3, #16]
 8003a72:	07b2      	lsls	r2, r6, #30
 8003a74:	d50d      	bpl.n	8003a92 <HAL_TIM_IRQHandler+0x2a>
 8003a76:	07a9      	lsls	r1, r5, #30
 8003a78:	d50b      	bpl.n	8003a92 <HAL_TIM_IRQHandler+0x2a>
 8003a7a:	f06f 0202 	mvn.w	r2, #2
 8003a7e:	611a      	str	r2, [r3, #16]
 8003a80:	2201      	movs	r2, #1
 8003a82:	7702      	strb	r2, [r0, #28]
 8003a84:	699b      	ldr	r3, [r3, #24]
 8003a86:	079a      	lsls	r2, r3, #30
 8003a88:	d075      	beq.n	8003b76 <HAL_TIM_IRQHandler+0x10e>
 8003a8a:	f7ff ffea 	bl	8003a62 <HAL_TIM_IC_CaptureCallback>
 8003a8e:	2300      	movs	r3, #0
 8003a90:	7723      	strb	r3, [r4, #28]
 8003a92:	0773      	lsls	r3, r6, #29
 8003a94:	d510      	bpl.n	8003ab8 <HAL_TIM_IRQHandler+0x50>
 8003a96:	0768      	lsls	r0, r5, #29
 8003a98:	d50e      	bpl.n	8003ab8 <HAL_TIM_IRQHandler+0x50>
 8003a9a:	6823      	ldr	r3, [r4, #0]
 8003a9c:	f06f 0204 	mvn.w	r2, #4
 8003aa0:	4620      	mov	r0, r4
 8003aa2:	611a      	str	r2, [r3, #16]
 8003aa4:	2202      	movs	r2, #2
 8003aa6:	7722      	strb	r2, [r4, #28]
 8003aa8:	699b      	ldr	r3, [r3, #24]
 8003aaa:	f413 7f40 	tst.w	r3, #768	@ 0x300
 8003aae:	d068      	beq.n	8003b82 <HAL_TIM_IRQHandler+0x11a>
 8003ab0:	f7ff ffd7 	bl	8003a62 <HAL_TIM_IC_CaptureCallback>
 8003ab4:	2300      	movs	r3, #0
 8003ab6:	7723      	strb	r3, [r4, #28]
 8003ab8:	0731      	lsls	r1, r6, #28
 8003aba:	d50f      	bpl.n	8003adc <HAL_TIM_IRQHandler+0x74>
 8003abc:	072a      	lsls	r2, r5, #28
 8003abe:	d50d      	bpl.n	8003adc <HAL_TIM_IRQHandler+0x74>
 8003ac0:	6823      	ldr	r3, [r4, #0]
 8003ac2:	f06f 0208 	mvn.w	r2, #8
 8003ac6:	4620      	mov	r0, r4
 8003ac8:	611a      	str	r2, [r3, #16]
 8003aca:	2204      	movs	r2, #4
 8003acc:	7722      	strb	r2, [r4, #28]
 8003ace:	69db      	ldr	r3, [r3, #28]
 8003ad0:	079b      	lsls	r3, r3, #30
 8003ad2:	d05c      	beq.n	8003b8e <HAL_TIM_IRQHandler+0x126>
 8003ad4:	f7ff ffc5 	bl	8003a62 <HAL_TIM_IC_CaptureCallback>
 8003ad8:	2300      	movs	r3, #0
 8003ada:	7723      	strb	r3, [r4, #28]
 8003adc:	06f1      	lsls	r1, r6, #27
 8003ade:	d510      	bpl.n	8003b02 <HAL_TIM_IRQHandler+0x9a>
 8003ae0:	06ea      	lsls	r2, r5, #27
 8003ae2:	d50e      	bpl.n	8003b02 <HAL_TIM_IRQHandler+0x9a>
 8003ae4:	6823      	ldr	r3, [r4, #0]
 8003ae6:	f06f 0210 	mvn.w	r2, #16
 8003aea:	4620      	mov	r0, r4
 8003aec:	611a      	str	r2, [r3, #16]
 8003aee:	2208      	movs	r2, #8
 8003af0:	7722      	strb	r2, [r4, #28]
 8003af2:	69db      	ldr	r3, [r3, #28]
 8003af4:	f413 7f40 	tst.w	r3, #768	@ 0x300
 8003af8:	d04f      	beq.n	8003b9a <HAL_TIM_IRQHandler+0x132>
 8003afa:	f7ff ffb2 	bl	8003a62 <HAL_TIM_IC_CaptureCallback>
 8003afe:	2300      	movs	r3, #0
 8003b00:	7723      	strb	r3, [r4, #28]
 8003b02:	07f3      	lsls	r3, r6, #31
 8003b04:	d508      	bpl.n	8003b18 <HAL_TIM_IRQHandler+0xb0>
 8003b06:	07e8      	lsls	r0, r5, #31
 8003b08:	d506      	bpl.n	8003b18 <HAL_TIM_IRQHandler+0xb0>
 8003b0a:	6823      	ldr	r3, [r4, #0]
 8003b0c:	f06f 0201 	mvn.w	r2, #1
 8003b10:	4620      	mov	r0, r4
 8003b12:	611a      	str	r2, [r3, #16]
 8003b14:	f7fd f98e 	bl	8000e34 <HAL_TIM_PeriodElapsedCallback>
 8003b18:	f416 5f02 	tst.w	r6, #8320	@ 0x2080
 8003b1c:	d008      	beq.n	8003b30 <HAL_TIM_IRQHandler+0xc8>
 8003b1e:	0629      	lsls	r1, r5, #24
 8003b20:	d506      	bpl.n	8003b30 <HAL_TIM_IRQHandler+0xc8>
 8003b22:	6823      	ldr	r3, [r4, #0]
 8003b24:	f46f 5202 	mvn.w	r2, #8320	@ 0x2080
 8003b28:	4620      	mov	r0, r4
 8003b2a:	611a      	str	r2, [r3, #16]
 8003b2c:	f000 f8d9 	bl	8003ce2 <HAL_TIMEx_BreakCallback>
 8003b30:	05f2      	lsls	r2, r6, #23
 8003b32:	d508      	bpl.n	8003b46 <HAL_TIM_IRQHandler+0xde>
 8003b34:	062b      	lsls	r3, r5, #24
 8003b36:	d506      	bpl.n	8003b46 <HAL_TIM_IRQHandler+0xde>
 8003b38:	6823      	ldr	r3, [r4, #0]
 8003b3a:	f46f 7280 	mvn.w	r2, #256	@ 0x100
 8003b3e:	4620      	mov	r0, r4
 8003b40:	611a      	str	r2, [r3, #16]
 8003b42:	f000 f8cf 	bl	8003ce4 <HAL_TIMEx_Break2Callback>
 8003b46:	0670      	lsls	r0, r6, #25
 8003b48:	d508      	bpl.n	8003b5c <HAL_TIM_IRQHandler+0xf4>
 8003b4a:	0669      	lsls	r1, r5, #25
 8003b4c:	d506      	bpl.n	8003b5c <HAL_TIM_IRQHandler+0xf4>
 8003b4e:	6823      	ldr	r3, [r4, #0]
 8003b50:	f06f 0240 	mvn.w	r2, #64	@ 0x40
 8003b54:	4620      	mov	r0, r4
 8003b56:	611a      	str	r2, [r3, #16]
 8003b58:	f7ff ff85 	bl	8003a66 <HAL_TIM_TriggerCallback>
 8003b5c:	06b2      	lsls	r2, r6, #26
 8003b5e:	d522      	bpl.n	8003ba6 <HAL_TIM_IRQHandler+0x13e>
 8003b60:	06ab      	lsls	r3, r5, #26
 8003b62:	d520      	bpl.n	8003ba6 <HAL_TIM_IRQHandler+0x13e>
 8003b64:	6823      	ldr	r3, [r4, #0]
 8003b66:	f06f 0220 	mvn.w	r2, #32
 8003b6a:	4620      	mov	r0, r4
 8003b6c:	611a      	str	r2, [r3, #16]
 8003b6e:	e8bd 4070 	ldmia.w	sp!, {r4, r5, r6, lr}
 8003b72:	f000 b8b5 	b.w	8003ce0 <HAL_TIMEx_CommutCallback>
 8003b76:	f7ff ff73 	bl	8003a60 <HAL_TIM_OC_DelayElapsedCallback>
 8003b7a:	4620      	mov	r0, r4
 8003b7c:	f7ff ff72 	bl	8003a64 <HAL_TIM_PWM_PulseFinishedCallback>
 8003b80:	e785      	b.n	8003a8e <HAL_TIM_IRQHandler+0x26>
 8003b82:	f7ff ff6d 	bl	8003a60 <HAL_TIM_OC_DelayElapsedCallback>
 8003b86:	4620      	mov	r0, r4
 8003b88:	f7ff ff6c 	bl	8003a64 <HAL_TIM_PWM_PulseFinishedCallback>
 8003b8c:	e792      	b.n	8003ab4 <HAL_TIM_IRQHandler+0x4c>
 8003b8e:	f7ff ff67 	bl	8003a60 <HAL_TIM_OC_DelayElapsedCallback>
 8003b92:	4620      	mov	r0, r4
 8003b94:	f7ff ff66 	bl	8003a64 <HAL_TIM_PWM_PulseFinishedCallback>
 8003b98:	e79e      	b.n	8003ad8 <HAL_TIM_IRQHandler+0x70>
 8003b9a:	f7ff ff61 	bl	8003a60 <HAL_TIM_OC_DelayElapsedCallback>
 8003b9e:	4620      	mov	r0, r4
 8003ba0:	f7ff ff60 	bl	8003a64 <HAL_TIM_PWM_PulseFinishedCallback>
 8003ba4:	e7ab      	b.n	8003afe <HAL_TIM_IRQHandler+0x96>
 8003ba6:	bd70      	pop	{r4, r5, r6, pc}

08003ba8 <TIM_Base_SetConfig>:
 8003ba8:	4a33      	ldr	r2, [pc, #204]	@ (8003c78 <TIM_Base_SetConfig+0xd0>)
 8003baa:	6803      	ldr	r3, [r0, #0]
 8003bac:	4290      	cmp	r0, r2
 8003bae:	d012      	beq.n	8003bd6 <TIM_Base_SetConfig+0x2e>
 8003bb0:	f1b0 4f80 	cmp.w	r0, #1073741824	@ 0x40000000
 8003bb4:	d00f      	beq.n	8003bd6 <TIM_Base_SetConfig+0x2e>
 8003bb6:	f5a2 427c 	sub.w	r2, r2, #64512	@ 0xfc00
 8003bba:	4290      	cmp	r0, r2
 8003bbc:	d00b      	beq.n	8003bd6 <TIM_Base_SetConfig+0x2e>
 8003bbe:	f502 6280 	add.w	r2, r2, #1024	@ 0x400
 8003bc2:	4290      	cmp	r0, r2
 8003bc4:	d007      	beq.n	8003bd6 <TIM_Base_SetConfig+0x2e>
 8003bc6:	f502 6280 	add.w	r2, r2, #1024	@ 0x400
 8003bca:	4290      	cmp	r0, r2
 8003bcc:	d003      	beq.n	8003bd6 <TIM_Base_SetConfig+0x2e>
 8003bce:	f502 4278 	add.w	r2, r2, #63488	@ 0xf800
 8003bd2:	4290      	cmp	r0, r2
 8003bd4:	d119      	bne.n	8003c0a <TIM_Base_SetConfig+0x62>
 8003bd6:	684a      	ldr	r2, [r1, #4]
 8003bd8:	f023 0370 	bic.w	r3, r3, #112	@ 0x70
 8003bdc:	4313      	orrs	r3, r2
 8003bde:	4a26      	ldr	r2, [pc, #152]	@ (8003c78 <TIM_Base_SetConfig+0xd0>)
 8003be0:	4290      	cmp	r0, r2
 8003be2:	d029      	beq.n	8003c38 <TIM_Base_SetConfig+0x90>
 8003be4:	f1b0 4f80 	cmp.w	r0, #1073741824	@ 0x40000000
 8003be8:	d026      	beq.n	8003c38 <TIM_Base_SetConfig+0x90>
 8003bea:	f5a2 427c 	sub.w	r2, r2, #64512	@ 0xfc00
 8003bee:	4290      	cmp	r0, r2
 8003bf0:	d022      	beq.n	8003c38 <TIM_Base_SetConfig+0x90>
 8003bf2:	f502 6280 	add.w	r2, r2, #1024	@ 0x400
 8003bf6:	4290      	cmp	r0, r2
 8003bf8:	d01e      	beq.n	8003c38 <TIM_Base_SetConfig+0x90>
 8003bfa:	f502 6280 	add.w	r2, r2, #1024	@ 0x400
 8003bfe:	4290      	cmp	r0, r2
 8003c00:	d01a      	beq.n	8003c38 <TIM_Base_SetConfig+0x90>
 8003c02:	f502 4278 	add.w	r2, r2, #63488	@ 0xf800
 8003c06:	4290      	cmp	r0, r2
 8003c08:	d016      	beq.n	8003c38 <TIM_Base_SetConfig+0x90>
 8003c0a:	4a1c      	ldr	r2, [pc, #112]	@ (8003c7c <TIM_Base_SetConfig+0xd4>)
 8003c0c:	4290      	cmp	r0, r2
 8003c0e:	d013      	beq.n	8003c38 <TIM_Base_SetConfig+0x90>
 8003c10:	f502 6280 	add.w	r2, r2, #1024	@ 0x400
 8003c14:	4290      	cmp	r0, r2
 8003c16:	d00f      	beq.n	8003c38 <TIM_Base_SetConfig+0x90>
 8003c18:	f502 6280 	add.w	r2, r2, #1024	@ 0x400
 8003c1c:	4290      	cmp	r0, r2
 8003c1e:	d00b      	beq.n	8003c38 <TIM_Base_SetConfig+0x90>
 8003c20:	f5a2 3298 	sub.w	r2, r2, #77824	@ 0x13000
 8003c24:	4290      	cmp	r0, r2
 8003c26:	d007      	beq.n	8003c38 <TIM_Base_SetConfig+0x90>
 8003c28:	f502 6280 	add.w	r2, r2, #1024	@ 0x400
 8003c2c:	4290      	cmp	r0, r2
 8003c2e:	d003      	beq.n	8003c38 <TIM_Base_SetConfig+0x90>
 8003c30:	f502 6280 	add.w	r2, r2, #1024	@ 0x400
 8003c34:	4290      	cmp	r0, r2
 8003c36:	d103      	bne.n	8003c40 <TIM_Base_SetConfig+0x98>
 8003c38:	f423 7340 	bic.w	r3, r3, #768	@ 0x300
 8003c3c:	68ca      	ldr	r2, [r1, #12]
 8003c3e:	4313      	orrs	r3, r2
 8003c40:	694a      	ldr	r2, [r1, #20]
 8003c42:	f023 0380 	bic.w	r3, r3, #128	@ 0x80
 8003c46:	4313      	orrs	r3, r2
 8003c48:	6003      	str	r3, [r0, #0]
 8003c4a:	688b      	ldr	r3, [r1, #8]
 8003c4c:	62c3      	str	r3, [r0, #44]	@ 0x2c
 8003c4e:	680b      	ldr	r3, [r1, #0]
 8003c50:	6283      	str	r3, [r0, #40]	@ 0x28
 8003c52:	4b09      	ldr	r3, [pc, #36]	@ (8003c78 <TIM_Base_SetConfig+0xd0>)
 8003c54:	4298      	cmp	r0, r3
 8003c56:	d003      	beq.n	8003c60 <TIM_Base_SetConfig+0xb8>
 8003c58:	f503 6380 	add.w	r3, r3, #1024	@ 0x400
 8003c5c:	4298      	cmp	r0, r3
 8003c5e:	d101      	bne.n	8003c64 <TIM_Base_SetConfig+0xbc>
 8003c60:	690b      	ldr	r3, [r1, #16]
 8003c62:	6303      	str	r3, [r0, #48]	@ 0x30
 8003c64:	2301      	movs	r3, #1
 8003c66:	6143      	str	r3, [r0, #20]
 8003c68:	6903      	ldr	r3, [r0, #16]
 8003c6a:	07db      	lsls	r3, r3, #31
 8003c6c:	d503      	bpl.n	8003c76 <TIM_Base_SetConfig+0xce>
 8003c6e:	6903      	ldr	r3, [r0, #16]
 8003c70:	f023 0301 	bic.w	r3, r3, #1
 8003c74:	6103      	str	r3, [r0, #16]
 8003c76:	4770      	bx	lr
 8003c78:	40010000 	.word	0x40010000
 8003c7c:	40014000 	.word	0x40014000

08003c80 <HAL_TIM_Base_Init>:
 8003c80:	b510      	push	{r4, lr}
 8003c82:	4604      	mov	r4, r0
 8003c84:	b350      	cbz	r0, 8003cdc <HAL_TIM_Base_Init+0x5c>
 8003c86:	f890 303d 	ldrb.w	r3, [r0, #61]	@ 0x3d
 8003c8a:	f003 02ff 	and.w	r2, r3, #255	@ 0xff
 8003c8e:	b91b      	cbnz	r3, 8003c98 <HAL_TIM_Base_Init+0x18>
 8003c90:	f880 203c 	strb.w	r2, [r0, #60]	@ 0x3c
 8003c94:	f7ff fea5 	bl	80039e2 <HAL_TIM_Base_MspInit>
 8003c98:	2302      	movs	r3, #2
 8003c9a:	6820      	ldr	r0, [r4, #0]
 8003c9c:	1d21      	adds	r1, r4, #4
 8003c9e:	f884 303d 	strb.w	r3, [r4, #61]	@ 0x3d
 8003ca2:	f7ff ff81 	bl	8003ba8 <TIM_Base_SetConfig>
 8003ca6:	2301      	movs	r3, #1
 8003ca8:	2000      	movs	r0, #0
 8003caa:	f884 3048 	strb.w	r3, [r4, #72]	@ 0x48
 8003cae:	f884 303e 	strb.w	r3, [r4, #62]	@ 0x3e
 8003cb2:	f884 303f 	strb.w	r3, [r4, #63]	@ 0x3f
 8003cb6:	f884 3040 	strb.w	r3, [r4, #64]	@ 0x40
 8003cba:	f884 3041 	strb.w	r3, [r4, #65]	@ 0x41
 8003cbe:	f884 3042 	strb.w	r3, [r4, #66]	@ 0x42
 8003cc2:	f884 3043 	strb.w	r3, [r4, #67]	@ 0x43
 8003cc6:	f884 3044 	strb.w	r3, [r4, #68]	@ 0x44
 8003cca:	f884 3045 	strb.w	r3, [r4, #69]	@ 0x45
 8003cce:	f884 3046 	strb.w	r3, [r4, #70]	@ 0x46
 8003cd2:	f884 3047 	strb.w	r3, [r4, #71]	@ 0x47
 8003cd6:	f884 303d 	strb.w	r3, [r4, #61]	@ 0x3d
 8003cda:	bd10      	pop	{r4, pc}
 8003cdc:	2001      	movs	r0, #1
 8003cde:	e7fc      	b.n	8003cda <HAL_TIM_Base_Init+0x5a>

08003ce0 <HAL_TIMEx_CommutCallback>:
 8003ce0:	4770      	bx	lr

08003ce2 <HAL_TIMEx_BreakCallback>:
 8003ce2:	4770      	bx	lr

08003ce4 <HAL_TIMEx_Break2Callback>:
 8003ce4:	4770      	bx	lr

08003ce6 <USB_CoreReset>:
 8003ce6:	b082      	sub	sp, #8
 8003ce8:	2300      	movs	r3, #0
 8003cea:	4602      	mov	r2, r0
 8003cec:	9301      	str	r3, [sp, #4]
 8003cee:	9b01      	ldr	r3, [sp, #4]
 8003cf0:	3301      	adds	r3, #1
 8003cf2:	9301      	str	r3, [sp, #4]
 8003cf4:	9b01      	ldr	r3, [sp, #4]
 8003cf6:	f1b3 6f70 	cmp.w	r3, #251658240	@ 0xf000000
 8003cfa:	d815      	bhi.n	8003d28 <USB_CoreReset+0x42>
 8003cfc:	6913      	ldr	r3, [r2, #16]
 8003cfe:	2b00      	cmp	r3, #0
 8003d00:	daf5      	bge.n	8003cee <USB_CoreReset+0x8>
 8003d02:	2300      	movs	r3, #0
 8003d04:	9301      	str	r3, [sp, #4]
 8003d06:	6913      	ldr	r3, [r2, #16]
 8003d08:	f043 0301 	orr.w	r3, r3, #1
 8003d0c:	6113      	str	r3, [r2, #16]
 8003d0e:	9b01      	ldr	r3, [sp, #4]
 8003d10:	3301      	adds	r3, #1
 8003d12:	9301      	str	r3, [sp, #4]
 8003d14:	9b01      	ldr	r3, [sp, #4]
 8003d16:	f1b3 6f70 	cmp.w	r3, #251658240	@ 0xf000000
 8003d1a:	d805      	bhi.n	8003d28 <USB_CoreReset+0x42>
 8003d1c:	6910      	ldr	r0, [r2, #16]
 8003d1e:	f010 0001 	ands.w	r0, r0, #1
 8003d22:	d1f4      	bne.n	8003d0e <USB_CoreReset+0x28>
 8003d24:	b002      	add	sp, #8
 8003d26:	4770      	bx	lr
 8003d28:	2003      	movs	r0, #3
 8003d2a:	e7fb      	b.n	8003d24 <USB_CoreReset+0x3e>

08003d2c <USB_CoreInit>:
 8003d2c:	b084      	sub	sp, #16
 8003d2e:	b538      	push	{r3, r4, r5, lr}
 8003d30:	ad05      	add	r5, sp, #20
 8003d32:	4604      	mov	r4, r0
 8003d34:	e885 000e 	stmia.w	r5, {r1, r2, r3}
 8003d38:	f89d 3019 	ldrb.w	r3, [sp, #25]
 8003d3c:	2b01      	cmp	r3, #1
 8003d3e:	d128      	bne.n	8003d92 <USB_CoreInit+0x66>
 8003d40:	6b83      	ldr	r3, [r0, #56]	@ 0x38
 8003d42:	f423 3380 	bic.w	r3, r3, #65536	@ 0x10000
 8003d46:	6383      	str	r3, [r0, #56]	@ 0x38
 8003d48:	68c3      	ldr	r3, [r0, #12]
 8003d4a:	f423 0384 	bic.w	r3, r3, #4325376	@ 0x420000
 8003d4e:	f023 0340 	bic.w	r3, r3, #64	@ 0x40
 8003d52:	60c3      	str	r3, [r0, #12]
 8003d54:	68c3      	ldr	r3, [r0, #12]
 8003d56:	f423 1340 	bic.w	r3, r3, #3145728	@ 0x300000
 8003d5a:	60c3      	str	r3, [r0, #12]
 8003d5c:	f89d 3020 	ldrb.w	r3, [sp, #32]
 8003d60:	2b01      	cmp	r3, #1
 8003d62:	d103      	bne.n	8003d6c <USB_CoreInit+0x40>
 8003d64:	68c3      	ldr	r3, [r0, #12]
 8003d66:	f443 1380 	orr.w	r3, r3, #1048576	@ 0x100000
 8003d6a:	60c3      	str	r3, [r0, #12]
 8003d6c:	4620      	mov	r0, r4
 8003d6e:	f7ff ffba 	bl	8003ce6 <USB_CoreReset>
 8003d72:	f89d 3016 	ldrb.w	r3, [sp, #22]
 8003d76:	2b01      	cmp	r3, #1
 8003d78:	d107      	bne.n	8003d8a <USB_CoreInit+0x5e>
 8003d7a:	68a3      	ldr	r3, [r4, #8]
 8003d7c:	f043 0306 	orr.w	r3, r3, #6
 8003d80:	60a3      	str	r3, [r4, #8]
 8003d82:	68a3      	ldr	r3, [r4, #8]
 8003d84:	f043 0320 	orr.w	r3, r3, #32
 8003d88:	60a3      	str	r3, [r4, #8]
 8003d8a:	e8bd 4038 	ldmia.w	sp!, {r3, r4, r5, lr}
 8003d8e:	b004      	add	sp, #16
 8003d90:	4770      	bx	lr
 8003d92:	68c3      	ldr	r3, [r0, #12]
 8003d94:	f043 0340 	orr.w	r3, r3, #64	@ 0x40
 8003d98:	60c3      	str	r3, [r0, #12]
 8003d9a:	f7ff ffa4 	bl	8003ce6 <USB_CoreReset>
 8003d9e:	6ba3      	ldr	r3, [r4, #56]	@ 0x38
 8003da0:	f443 3380 	orr.w	r3, r3, #65536	@ 0x10000
 8003da4:	63a3      	str	r3, [r4, #56]	@ 0x38
 8003da6:	e7e4      	b.n	8003d72 <USB_CoreInit+0x46>

08003da8 <USB_EnableGlobalInt>:
 8003da8:	6883      	ldr	r3, [r0, #8]
 8003daa:	f043 0301 	orr.w	r3, r3, #1
 8003dae:	6083      	str	r3, [r0, #8]
 8003db0:	2000      	movs	r0, #0
 8003db2:	4770      	bx	lr

08003db4 <USB_DisableGlobalInt>:
 8003db4:	6883      	ldr	r3, [r0, #8]
 8003db6:	f023 0301 	bic.w	r3, r3, #1
 8003dba:	6083      	str	r3, [r0, #8]
 8003dbc:	2000      	movs	r0, #0
 8003dbe:	4770      	bx	lr

08003dc0 <USB_SetCurrentMode>:
 8003dc0:	b538      	push	{r3, r4, r5, lr}
 8003dc2:	68c3      	ldr	r3, [r0, #12]
 8003dc4:	2901      	cmp	r1, #1
 8003dc6:	4605      	mov	r5, r0
 8003dc8:	460c      	mov	r4, r1
 8003dca:	f023 43c0 	bic.w	r3, r3, #1610612736	@ 0x60000000
 8003dce:	60c3      	str	r3, [r0, #12]
 8003dd0:	d113      	bne.n	8003dfa <USB_SetCurrentMode+0x3a>
 8003dd2:	68c3      	ldr	r3, [r0, #12]
 8003dd4:	2400      	movs	r4, #0
 8003dd6:	f043 5300 	orr.w	r3, r3, #536870912	@ 0x20000000
 8003dda:	60c3      	str	r3, [r0, #12]
 8003ddc:	200a      	movs	r0, #10
 8003dde:	340a      	adds	r4, #10
 8003de0:	f7fd fa2e 	bl	8001240 <HAL_Delay>
 8003de4:	696b      	ldr	r3, [r5, #20]
 8003de6:	07d9      	lsls	r1, r3, #31
 8003de8:	d402      	bmi.n	8003df0 <USB_SetCurrentMode+0x30>
 8003dea:	2cc8      	cmp	r4, #200	@ 0xc8
 8003dec:	d1f6      	bne.n	8003ddc <USB_SetCurrentMode+0x1c>
 8003dee:	24c8      	movs	r4, #200	@ 0xc8
 8003df0:	f1a4 03c8 	sub.w	r3, r4, #200	@ 0xc8
 8003df4:	4258      	negs	r0, r3
 8003df6:	4158      	adcs	r0, r3
 8003df8:	bd38      	pop	{r3, r4, r5, pc}
 8003dfa:	b969      	cbnz	r1, 8003e18 <USB_SetCurrentMode+0x58>
 8003dfc:	68c3      	ldr	r3, [r0, #12]
 8003dfe:	f043 4380 	orr.w	r3, r3, #1073741824	@ 0x40000000
 8003e02:	60c3      	str	r3, [r0, #12]
 8003e04:	200a      	movs	r0, #10
 8003e06:	340a      	adds	r4, #10
 8003e08:	f7fd fa1a 	bl	8001240 <HAL_Delay>
 8003e0c:	696b      	ldr	r3, [r5, #20]
 8003e0e:	07da      	lsls	r2, r3, #31
 8003e10:	d5ee      	bpl.n	8003df0 <USB_SetCurrentMode+0x30>
 8003e12:	2cc8      	cmp	r4, #200	@ 0xc8
 8003e14:	d1f6      	bne.n	8003e04 <USB_SetCurrentMode+0x44>
 8003e16:	e7ea      	b.n	8003dee <USB_SetCurrentMode+0x2e>
 8003e18:	2001      	movs	r0, #1
 8003e1a:	e7ed      	b.n	8003df8 <USB_SetCurrentMode+0x38>

08003e1c <USB_FlushTxFifo>:
 8003e1c:	b082      	sub	sp, #8
 8003e1e:	2300      	movs	r3, #0
 8003e20:	4602      	mov	r2, r0
 8003e22:	9301      	str	r3, [sp, #4]
 8003e24:	9b01      	ldr	r3, [sp, #4]
 8003e26:	3301      	adds	r3, #1
 8003e28:	9301      	str	r3, [sp, #4]
 8003e2a:	9b01      	ldr	r3, [sp, #4]
 8003e2c:	f1b3 6f70 	cmp.w	r3, #251658240	@ 0xf000000
 8003e30:	d815      	bhi.n	8003e5e <USB_FlushTxFifo+0x42>
 8003e32:	6913      	ldr	r3, [r2, #16]
 8003e34:	2b00      	cmp	r3, #0
 8003e36:	daf5      	bge.n	8003e24 <USB_FlushTxFifo+0x8>
 8003e38:	0189      	lsls	r1, r1, #6
 8003e3a:	2300      	movs	r3, #0
 8003e3c:	f041 0120 	orr.w	r1, r1, #32
 8003e40:	9301      	str	r3, [sp, #4]
 8003e42:	6111      	str	r1, [r2, #16]
 8003e44:	9b01      	ldr	r3, [sp, #4]
 8003e46:	3301      	adds	r3, #1
 8003e48:	9301      	str	r3, [sp, #4]
 8003e4a:	9b01      	ldr	r3, [sp, #4]
 8003e4c:	f1b3 6f70 	cmp.w	r3, #251658240	@ 0xf000000
 8003e50:	d805      	bhi.n	8003e5e <USB_FlushTxFifo+0x42>
 8003e52:	6910      	ldr	r0, [r2, #16]
 8003e54:	f010 0020 	ands.w	r0, r0, #32
 8003e58:	d1f4      	bne.n	8003e44 <USB_FlushTxFifo+0x28>
 8003e5a:	b002      	add	sp, #8
 8003e5c:	4770      	bx	lr
 8003e5e:	2003      	movs	r0, #3
 8003e60:	e7fb      	b.n	8003e5a <USB_FlushTxFifo+0x3e>

08003e62 <USB_FlushRxFifo>:
 8003e62:	b082      	sub	sp, #8
 8003e64:	2300      	movs	r3, #0
 8003e66:	4602      	mov	r2, r0
 8003e68:	9301      	str	r3, [sp, #4]
 8003e6a:	9b01      	ldr	r3, [sp, #4]
 8003e6c:	3301      	adds	r3, #1
 8003e6e:	9301      	str	r3, [sp, #4]
 8003e70:	9b01      	ldr	r3, [sp, #4]
 8003e72:	f1b3 6f70 	cmp.w	r3, #251658240	@ 0xf000000
 8003e76:	d813      	bhi.n	8003ea0 <USB_FlushRxFifo+0x3e>
 8003e78:	6913      	ldr	r3, [r2, #16]
 8003e7a:	2b00      	cmp	r3, #0
 8003e7c:	daf5      	bge.n	8003e6a <USB_FlushRxFifo+0x8>
 8003e7e:	2300      	movs	r3, #0
 8003e80:	9301      	str	r3, [sp, #4]
 8003e82:	2310      	movs	r3, #16
 8003e84:	6113      	str	r3, [r2, #16]
 8003e86:	9b01      	ldr	r3, [sp, #4]
 8003e88:	3301      	adds	r3, #1
 8003e8a:	9301      	str	r3, [sp, #4]
 8003e8c:	9b01      	ldr	r3, [sp, #4]
 8003e8e:	f1b3 6f70 	cmp.w	r3, #251658240	@ 0xf000000
 8003e92:	d805      	bhi.n	8003ea0 <USB_FlushRxFifo+0x3e>
 8003e94:	6910      	ldr	r0, [r2, #16]
 8003e96:	f010 0010 	ands.w	r0, r0, #16
 8003e9a:	d1f4      	bne.n	8003e86 <USB_FlushRxFifo+0x24>
 8003e9c:	b002      	add	sp, #8
 8003e9e:	4770      	bx	lr
 8003ea0:	2003      	movs	r0, #3
 8003ea2:	e7fb      	b.n	8003e9c <USB_FlushRxFifo+0x3a>

08003ea4 <USB_WritePacket>:
 8003ea4:	b510      	push	{r4, lr}
 8003ea6:	f89d 4008 	ldrb.w	r4, [sp, #8]
 8003eaa:	b944      	cbnz	r4, 8003ebe <USB_WritePacket+0x1a>
 8003eac:	3303      	adds	r3, #3
 8003eae:	3201      	adds	r2, #1
 8003eb0:	089b      	lsrs	r3, r3, #2
 8003eb2:	eb00 3002 	add.w	r0, r0, r2, lsl #12
 8003eb6:	eb01 0383 	add.w	r3, r1, r3, lsl #2
 8003eba:	428b      	cmp	r3, r1
 8003ebc:	d101      	bne.n	8003ec2 <USB_WritePacket+0x1e>
 8003ebe:	2000      	movs	r0, #0
 8003ec0:	bd10      	pop	{r4, pc}
 8003ec2:	f851 2b04 	ldr.w	r2, [r1], #4
 8003ec6:	6002      	str	r2, [r0, #0]
 8003ec8:	e7f7      	b.n	8003eba <USB_WritePacket+0x16>

08003eca <USB_ReadPacket>:
 8003eca:	4603      	mov	r3, r0
 8003ecc:	2000      	movs	r0, #0
 8003ece:	b570      	push	{r4, r5, r6, lr}
 8003ed0:	0894      	lsrs	r4, r2, #2
 8003ed2:	f503 5580 	add.w	r5, r3, #4096	@ 0x1000
 8003ed6:	f002 0203 	and.w	r2, r2, #3
 8003eda:	42a0      	cmp	r0, r4
 8003edc:	d310      	bcc.n	8003f00 <USB_ReadPacket+0x36>
 8003ede:	eb01 0084 	add.w	r0, r1, r4, lsl #2
 8003ee2:	b162      	cbz	r2, 8003efe <USB_ReadPacket+0x34>
 8003ee4:	f503 5380 	add.w	r3, r3, #4096	@ 0x1000
 8003ee8:	681c      	ldr	r4, [r3, #0]
 8003eea:	2300      	movs	r3, #0
 8003eec:	00d9      	lsls	r1, r3, #3
 8003eee:	fa24 f101 	lsr.w	r1, r4, r1
 8003ef2:	54c1      	strb	r1, [r0, r3]
 8003ef4:	3301      	adds	r3, #1
 8003ef6:	b299      	uxth	r1, r3
 8003ef8:	428a      	cmp	r2, r1
 8003efa:	d1f7      	bne.n	8003eec <USB_ReadPacket+0x22>
 8003efc:	4410      	add	r0, r2
 8003efe:	bd70      	pop	{r4, r5, r6, pc}
 8003f00:	682e      	ldr	r6, [r5, #0]
 8003f02:	f841 6020 	str.w	r6, [r1, r0, lsl #2]
 8003f06:	3001      	adds	r0, #1
 8003f08:	e7e7      	b.n	8003eda <USB_ReadPacket+0x10>

08003f0a <USB_ReadInterrupts>:
 8003f0a:	6942      	ldr	r2, [r0, #20]
 8003f0c:	6980      	ldr	r0, [r0, #24]
 8003f0e:	4010      	ands	r0, r2
 8003f10:	4770      	bx	lr

08003f12 <USB_ReadChInterrupts>:
 8003f12:	eb00 1041 	add.w	r0, r0, r1, lsl #5
 8003f16:	f500 63a0 	add.w	r3, r0, #1280	@ 0x500
 8003f1a:	f8d0 0508 	ldr.w	r0, [r0, #1288]	@ 0x508
 8003f1e:	68db      	ldr	r3, [r3, #12]
 8003f20:	4018      	ands	r0, r3
 8003f22:	4770      	bx	lr

08003f24 <USB_GetMode>:
 8003f24:	6940      	ldr	r0, [r0, #20]
 8003f26:	f000 0001 	and.w	r0, r0, #1
 8003f2a:	4770      	bx	lr

08003f2c <USB_HostInit>:
 8003f2c:	b084      	sub	sp, #16
 8003f2e:	b570      	push	{r4, r5, r6, lr}
 8003f30:	4604      	mov	r4, r0
 8003f32:	a805      	add	r0, sp, #20
 8003f34:	e880 000e 	stmia.w	r0, {r1, r2, r3}
 8003f38:	2300      	movs	r3, #0
 8003f3a:	f8c4 3e00 	str.w	r3, [r4, #3584]	@ 0xe00
 8003f3e:	6ba3      	ldr	r3, [r4, #56]	@ 0x38
 8003f40:	f423 1300 	bic.w	r3, r3, #2097152	@ 0x200000
 8003f44:	63a3      	str	r3, [r4, #56]	@ 0x38
 8003f46:	68e3      	ldr	r3, [r4, #12]
 8003f48:	065b      	lsls	r3, r3, #25
 8003f4a:	d43d      	bmi.n	8003fc8 <USB_HostInit+0x9c>
 8003f4c:	f89d 3017 	ldrb.w	r3, [sp, #23]
 8003f50:	2b01      	cmp	r3, #1
 8003f52:	f8d4 3400 	ldr.w	r3, [r4, #1024]	@ 0x400
 8003f56:	d139      	bne.n	8003fcc <USB_HostInit+0xa0>
 8003f58:	f043 0304 	orr.w	r3, r3, #4
 8003f5c:	f8c4 3400 	str.w	r3, [r4, #1024]	@ 0x400
 8003f60:	2110      	movs	r1, #16
 8003f62:	4620      	mov	r0, r4
 8003f64:	f7ff ff5a 	bl	8003e1c <USB_FlushTxFifo>
 8003f68:	4601      	mov	r1, r0
 8003f6a:	4620      	mov	r0, r4
 8003f6c:	f7ff ff79 	bl	8003e62 <USB_FlushRxFifo>
 8003f70:	4308      	orrs	r0, r1
 8003f72:	2300      	movs	r3, #0
 8003f74:	f89d 6015 	ldrb.w	r6, [sp, #21]
 8003f78:	b2c0      	uxtb	r0, r0
 8003f7a:	f504 62a0 	add.w	r2, r4, #1280	@ 0x500
 8003f7e:	461d      	mov	r5, r3
 8003f80:	f04f 31ff 	mov.w	r1, #4294967295	@ 0xffffffff
 8003f84:	3800      	subs	r0, #0
 8003f86:	bf18      	it	ne
 8003f88:	2001      	movne	r0, #1
 8003f8a:	429e      	cmp	r6, r3
 8003f8c:	d821      	bhi.n	8003fd2 <USB_HostInit+0xa6>
 8003f8e:	4b17      	ldr	r3, [pc, #92]	@ (8003fec <USB_HostInit+0xc0>)
 8003f90:	61a5      	str	r5, [r4, #24]
 8003f92:	429c      	cmp	r4, r3
 8003f94:	6161      	str	r1, [r4, #20]
 8003f96:	d121      	bne.n	8003fdc <USB_HostInit+0xb0>
 8003f98:	f44f 7300 	mov.w	r3, #512	@ 0x200
 8003f9c:	6263      	str	r3, [r4, #36]	@ 0x24
 8003f9e:	f103 7380 	add.w	r3, r3, #16777216	@ 0x1000000
 8003fa2:	62a3      	str	r3, [r4, #40]	@ 0x28
 8003fa4:	4b12      	ldr	r3, [pc, #72]	@ (8003ff0 <USB_HostInit+0xc4>)
 8003fa6:	f8c4 3100 	str.w	r3, [r4, #256]	@ 0x100
 8003faa:	f89d 3016 	ldrb.w	r3, [sp, #22]
 8003fae:	b91b      	cbnz	r3, 8003fb8 <USB_HostInit+0x8c>
 8003fb0:	69a3      	ldr	r3, [r4, #24]
 8003fb2:	f043 0310 	orr.w	r3, r3, #16
 8003fb6:	61a3      	str	r3, [r4, #24]
 8003fb8:	69a2      	ldr	r2, [r4, #24]
 8003fba:	4b0e      	ldr	r3, [pc, #56]	@ (8003ff4 <USB_HostInit+0xc8>)
 8003fbc:	4313      	orrs	r3, r2
 8003fbe:	61a3      	str	r3, [r4, #24]
 8003fc0:	e8bd 4070 	ldmia.w	sp!, {r4, r5, r6, lr}
 8003fc4:	b004      	add	sp, #16
 8003fc6:	4770      	bx	lr
 8003fc8:	f8d4 3400 	ldr.w	r3, [r4, #1024]	@ 0x400
 8003fcc:	f023 0304 	bic.w	r3, r3, #4
 8003fd0:	e7c4      	b.n	8003f5c <USB_HostInit+0x30>
 8003fd2:	6091      	str	r1, [r2, #8]
 8003fd4:	3301      	adds	r3, #1
 8003fd6:	60d5      	str	r5, [r2, #12]
 8003fd8:	3220      	adds	r2, #32
 8003fda:	e7d6      	b.n	8003f8a <USB_HostInit+0x5e>
 8003fdc:	2380      	movs	r3, #128	@ 0x80
 8003fde:	6263      	str	r3, [r4, #36]	@ 0x24
 8003fe0:	f503 03c0 	add.w	r3, r3, #6291456	@ 0x600000
 8003fe4:	62a3      	str	r3, [r4, #40]	@ 0x28
 8003fe6:	4b04      	ldr	r3, [pc, #16]	@ (8003ff8 <USB_HostInit+0xcc>)
 8003fe8:	e7dd      	b.n	8003fa6 <USB_HostInit+0x7a>
 8003fea:	bf00      	nop
 8003fec:	40040000 	.word	0x40040000
 8003ff0:	00e00300 	.word	0x00e00300
 8003ff4:	a3200008 	.word	0xa3200008
 8003ff8:	004000e0 	.word	0x004000e0

08003ffc <USB_InitFSLSPClkSel>:
 8003ffc:	f8d0 3400 	ldr.w	r3, [r0, #1024]	@ 0x400
 8004000:	2901      	cmp	r1, #1
 8004002:	f500 6280 	add.w	r2, r0, #1024	@ 0x400
 8004006:	f023 0303 	bic.w	r3, r3, #3
 800400a:	b510      	push	{r4, lr}
 800400c:	f8c0 3400 	str.w	r3, [r0, #1024]	@ 0x400
 8004010:	f001 0303 	and.w	r3, r1, #3
 8004014:	f8d0 4400 	ldr.w	r4, [r0, #1024]	@ 0x400
 8004018:	ea43 0304 	orr.w	r3, r3, r4
 800401c:	f8c0 3400 	str.w	r3, [r0, #1024]	@ 0x400
 8004020:	d104      	bne.n	800402c <USB_InitFSLSPClkSel+0x30>
 8004022:	f64b 3380 	movw	r3, #48000	@ 0xbb80
 8004026:	2000      	movs	r0, #0
 8004028:	6053      	str	r3, [r2, #4]
 800402a:	bd10      	pop	{r4, pc}
 800402c:	2902      	cmp	r1, #2
 800402e:	d102      	bne.n	8004036 <USB_InitFSLSPClkSel+0x3a>
 8004030:	f241 7370 	movw	r3, #6000	@ 0x1770
 8004034:	e7f7      	b.n	8004026 <USB_InitFSLSPClkSel+0x2a>
 8004036:	2001      	movs	r0, #1
 8004038:	e7f7      	b.n	800402a <USB_InitFSLSPClkSel+0x2e>

0800403a <USB_ResetPort>:
 800403a:	b537      	push	{r0, r1, r2, r4, r5, lr}
 800403c:	2500      	movs	r5, #0
 800403e:	4604      	mov	r4, r0
 8004040:	9501      	str	r5, [sp, #4]
 8004042:	f8d0 3440 	ldr.w	r3, [r0, #1088]	@ 0x440
 8004046:	9301      	str	r3, [sp, #4]
 8004048:	9b01      	ldr	r3, [sp, #4]
 800404a:	f023 032e 	bic.w	r3, r3, #46	@ 0x2e
 800404e:	9301      	str	r3, [sp, #4]
 8004050:	9b01      	ldr	r3, [sp, #4]
 8004052:	f443 7380 	orr.w	r3, r3, #256	@ 0x100
 8004056:	f8c0 3440 	str.w	r3, [r0, #1088]	@ 0x440
 800405a:	2064      	movs	r0, #100	@ 0x64
 800405c:	f7fd f8f0 	bl	8001240 <HAL_Delay>
 8004060:	9b01      	ldr	r3, [sp, #4]
 8004062:	200a      	movs	r0, #10
 8004064:	f423 7380 	bic.w	r3, r3, #256	@ 0x100
 8004068:	f8c4 3440 	str.w	r3, [r4, #1088]	@ 0x440
 800406c:	f7fd f8e8 	bl	8001240 <HAL_Delay>
 8004070:	4628      	mov	r0, r5
 8004072:	b003      	add	sp, #12
 8004074:	bd30      	pop	{r4, r5, pc}

08004076 <USB_DriveVbus>:
 8004076:	b082      	sub	sp, #8
 8004078:	2300      	movs	r3, #0
 800407a:	9301      	str	r3, [sp, #4]
 800407c:	f8d0 3440 	ldr.w	r3, [r0, #1088]	@ 0x440
 8004080:	9301      	str	r3, [sp, #4]
 8004082:	9b01      	ldr	r3, [sp, #4]
 8004084:	f023 032e 	bic.w	r3, r3, #46	@ 0x2e
 8004088:	9301      	str	r3, [sp, #4]
 800408a:	9b01      	ldr	r3, [sp, #4]
 800408c:	04da      	lsls	r2, r3, #19
 800408e:	d406      	bmi.n	800409e <USB_DriveVbus+0x28>
 8004090:	2901      	cmp	r1, #1
 8004092:	d104      	bne.n	800409e <USB_DriveVbus+0x28>
 8004094:	9b01      	ldr	r3, [sp, #4]
 8004096:	f443 5380 	orr.w	r3, r3, #4096	@ 0x1000
 800409a:	f8c0 3440 	str.w	r3, [r0, #1088]	@ 0x440
 800409e:	9b01      	ldr	r3, [sp, #4]
 80040a0:	04db      	lsls	r3, r3, #19
 80040a2:	d505      	bpl.n	80040b0 <USB_DriveVbus+0x3a>
 80040a4:	b921      	cbnz	r1, 80040b0 <USB_DriveVbus+0x3a>
 80040a6:	9b01      	ldr	r3, [sp, #4]
 80040a8:	f423 5380 	bic.w	r3, r3, #4096	@ 0x1000
 80040ac:	f8c0 3440 	str.w	r3, [r0, #1088]	@ 0x440
 80040b0:	2000      	movs	r0, #0
 80040b2:	b002      	add	sp, #8
 80040b4:	4770      	bx	lr

080040b6 <USB_GetHostSpeed>:
 80040b6:	b082      	sub	sp, #8
 80040b8:	2300      	movs	r3, #0
 80040ba:	9301      	str	r3, [sp, #4]
 80040bc:	f8d0 3440 	ldr.w	r3, [r0, #1088]	@ 0x440
 80040c0:	9301      	str	r3, [sp, #4]
 80040c2:	9801      	ldr	r0, [sp, #4]
 80040c4:	f3c0 4041 	ubfx	r0, r0, #17, #2
 80040c8:	b002      	add	sp, #8
 80040ca:	4770      	bx	lr

080040cc <USB_GetCurrentFrame>:
 80040cc:	f500 6080 	add.w	r0, r0, #1024	@ 0x400
 80040d0:	6880      	ldr	r0, [r0, #8]
 80040d2:	b280      	uxth	r0, r0
 80040d4:	4770      	bx	lr
	...

080040d8 <USB_HC_Init>:
 80040d8:	e92d 43f8 	stmdb	sp!, {r3, r4, r5, r6, r7, r8, r9, lr}
 80040dc:	eb00 1641 	add.w	r6, r0, r1, lsl #5
 80040e0:	461c      	mov	r4, r3
 80040e2:	f04f 37ff 	mov.w	r7, #4294967295	@ 0xffffffff
 80040e6:	f89d 5024 	ldrb.w	r5, [sp, #36]	@ 0x24
 80040ea:	f506 63a0 	add.w	r3, r6, #1280	@ 0x500
 80040ee:	fa4f fc82 	sxtb.w	ip, r2
 80040f2:	609f      	str	r7, [r3, #8]
 80040f4:	2d03      	cmp	r5, #3
 80040f6:	d872      	bhi.n	80041de <USB_HC_Init+0x106>
 80040f8:	e8df f005 	tbb	[pc, r5]
 80040fc:	14026702 	.word	0x14026702
 8004100:	f240 479d 	movw	r7, #1181	@ 0x49d
 8004104:	f1bc 0f00 	cmp.w	ip, #0
 8004108:	60df      	str	r7, [r3, #12]
 800410a:	da03      	bge.n	8004114 <USB_HC_Init+0x3c>
 800410c:	68df      	ldr	r7, [r3, #12]
 800410e:	f447 7780 	orr.w	r7, r7, #256	@ 0x100
 8004112:	e005      	b.n	8004120 <USB_HC_Init+0x48>
 8004114:	4f33      	ldr	r7, [pc, #204]	@ (80041e4 <USB_HC_Init+0x10c>)
 8004116:	42b8      	cmp	r0, r7
 8004118:	d10a      	bne.n	8004130 <USB_HC_Init+0x58>
 800411a:	68df      	ldr	r7, [r3, #12]
 800411c:	f047 0760 	orr.w	r7, r7, #96	@ 0x60
 8004120:	60df      	str	r7, [r3, #12]
 8004122:	e005      	b.n	8004130 <USB_HC_Init+0x58>
 8004124:	f240 679d 	movw	r7, #1693	@ 0x69d
 8004128:	f1bc 0f00 	cmp.w	ip, #0
 800412c:	60df      	str	r7, [r3, #12]
 800412e:	dbed      	blt.n	800410c <USB_HC_Init+0x34>
 8004130:	2700      	movs	r7, #0
 8004132:	f04f 0800 	mov.w	r8, #0
 8004136:	f001 010f 	and.w	r1, r1, #15
 800413a:	f8c3 8004 	str.w	r8, [r3, #4]
 800413e:	f8d3 e00c 	ldr.w	lr, [r3, #12]
 8004142:	f04e 0e02 	orr.w	lr, lr, #2
 8004146:	f8c3 e00c 	str.w	lr, [r3, #12]
 800414a:	2301      	movs	r3, #1
 800414c:	f8d0 9418 	ldr.w	r9, [r0, #1048]	@ 0x418
 8004150:	408b      	lsls	r3, r1
 8004152:	ea4f 71dc 	mov.w	r1, ip, lsr #31
 8004156:	ea43 0309 	orr.w	r3, r3, r9
 800415a:	03c9      	lsls	r1, r1, #15
 800415c:	f8c0 3418 	str.w	r3, [r0, #1048]	@ 0x418
 8004160:	6983      	ldr	r3, [r0, #24]
 8004162:	f043 7300 	orr.w	r3, r3, #33554432	@ 0x2000000
 8004166:	6183      	str	r3, [r0, #24]
 8004168:	f7ff ffa5 	bl	80040b6 <USB_GetHostSpeed>
 800416c:	f89d 3020 	ldrb.w	r3, [sp, #32]
 8004170:	2b02      	cmp	r3, #2
 8004172:	d104      	bne.n	800417e <USB_HC_Init+0xa6>
 8004174:	3802      	subs	r0, #2
 8004176:	bf18      	it	ne
 8004178:	2001      	movne	r0, #1
 800417a:	ea4f 4840 	mov.w	r8, r0, lsl #17
 800417e:	f8bd 0028 	ldrh.w	r0, [sp, #40]	@ 0x28
 8004182:	05a3      	lsls	r3, r4, #22
 8004184:	02d2      	lsls	r2, r2, #11
 8004186:	f3c0 000a 	ubfx	r0, r0, #0, #11
 800418a:	f003 53fe 	and.w	r3, r3, #532676608	@ 0x1fc00000
 800418e:	f402 42f0 	and.w	r2, r2, #30720	@ 0x7800
 8004192:	ea40 0808 	orr.w	r8, r0, r8
 8004196:	ea43 0308 	orr.w	r3, r3, r8
 800419a:	4313      	orrs	r3, r2
 800419c:	04aa      	lsls	r2, r5, #18
 800419e:	f005 05fd 	and.w	r5, r5, #253	@ 0xfd
 80041a2:	430b      	orrs	r3, r1
 80041a4:	f402 2240 	and.w	r2, r2, #786432	@ 0xc0000
 80041a8:	2d01      	cmp	r5, #1
 80041aa:	ea43 0302 	orr.w	r3, r3, r2
 80041ae:	f443 1380 	orr.w	r3, r3, #1048576	@ 0x100000
 80041b2:	f8c6 3500 	str.w	r3, [r6, #1280]	@ 0x500
 80041b6:	d105      	bne.n	80041c4 <USB_HC_Init+0xec>
 80041b8:	f8d6 3500 	ldr.w	r3, [r6, #1280]	@ 0x500
 80041bc:	f043 5300 	orr.w	r3, r3, #536870912	@ 0x20000000
 80041c0:	f8c6 3500 	str.w	r3, [r6, #1280]	@ 0x500
 80041c4:	4638      	mov	r0, r7
 80041c6:	e8bd 83f8 	ldmia.w	sp!, {r3, r4, r5, r6, r7, r8, r9, pc}
 80041ca:	f240 2725 	movw	r7, #549	@ 0x225
 80041ce:	f1bc 0f00 	cmp.w	ip, #0
 80041d2:	60df      	str	r7, [r3, #12]
 80041d4:	daac      	bge.n	8004130 <USB_HC_Init+0x58>
 80041d6:	68df      	ldr	r7, [r3, #12]
 80041d8:	f447 77c0 	orr.w	r7, r7, #384	@ 0x180
 80041dc:	e7a0      	b.n	8004120 <USB_HC_Init+0x48>
 80041de:	2701      	movs	r7, #1
 80041e0:	e7a7      	b.n	8004132 <USB_HC_Init+0x5a>
 80041e2:	bf00      	nop
 80041e4:	40040000 	.word	0x40040000

080041e8 <USB_HC_ReadInterrupt>:
 80041e8:	f500 6080 	add.w	r0, r0, #1024	@ 0x400
 80041ec:	6940      	ldr	r0, [r0, #20]
 80041ee:	b280      	uxth	r0, r0
 80041f0:	4770      	bx	lr

080041f2 <USB_HC_Halt>:
 80041f2:	b573      	push	{r0, r1, r4, r5, r6, lr}
 80041f4:	eb00 1141 	add.w	r1, r0, r1, lsl #5
 80041f8:	2300      	movs	r3, #0
 80041fa:	f501 62a0 	add.w	r2, r1, #1280	@ 0x500
 80041fe:	9301      	str	r3, [sp, #4]
 8004200:	f8d1 3500 	ldr.w	r3, [r1, #1280]	@ 0x500
 8004204:	f8d1 4500 	ldr.w	r4, [r1, #1280]	@ 0x500
 8004208:	6855      	ldr	r5, [r2, #4]
 800420a:	0c9b      	lsrs	r3, r3, #18
 800420c:	6886      	ldr	r6, [r0, #8]
 800420e:	06b6      	lsls	r6, r6, #26
 8004210:	d508      	bpl.n	8004224 <USB_HC_Halt+0x32>
 8004212:	2d00      	cmp	r5, #0
 8004214:	db06      	blt.n	8004224 <USB_HC_Halt+0x32>
 8004216:	2c00      	cmp	r4, #0
 8004218:	da01      	bge.n	800421e <USB_HC_Halt+0x2c>
 800421a:	07dd      	lsls	r5, r3, #31
 800421c:	d504      	bpl.n	8004228 <USB_HC_Halt+0x36>
 800421e:	2000      	movs	r0, #0
 8004220:	b002      	add	sp, #8
 8004222:	bd70      	pop	{r4, r5, r6, pc}
 8004224:	07dc      	lsls	r4, r3, #31
 8004226:	d42a      	bmi.n	800427e <USB_HC_Halt+0x8c>
 8004228:	f8d1 3500 	ldr.w	r3, [r1, #1280]	@ 0x500
 800422c:	f043 4380 	orr.w	r3, r3, #1073741824	@ 0x40000000
 8004230:	f8c1 3500 	str.w	r3, [r1, #1280]	@ 0x500
 8004234:	6883      	ldr	r3, [r0, #8]
 8004236:	069b      	lsls	r3, r3, #26
 8004238:	d41a      	bmi.n	8004270 <USB_HC_Halt+0x7e>
 800423a:	6ac3      	ldr	r3, [r0, #44]	@ 0x2c
 800423c:	f413 0f7f 	tst.w	r3, #16711680	@ 0xff0000
 8004240:	f8d1 3500 	ldr.w	r3, [r1, #1280]	@ 0x500
 8004244:	d116      	bne.n	8004274 <USB_HC_Halt+0x82>
 8004246:	f023 4300 	bic.w	r3, r3, #2147483648	@ 0x80000000
 800424a:	f8c1 3500 	str.w	r3, [r1, #1280]	@ 0x500
 800424e:	f8d1 3500 	ldr.w	r3, [r1, #1280]	@ 0x500
 8004252:	f043 4300 	orr.w	r3, r3, #2147483648	@ 0x80000000
 8004256:	f8c1 3500 	str.w	r3, [r1, #1280]	@ 0x500
 800425a:	9b01      	ldr	r3, [sp, #4]
 800425c:	3301      	adds	r3, #1
 800425e:	9301      	str	r3, [sp, #4]
 8004260:	9b01      	ldr	r3, [sp, #4]
 8004262:	f5b3 7f7a 	cmp.w	r3, #1000	@ 0x3e8
 8004266:	d8da      	bhi.n	800421e <USB_HC_Halt+0x2c>
 8004268:	6813      	ldr	r3, [r2, #0]
 800426a:	2b00      	cmp	r3, #0
 800426c:	dbf5      	blt.n	800425a <USB_HC_Halt+0x68>
 800426e:	e7d6      	b.n	800421e <USB_HC_Halt+0x2c>
 8004270:	f8d1 3500 	ldr.w	r3, [r1, #1280]	@ 0x500
 8004274:	f043 4300 	orr.w	r3, r3, #2147483648	@ 0x80000000
 8004278:	f8c1 3500 	str.w	r3, [r1, #1280]	@ 0x500
 800427c:	e7cf      	b.n	800421e <USB_HC_Halt+0x2c>
 800427e:	f8d1 3500 	ldr.w	r3, [r1, #1280]	@ 0x500
 8004282:	f043 4380 	orr.w	r3, r3, #1073741824	@ 0x40000000
 8004286:	f8c1 3500 	str.w	r3, [r1, #1280]	@ 0x500
 800428a:	f8d0 3410 	ldr.w	r3, [r0, #1040]	@ 0x410
 800428e:	f413 0f7f 	tst.w	r3, #16711680	@ 0xff0000
 8004292:	f8d1 3500 	ldr.w	r3, [r1, #1280]	@ 0x500
 8004296:	d1ed      	bne.n	8004274 <USB_HC_Halt+0x82>
 8004298:	f023 4300 	bic.w	r3, r3, #2147483648	@ 0x80000000
 800429c:	f8c1 3500 	str.w	r3, [r1, #1280]	@ 0x500
 80042a0:	f8d1 3500 	ldr.w	r3, [r1, #1280]	@ 0x500
 80042a4:	f043 4300 	orr.w	r3, r3, #2147483648	@ 0x80000000
 80042a8:	f8c1 3500 	str.w	r3, [r1, #1280]	@ 0x500
 80042ac:	9b01      	ldr	r3, [sp, #4]
 80042ae:	3301      	adds	r3, #1
 80042b0:	9301      	str	r3, [sp, #4]
 80042b2:	9b01      	ldr	r3, [sp, #4]
 80042b4:	f5b3 7f7a 	cmp.w	r3, #1000	@ 0x3e8
 80042b8:	d8b1      	bhi.n	800421e <USB_HC_Halt+0x2c>
 80042ba:	6813      	ldr	r3, [r2, #0]
 80042bc:	2b00      	cmp	r3, #0
 80042be:	dbf5      	blt.n	80042ac <USB_HC_Halt+0xba>
 80042c0:	e7ad      	b.n	800421e <USB_HC_Halt+0x2c>
	...

080042c4 <USB_DoPing>:
 80042c4:	eb00 1041 	add.w	r0, r0, r1, lsl #5
 80042c8:	4a06      	ldr	r2, [pc, #24]	@ (80042e4 <USB_DoPing+0x20>)
 80042ca:	f8c0 2510 	str.w	r2, [r0, #1296]	@ 0x510
 80042ce:	f8d0 3500 	ldr.w	r3, [r0, #1280]	@ 0x500
 80042d2:	f023 4380 	bic.w	r3, r3, #1073741824	@ 0x40000000
 80042d6:	f043 4300 	orr.w	r3, r3, #2147483648	@ 0x80000000
 80042da:	f8c0 3500 	str.w	r3, [r0, #1280]	@ 0x500
 80042de:	2000      	movs	r0, #0
 80042e0:	4770      	bx	lr
 80042e2:	bf00      	nop
 80042e4:	80080000 	.word	0x80080000

080042e8 <USB_HC_StartXfer>:
 80042e8:	4b97      	ldr	r3, [pc, #604]	@ (8004548 <USB_HC_StartXfer+0x260>)
 80042ea:	4694      	mov	ip, r2
 80042ec:	4298      	cmp	r0, r3
 80042ee:	e92d 43f0 	stmdb	sp!, {r4, r5, r6, r7, r8, r9, lr}
 80042f2:	4606      	mov	r6, r0
 80042f4:	b085      	sub	sp, #20
 80042f6:	460c      	mov	r4, r1
 80042f8:	784a      	ldrb	r2, [r1, #1]
 80042fa:	d10f      	bne.n	800431c <USB_HC_StartXfer+0x34>
 80042fc:	f1bc 0f01 	cmp.w	ip, #1
 8004300:	d16c      	bne.n	80043dc <USB_HC_StartXfer+0xf4>
 8004302:	7c8b      	ldrb	r3, [r1, #18]
 8004304:	f013 0ffd 	tst.w	r3, #253	@ 0xfd
 8004308:	d108      	bne.n	800431c <USB_HC_StartXfer+0x34>
 800430a:	798b      	ldrb	r3, [r1, #6]
 800430c:	b933      	cbnz	r3, 800431c <USB_HC_StartXfer+0x34>
 800430e:	4b8f      	ldr	r3, [pc, #572]	@ (800454c <USB_HC_StartXfer+0x264>)
 8004310:	eb03 1342 	add.w	r3, r3, r2, lsl #5
 8004314:	68d9      	ldr	r1, [r3, #12]
 8004316:	f021 0170 	bic.w	r1, r1, #112	@ 0x70
 800431a:	60d9      	str	r1, [r3, #12]
 800431c:	f894 e006 	ldrb.w	lr, [r4, #6]
 8004320:	78e0      	ldrb	r0, [r4, #3]
 8004322:	f1be 0f01 	cmp.w	lr, #1
 8004326:	f040 8087 	bne.w	8004438 <USB_HC_StartXfer+0x150>
 800432a:	2800      	cmp	r0, #0
 800432c:	d061      	beq.n	80043f2 <USB_HC_StartXfer+0x10a>
 800432e:	8aa3      	ldrh	r3, [r4, #20]
 8004330:	61e3      	str	r3, [r4, #28]
 8004332:	2501      	movs	r5, #1
 8004334:	7da1      	ldrb	r1, [r4, #22]
 8004336:	eb06 1742 	add.w	r7, r6, r2, lsl #5
 800433a:	0749      	lsls	r1, r1, #29
 800433c:	f507 63a0 	add.w	r3, r7, #1280	@ 0x500
 8004340:	f001 49c0 	and.w	r9, r1, #1610612736	@ 0x60000000
 8004344:	69e1      	ldr	r1, [r4, #28]
 8004346:	f3c1 0812 	ubfx	r8, r1, #0, #19
 800434a:	ea49 0108 	orr.w	r1, r9, r8
 800434e:	ea41 41c5 	orr.w	r1, r1, r5, lsl #19
 8004352:	6119      	str	r1, [r3, #16]
 8004354:	f1bc 0f00 	cmp.w	ip, #0
 8004358:	d001      	beq.n	800435e <USB_HC_StartXfer+0x76>
 800435a:	69a1      	ldr	r1, [r4, #24]
 800435c:	6159      	str	r1, [r3, #20]
 800435e:	f8d6 5408 	ldr.w	r5, [r6, #1032]	@ 0x408
 8004362:	f1be 0f01 	cmp.w	lr, #1
 8004366:	f8d7 1500 	ldr.w	r1, [r7, #1280]	@ 0x500
 800436a:	f506 6880 	add.w	r8, r6, #1024	@ 0x400
 800436e:	ea6f 0505 	mvn.w	r5, r5
 8004372:	f021 5100 	bic.w	r1, r1, #536870912	@ 0x20000000
 8004376:	ea4f 7545 	mov.w	r5, r5, lsl #29
 800437a:	f8c7 1500 	str.w	r1, [r7, #1280]	@ 0x500
 800437e:	f8d7 1500 	ldr.w	r1, [r7, #1280]	@ 0x500
 8004382:	f005 5500 	and.w	r5, r5, #536870912	@ 0x20000000
 8004386:	ea45 0501 	orr.w	r5, r5, r1
 800438a:	f8c7 5500 	str.w	r5, [r7, #1280]	@ 0x500
 800438e:	f040 8081 	bne.w	8004494 <USB_HC_StartXfer+0x1ac>
 8004392:	7c65      	ldrb	r5, [r4, #17]
 8004394:	7c21      	ldrb	r1, [r4, #16]
 8004396:	ea41 11c5 	orr.w	r1, r1, r5, lsl #7
 800439a:	f041 4100 	orr.w	r1, r1, #2147483648	@ 0x80000000
 800439e:	6059      	str	r1, [r3, #4]
 80043a0:	68d9      	ldr	r1, [r3, #12]
 80043a2:	f041 0160 	orr.w	r1, r1, #96	@ 0x60
 80043a6:	60d9      	str	r1, [r3, #12]
 80043a8:	79e1      	ldrb	r1, [r4, #7]
 80043aa:	2901      	cmp	r1, #1
 80043ac:	d108      	bne.n	80043c0 <USB_HC_StartXfer+0xd8>
 80043ae:	b938      	cbnz	r0, 80043c0 <USB_HC_StartXfer+0xd8>
 80043b0:	685d      	ldr	r5, [r3, #4]
 80043b2:	f445 3580 	orr.w	r5, r5, #65536	@ 0x10000
 80043b6:	605d      	str	r5, [r3, #4]
 80043b8:	68dd      	ldr	r5, [r3, #12]
 80043ba:	f045 0540 	orr.w	r5, r5, #64	@ 0x40
 80043be:	60dd      	str	r5, [r3, #12]
 80043c0:	7ca5      	ldrb	r5, [r4, #18]
 80043c2:	2d01      	cmp	r5, #1
 80043c4:	f000 808a 	beq.w	80044dc <USB_HC_StartXfer+0x1f4>
 80043c8:	2d03      	cmp	r5, #3
 80043ca:	f040 808f 	bne.w	80044ec <USB_HC_StartXfer+0x204>
 80043ce:	2901      	cmp	r1, #1
 80043d0:	f040 808c 	bne.w	80044ec <USB_HC_StartXfer+0x204>
 80043d4:	2801      	cmp	r0, #1
 80043d6:	f000 8085 	beq.w	80044e4 <USB_HC_StartXfer+0x1fc>
 80043da:	e087      	b.n	80044ec <USB_HC_StartXfer+0x204>
 80043dc:	888b      	ldrh	r3, [r1, #4]
 80043de:	f5b3 7f80 	cmp.w	r3, #256	@ 0x100
 80043e2:	d19b      	bne.n	800431c <USB_HC_StartXfer+0x34>
 80043e4:	4611      	mov	r1, r2
 80043e6:	f7ff ff6d 	bl	80042c4 <USB_DoPing>
 80043ea:	2000      	movs	r0, #0
 80043ec:	b005      	add	sp, #20
 80043ee:	e8bd 83f0 	ldmia.w	sp!, {r4, r5, r6, r7, r8, r9, pc}
 80043f2:	7ca1      	ldrb	r1, [r4, #18]
 80043f4:	6a23      	ldr	r3, [r4, #32]
 80043f6:	2901      	cmp	r1, #1
 80043f8:	d115      	bne.n	8004426 <USB_HC_StartXfer+0x13e>
 80043fa:	68e1      	ldr	r1, [r4, #12]
 80043fc:	2bbc      	cmp	r3, #188	@ 0xbc
 80043fe:	f101 31ff 	add.w	r1, r1, #4294967295	@ 0xffffffff
 8004402:	d90a      	bls.n	800441a <USB_HC_StartXfer+0x132>
 8004404:	8aa3      	ldrh	r3, [r4, #20]
 8004406:	2901      	cmp	r1, #1
 8004408:	e9c4 3307 	strd	r3, r3, [r4, #28]
 800440c:	d802      	bhi.n	8004414 <USB_HC_StartXfer+0x12c>
 800440e:	2302      	movs	r3, #2
 8004410:	60e3      	str	r3, [r4, #12]
 8004412:	e78e      	b.n	8004332 <USB_HC_StartXfer+0x4a>
 8004414:	f8c4 e00c 	str.w	lr, [r4, #12]
 8004418:	e78b      	b.n	8004332 <USB_HC_StartXfer+0x4a>
 800441a:	2901      	cmp	r1, #1
 800441c:	61e3      	str	r3, [r4, #28]
 800441e:	bf8c      	ite	hi
 8004420:	2304      	movhi	r3, #4
 8004422:	2303      	movls	r3, #3
 8004424:	e7f4      	b.n	8004410 <USB_HC_StartXfer+0x128>
 8004426:	f1bc 0f01 	cmp.w	ip, #1
 800442a:	d181      	bne.n	8004330 <USB_HC_StartXfer+0x48>
 800442c:	8aa1      	ldrh	r1, [r4, #20]
 800442e:	4299      	cmp	r1, r3
 8004430:	f4bf af7e 	bcs.w	8004330 <USB_HC_StartXfer+0x48>
 8004434:	61e1      	str	r1, [r4, #28]
 8004436:	e77c      	b.n	8004332 <USB_HC_StartXfer+0x4a>
 8004438:	6a23      	ldr	r3, [r4, #32]
 800443a:	b17b      	cbz	r3, 800445c <USB_HC_StartXfer+0x174>
 800443c:	8aa1      	ldrh	r1, [r4, #20]
 800443e:	1e5d      	subs	r5, r3, #1
 8004440:	440d      	add	r5, r1
 8004442:	fbb5 f5f1 	udiv	r5, r5, r1
 8004446:	b2ad      	uxth	r5, r5
 8004448:	f5b5 7f80 	cmp.w	r5, #256	@ 0x100
 800444c:	bf28      	it	cs
 800444e:	f44f 7580 	movcs.w	r5, #256	@ 0x100
 8004452:	b108      	cbz	r0, 8004458 <USB_HC_StartXfer+0x170>
 8004454:	8aa3      	ldrh	r3, [r4, #20]
 8004456:	436b      	muls	r3, r5
 8004458:	61e3      	str	r3, [r4, #28]
 800445a:	e76b      	b.n	8004334 <USB_HC_StartXfer+0x4c>
 800445c:	2501      	movs	r5, #1
 800445e:	e7f8      	b.n	8004452 <USB_HC_StartXfer+0x16a>
 8004460:	2800      	cmp	r0, #0
 8004462:	d143      	bne.n	80044ec <USB_HC_StartXfer+0x204>
 8004464:	68e1      	ldr	r1, [r4, #12]
 8004466:	3901      	subs	r1, #1
 8004468:	2903      	cmp	r1, #3
 800446a:	d83f      	bhi.n	80044ec <USB_HC_StartXfer+0x204>
 800446c:	e8df f001 	tbb	[pc, r1]
 8004470:	0e0a0602 	.word	0x0e0a0602
 8004474:	6859      	ldr	r1, [r3, #4]
 8004476:	f441 4100 	orr.w	r1, r1, #32768	@ 0x8000
 800447a:	e036      	b.n	80044ea <USB_HC_StartXfer+0x202>
 800447c:	6859      	ldr	r1, [r3, #4]
 800447e:	f041 010e 	orr.w	r1, r1, #14
 8004482:	e032      	b.n	80044ea <USB_HC_StartXfer+0x202>
 8004484:	6859      	ldr	r1, [r3, #4]
 8004486:	f441 4180 	orr.w	r1, r1, #16384	@ 0x4000
 800448a:	e02e      	b.n	80044ea <USB_HC_StartXfer+0x202>
 800448c:	6859      	ldr	r1, [r3, #4]
 800448e:	f441 4140 	orr.w	r1, r1, #49152	@ 0xc000
 8004492:	e02a      	b.n	80044ea <USB_HC_StartXfer+0x202>
 8004494:	2100      	movs	r1, #0
 8004496:	e028      	b.n	80044ea <USB_HC_StartXfer+0x202>
 8004498:	f423 4300 	bic.w	r3, r3, #32768	@ 0x8000
 800449c:	e032      	b.n	8004504 <USB_HC_StartXfer+0x21c>
 800449e:	6af1      	ldr	r1, [r6, #44]	@ 0x2c
 80044a0:	1cd8      	adds	r0, r3, #3
 80044a2:	b289      	uxth	r1, r1
 80044a4:	f3c0 008f 	ubfx	r0, r0, #2, #16
 80044a8:	4288      	cmp	r0, r1
 80044aa:	d903      	bls.n	80044b4 <USB_HC_StartXfer+0x1cc>
 80044ac:	69b1      	ldr	r1, [r6, #24]
 80044ae:	f041 0120 	orr.w	r1, r1, #32
 80044b2:	61b1      	str	r1, [r6, #24]
 80044b4:	2100      	movs	r1, #0
 80044b6:	b29b      	uxth	r3, r3
 80044b8:	4630      	mov	r0, r6
 80044ba:	9100      	str	r1, [sp, #0]
 80044bc:	69a1      	ldr	r1, [r4, #24]
 80044be:	f7ff fcf1 	bl	8003ea4 <USB_WritePacket>
 80044c2:	e792      	b.n	80043ea <USB_HC_StartXfer+0x102>
 80044c4:	f8d8 0010 	ldr.w	r0, [r8, #16]
 80044c8:	1cd9      	adds	r1, r3, #3
 80044ca:	b280      	uxth	r0, r0
 80044cc:	f3c1 018f 	ubfx	r1, r1, #2, #16
 80044d0:	4288      	cmp	r0, r1
 80044d2:	d2ef      	bcs.n	80044b4 <USB_HC_StartXfer+0x1cc>
 80044d4:	69b1      	ldr	r1, [r6, #24]
 80044d6:	f041 6180 	orr.w	r1, r1, #67108864	@ 0x4000000
 80044da:	e7ea      	b.n	80044b2 <USB_HC_StartXfer+0x1ca>
 80044dc:	2901      	cmp	r1, #1
 80044de:	d1bf      	bne.n	8004460 <USB_HC_StartXfer+0x178>
 80044e0:	2801      	cmp	r0, #1
 80044e2:	d1bd      	bne.n	8004460 <USB_HC_StartXfer+0x178>
 80044e4:	6859      	ldr	r1, [r3, #4]
 80044e6:	f441 3180 	orr.w	r1, r1, #65536	@ 0x10000
 80044ea:	6059      	str	r1, [r3, #4]
 80044ec:	f8d7 3500 	ldr.w	r3, [r7, #1280]	@ 0x500
 80044f0:	9303      	str	r3, [sp, #12]
 80044f2:	9b03      	ldr	r3, [sp, #12]
 80044f4:	f023 4380 	bic.w	r3, r3, #1073741824	@ 0x40000000
 80044f8:	9303      	str	r3, [sp, #12]
 80044fa:	9b03      	ldr	r3, [sp, #12]
 80044fc:	2800      	cmp	r0, #0
 80044fe:	d0cb      	beq.n	8004498 <USB_HC_StartXfer+0x1b0>
 8004500:	f443 4300 	orr.w	r3, r3, #32768	@ 0x8000
 8004504:	9303      	str	r3, [sp, #12]
 8004506:	ea5c 0000 	orrs.w	r0, ip, r0
 800450a:	9b03      	ldr	r3, [sp, #12]
 800450c:	f043 4300 	orr.w	r3, r3, #2147483648	@ 0x80000000
 8004510:	9303      	str	r3, [sp, #12]
 8004512:	9b03      	ldr	r3, [sp, #12]
 8004514:	f8c7 3500 	str.w	r3, [r7, #1280]	@ 0x500
 8004518:	f47f af67 	bne.w	80043ea <USB_HC_StartXfer+0x102>
 800451c:	6a23      	ldr	r3, [r4, #32]
 800451e:	2b00      	cmp	r3, #0
 8004520:	f43f af63 	beq.w	80043ea <USB_HC_StartXfer+0x102>
 8004524:	79e1      	ldrb	r1, [r4, #7]
 8004526:	2900      	cmp	r1, #0
 8004528:	f47f af5f 	bne.w	80043ea <USB_HC_StartXfer+0x102>
 800452c:	7ca1      	ldrb	r1, [r4, #18]
 800452e:	2903      	cmp	r1, #3
 8004530:	d8c0      	bhi.n	80044b4 <USB_HC_StartXfer+0x1cc>
 8004532:	a001      	add	r0, pc, #4	@ (adr r0, 8004538 <USB_HC_StartXfer+0x250>)
 8004534:	f850 f021 	ldr.w	pc, [r0, r1, lsl #2]
 8004538:	0800449f 	.word	0x0800449f
 800453c:	080044c5 	.word	0x080044c5
 8004540:	0800449f 	.word	0x0800449f
 8004544:	080044c5 	.word	0x080044c5
 8004548:	40040000 	.word	0x40040000
 800454c:	40040500 	.word	0x40040500

08004550 <USB_StopHost>:
 8004550:	2300      	movs	r3, #0
 8004552:	b537      	push	{r0, r1, r2, r4, r5, lr}
 8004554:	9301      	str	r3, [sp, #4]
 8004556:	4604      	mov	r4, r0
 8004558:	6883      	ldr	r3, [r0, #8]
 800455a:	2110      	movs	r1, #16
 800455c:	f504 65e0 	add.w	r5, r4, #1792	@ 0x700
 8004560:	f023 0301 	bic.w	r3, r3, #1
 8004564:	6083      	str	r3, [r0, #8]
 8004566:	f7ff fc59 	bl	8003e1c <USB_FlushTxFifo>
 800456a:	4601      	mov	r1, r0
 800456c:	4620      	mov	r0, r4
 800456e:	f7ff fc78 	bl	8003e62 <USB_FlushRxFifo>
 8004572:	4308      	orrs	r0, r1
 8004574:	f504 63a0 	add.w	r3, r4, #1280	@ 0x500
 8004578:	b2c0      	uxtb	r0, r0
 800457a:	4619      	mov	r1, r3
 800457c:	3800      	subs	r0, #0
 800457e:	bf18      	it	ne
 8004580:	2001      	movne	r0, #1
 8004582:	680a      	ldr	r2, [r1, #0]
 8004584:	f022 2280 	bic.w	r2, r2, #2147516416	@ 0x80008000
 8004588:	f042 4280 	orr.w	r2, r2, #1073741824	@ 0x40000000
 800458c:	f841 2b20 	str.w	r2, [r1], #32
 8004590:	42a9      	cmp	r1, r5
 8004592:	d1f6      	bne.n	8004582 <USB_StopHost+0x32>
 8004594:	681a      	ldr	r2, [r3, #0]
 8004596:	f422 4200 	bic.w	r2, r2, #32768	@ 0x8000
 800459a:	f042 4240 	orr.w	r2, r2, #3221225472	@ 0xc0000000
 800459e:	601a      	str	r2, [r3, #0]
 80045a0:	9a01      	ldr	r2, [sp, #4]
 80045a2:	3201      	adds	r2, #1
 80045a4:	9201      	str	r2, [sp, #4]
 80045a6:	9a01      	ldr	r2, [sp, #4]
 80045a8:	f5b2 7f7a 	cmp.w	r2, #1000	@ 0x3e8
 80045ac:	d802      	bhi.n	80045b4 <USB_StopHost+0x64>
 80045ae:	681a      	ldr	r2, [r3, #0]
 80045b0:	2a00      	cmp	r2, #0
 80045b2:	dbf5      	blt.n	80045a0 <USB_StopHost+0x50>
 80045b4:	3320      	adds	r3, #32
 80045b6:	42ab      	cmp	r3, r5
 80045b8:	d1ec      	bne.n	8004594 <USB_StopHost+0x44>
 80045ba:	f04f 33ff 	mov.w	r3, #4294967295	@ 0xffffffff
 80045be:	f8c4 3414 	str.w	r3, [r4, #1044]	@ 0x414
 80045c2:	6163      	str	r3, [r4, #20]
 80045c4:	68a3      	ldr	r3, [r4, #8]
 80045c6:	f043 0301 	orr.w	r3, r3, #1
 80045ca:	60a3      	str	r3, [r4, #8]
 80045cc:	b003      	add	sp, #12
 80045ce:	bd30      	pop	{r4, r5, pc}

080045d0 <WM8994_SetMute>:
 80045d0:	2901      	cmp	r1, #1
 80045d2:	b537      	push	{r0, r1, r2, r4, r5, lr}
 80045d4:	bf0c      	ite	eq
 80045d6:	f44f 7300 	moveq.w	r3, #512	@ 0x200
 80045da:	2310      	movne	r3, #16
 80045dc:	f100 0518 	add.w	r5, r0, #24
 80045e0:	f10d 0206 	add.w	r2, sp, #6
 80045e4:	f8ad 3006 	strh.w	r3, [sp, #6]
 80045e8:	f44f 6184 	mov.w	r1, #1056	@ 0x420
 80045ec:	2302      	movs	r3, #2
 80045ee:	4628      	mov	r0, r5
 80045f0:	f000 ff7c 	bl	80054ec <wm8994_write_reg>
 80045f4:	4604      	mov	r4, r0
 80045f6:	2302      	movs	r3, #2
 80045f8:	f10d 0206 	add.w	r2, sp, #6
 80045fc:	f240 4122 	movw	r1, #1058	@ 0x422
 8004600:	4628      	mov	r0, r5
 8004602:	f000 ff73 	bl	80054ec <wm8994_write_reg>
 8004606:	4420      	add	r0, r4
 8004608:	3800      	subs	r0, #0
 800460a:	bf18      	it	ne
 800460c:	2001      	movne	r0, #1
 800460e:	4240      	negs	r0, r0
 8004610:	b003      	add	sp, #12
 8004612:	bd30      	pop	{r4, r5, pc}

08004614 <WM8994_Play>:
 8004614:	2100      	movs	r1, #0
 8004616:	f7ff bfdb 	b.w	80045d0 <WM8994_SetMute>

0800461a <WM8994_Resume>:
 800461a:	f7ff bffb 	b.w	8004614 <WM8994_Play>

0800461e <WM8994_Pause>:
 800461e:	b513      	push	{r0, r1, r4, lr}
 8004620:	2101      	movs	r1, #1
 8004622:	4604      	mov	r4, r0
 8004624:	f8ad 1006 	strh.w	r1, [sp, #6]
 8004628:	f7ff ffd2 	bl	80045d0 <WM8994_SetMute>
 800462c:	b968      	cbnz	r0, 800464a <WM8994_Pause+0x2c>
 800462e:	2302      	movs	r3, #2
 8004630:	f10d 0206 	add.w	r2, sp, #6
 8004634:	f104 0018 	add.w	r0, r4, #24
 8004638:	4619      	mov	r1, r3
 800463a:	f000 ff57 	bl	80054ec <wm8994_write_reg>
 800463e:	3800      	subs	r0, #0
 8004640:	bf18      	it	ne
 8004642:	2001      	movne	r0, #1
 8004644:	4240      	negs	r0, r0
 8004646:	b002      	add	sp, #8
 8004648:	bd10      	pop	{r4, pc}
 800464a:	f04f 30ff 	mov.w	r0, #4294967295	@ 0xffffffff
 800464e:	e7fa      	b.n	8004646 <WM8994_Pause+0x28>

08004650 <WM8994_Stop>:
 8004650:	b573      	push	{r0, r1, r4, r5, r6, lr}
 8004652:	460e      	mov	r6, r1
 8004654:	2101      	movs	r1, #1
 8004656:	4605      	mov	r5, r0
 8004658:	f7ff ffba 	bl	80045d0 <WM8994_SetMute>
 800465c:	2e01      	cmp	r6, #1
 800465e:	4604      	mov	r4, r0
 8004660:	d039      	beq.n	80046d6 <WM8994_Stop+0x86>
 8004662:	3518      	adds	r5, #24
 8004664:	f44f 7300 	mov.w	r3, #512	@ 0x200
 8004668:	f10d 0206 	add.w	r2, sp, #6
 800466c:	f44f 6184 	mov.w	r1, #1056	@ 0x420
 8004670:	f8ad 3006 	strh.w	r3, [sp, #6]
 8004674:	4628      	mov	r0, r5
 8004676:	2302      	movs	r3, #2
 8004678:	2600      	movs	r6, #0
 800467a:	f000 ff37 	bl	80054ec <wm8994_write_reg>
 800467e:	4404      	add	r4, r0
 8004680:	2302      	movs	r3, #2
 8004682:	f10d 0206 	add.w	r2, sp, #6
 8004686:	f240 4122 	movw	r1, #1058	@ 0x422
 800468a:	4628      	mov	r0, r5
 800468c:	f000 ff2e 	bl	80054ec <wm8994_write_reg>
 8004690:	4404      	add	r4, r0
 8004692:	2302      	movs	r3, #2
 8004694:	f10d 0206 	add.w	r2, sp, #6
 8004698:	212d      	movs	r1, #45	@ 0x2d
 800469a:	4628      	mov	r0, r5
 800469c:	f8ad 6006 	strh.w	r6, [sp, #6]
 80046a0:	f000 ff24 	bl	80054ec <wm8994_write_reg>
 80046a4:	4404      	add	r4, r0
 80046a6:	2302      	movs	r3, #2
 80046a8:	f10d 0206 	add.w	r2, sp, #6
 80046ac:	212e      	movs	r1, #46	@ 0x2e
 80046ae:	4628      	mov	r0, r5
 80046b0:	f000 ff1c 	bl	80054ec <wm8994_write_reg>
 80046b4:	4404      	add	r4, r0
 80046b6:	2302      	movs	r3, #2
 80046b8:	f10d 0206 	add.w	r2, sp, #6
 80046bc:	2105      	movs	r1, #5
 80046be:	4628      	mov	r0, r5
 80046c0:	f000 ff14 	bl	80054ec <wm8994_write_reg>
 80046c4:	4404      	add	r4, r0
 80046c6:	2302      	movs	r3, #2
 80046c8:	f10d 0206 	add.w	r2, sp, #6
 80046cc:	4631      	mov	r1, r6
 80046ce:	4628      	mov	r0, r5
 80046d0:	f000 ff0c 	bl	80054ec <wm8994_write_reg>
 80046d4:	4404      	add	r4, r0
 80046d6:	1e20      	subs	r0, r4, #0
 80046d8:	bf18      	it	ne
 80046da:	2001      	movne	r0, #1
 80046dc:	4240      	negs	r0, r0
 80046de:	b002      	add	sp, #8
 80046e0:	bd70      	pop	{r4, r5, r6, pc}

080046e2 <WM8994_DeInit>:
 80046e2:	2100      	movs	r1, #0
 80046e4:	f7ff bfb4 	b.w	8004650 <WM8994_Stop>

080046e8 <WM8994_SetVolume>:
 80046e8:	2901      	cmp	r1, #1
 80046ea:	b573      	push	{r0, r1, r4, r5, r6, lr}
 80046ec:	4606      	mov	r6, r0
 80046ee:	4615      	mov	r5, r2
 80046f0:	d13d      	bne.n	800476e <WM8994_SetVolume+0x86>
 80046f2:	2a3e      	cmp	r2, #62	@ 0x3e
 80046f4:	d929      	bls.n	800474a <WM8994_SetVolume+0x62>
 80046f6:	2100      	movs	r1, #0
 80046f8:	f7ff ff6a 	bl	80045d0 <WM8994_SetMute>
 80046fc:	f240 137f 	movw	r3, #383	@ 0x17f
 8004700:	4604      	mov	r4, r0
 8004702:	f8ad 3006 	strh.w	r3, [sp, #6]
 8004706:	3618      	adds	r6, #24
 8004708:	2302      	movs	r3, #2
 800470a:	f10d 0206 	add.w	r2, sp, #6
 800470e:	211c      	movs	r1, #28
 8004710:	4630      	mov	r0, r6
 8004712:	f000 feeb 	bl	80054ec <wm8994_write_reg>
 8004716:	4404      	add	r4, r0
 8004718:	2302      	movs	r3, #2
 800471a:	f10d 0206 	add.w	r2, sp, #6
 800471e:	211d      	movs	r1, #29
 8004720:	4630      	mov	r0, r6
 8004722:	f000 fee3 	bl	80054ec <wm8994_write_reg>
 8004726:	4404      	add	r4, r0
 8004728:	2302      	movs	r3, #2
 800472a:	f10d 0206 	add.w	r2, sp, #6
 800472e:	2126      	movs	r1, #38	@ 0x26
 8004730:	4630      	mov	r0, r6
 8004732:	f000 fedb 	bl	80054ec <wm8994_write_reg>
 8004736:	2302      	movs	r3, #2
 8004738:	4404      	add	r4, r0
 800473a:	f10d 0206 	add.w	r2, sp, #6
 800473e:	2127      	movs	r1, #39	@ 0x27
 8004740:	4630      	mov	r0, r6
 8004742:	f000 fed3 	bl	80054ec <wm8994_write_reg>
 8004746:	4420      	add	r0, r4
 8004748:	e002      	b.n	8004750 <WM8994_SetVolume+0x68>
 800474a:	b93a      	cbnz	r2, 800475c <WM8994_SetVolume+0x74>
 800474c:	f7ff ff40 	bl	80045d0 <WM8994_SetMute>
 8004750:	3800      	subs	r0, #0
 8004752:	bf18      	it	ne
 8004754:	2001      	movne	r0, #1
 8004756:	4240      	negs	r0, r0
 8004758:	b002      	add	sp, #8
 800475a:	bd70      	pop	{r4, r5, r6, pc}
 800475c:	f445 75a0 	orr.w	r5, r5, #320	@ 0x140
 8004760:	2100      	movs	r1, #0
 8004762:	f7ff ff35 	bl	80045d0 <WM8994_SetMute>
 8004766:	4604      	mov	r4, r0
 8004768:	f8ad 5006 	strh.w	r5, [sp, #6]
 800476c:	e7cb      	b.n	8004706 <WM8994_SetVolume+0x1e>
 800476e:	3618      	adds	r6, #24
 8004770:	f442 7580 	orr.w	r5, r2, #256	@ 0x100
 8004774:	2302      	movs	r3, #2
 8004776:	f10d 0206 	add.w	r2, sp, #6
 800477a:	f44f 6180 	mov.w	r1, #1024	@ 0x400
 800477e:	4630      	mov	r0, r6
 8004780:	f8ad 5006 	strh.w	r5, [sp, #6]
 8004784:	f000 feb2 	bl	80054ec <wm8994_write_reg>
 8004788:	4604      	mov	r4, r0
 800478a:	2302      	movs	r3, #2
 800478c:	f10d 0206 	add.w	r2, sp, #6
 8004790:	f240 4101 	movw	r1, #1025	@ 0x401
 8004794:	4630      	mov	r0, r6
 8004796:	f000 fea9 	bl	80054ec <wm8994_write_reg>
 800479a:	4404      	add	r4, r0
 800479c:	2302      	movs	r3, #2
 800479e:	f10d 0206 	add.w	r2, sp, #6
 80047a2:	f240 4104 	movw	r1, #1028	@ 0x404
 80047a6:	4630      	mov	r0, r6
 80047a8:	f000 fea0 	bl	80054ec <wm8994_write_reg>
 80047ac:	2302      	movs	r3, #2
 80047ae:	4404      	add	r4, r0
 80047b0:	f10d 0206 	add.w	r2, sp, #6
 80047b4:	f240 4105 	movw	r1, #1029	@ 0x405
 80047b8:	e7c2      	b.n	8004740 <WM8994_SetVolume+0x58>
	...

080047bc <WM8994_SetFrequency>:
 80047bc:	f245 6322 	movw	r3, #22050	@ 0x5622
 80047c0:	4299      	cmp	r1, r3
 80047c2:	b507      	push	{r0, r1, r2, lr}
 80047c4:	f100 0018 	add.w	r0, r0, #24
 80047c8:	d02b      	beq.n	8004822 <WM8994_SetFrequency+0x66>
 80047ca:	d80b      	bhi.n	80047e4 <WM8994_SetFrequency+0x28>
 80047cc:	f642 3311 	movw	r3, #11025	@ 0x2b11
 80047d0:	4299      	cmp	r1, r3
 80047d2:	d024      	beq.n	800481e <WM8994_SetFrequency+0x62>
 80047d4:	f5b1 5f7a 	cmp.w	r1, #16000	@ 0x3e80
 80047d8:	d01d      	beq.n	8004816 <WM8994_SetFrequency+0x5a>
 80047da:	f5b1 5ffa 	cmp.w	r1, #8000	@ 0x1f40
 80047de:	d00d      	beq.n	80047fc <WM8994_SetFrequency+0x40>
 80047e0:	2383      	movs	r3, #131	@ 0x83
 80047e2:	e00c      	b.n	80047fe <WM8994_SetFrequency+0x42>
 80047e4:	f64a 4344 	movw	r3, #44100	@ 0xac44
 80047e8:	4299      	cmp	r1, r3
 80047ea:	d01c      	beq.n	8004826 <WM8994_SetFrequency+0x6a>
 80047ec:	4b0f      	ldr	r3, [pc, #60]	@ (800482c <WM8994_SetFrequency+0x70>)
 80047ee:	4299      	cmp	r1, r3
 80047f0:	d013      	beq.n	800481a <WM8994_SetFrequency+0x5e>
 80047f2:	f5b1 4ffa 	cmp.w	r1, #32000	@ 0x7d00
 80047f6:	d1f3      	bne.n	80047e0 <WM8994_SetFrequency+0x24>
 80047f8:	2363      	movs	r3, #99	@ 0x63
 80047fa:	e000      	b.n	80047fe <WM8994_SetFrequency+0x42>
 80047fc:	2303      	movs	r3, #3
 80047fe:	f8ad 3006 	strh.w	r3, [sp, #6]
 8004802:	f10d 0206 	add.w	r2, sp, #6
 8004806:	2302      	movs	r3, #2
 8004808:	f44f 7104 	mov.w	r1, #528	@ 0x210
 800480c:	f000 fe6e 	bl	80054ec <wm8994_write_reg>
 8004810:	b003      	add	sp, #12
 8004812:	f85d fb04 	ldr.w	pc, [sp], #4
 8004816:	2333      	movs	r3, #51	@ 0x33
 8004818:	e7f1      	b.n	80047fe <WM8994_SetFrequency+0x42>
 800481a:	23a3      	movs	r3, #163	@ 0xa3
 800481c:	e7ef      	b.n	80047fe <WM8994_SetFrequency+0x42>
 800481e:	2313      	movs	r3, #19
 8004820:	e7ed      	b.n	80047fe <WM8994_SetFrequency+0x42>
 8004822:	2343      	movs	r3, #67	@ 0x43
 8004824:	e7eb      	b.n	80047fe <WM8994_SetFrequency+0x42>
 8004826:	2373      	movs	r3, #115	@ 0x73
 8004828:	e7e9      	b.n	80047fe <WM8994_SetFrequency+0x42>
 800482a:	bf00      	nop
 800482c:	00017700 	.word	0x00017700

08004830 <WM8994_ReadID>:
 8004830:	b537      	push	{r0, r1, r2, r4, r5, lr}
 8004832:	4604      	mov	r4, r0
 8004834:	460d      	mov	r5, r1
 8004836:	f854 3b18 	ldr.w	r3, [r4], #24
 800483a:	4798      	blx	r3
 800483c:	f10d 0106 	add.w	r1, sp, #6
 8004840:	4620      	mov	r0, r4
 8004842:	f000 fe6b 	bl	800551c <wm8994_sw_reset_r>
 8004846:	f8bd 3006 	ldrh.w	r3, [sp, #6]
 800484a:	602b      	str	r3, [r5, #0]
 800484c:	b003      	add	sp, #12
 800484e:	bd30      	pop	{r4, r5, pc}

08004850 <WM8994_GetVolume>:
 8004850:	2901      	cmp	r1, #1
 8004852:	b513      	push	{r0, r1, r4, lr}
 8004854:	4614      	mov	r4, r2
 8004856:	f100 0018 	add.w	r0, r0, #24
 800485a:	f10d 0106 	add.w	r1, sp, #6
 800485e:	d111      	bne.n	8004884 <WM8994_GetVolume+0x34>
 8004860:	f000 fe61 	bl	8005526 <wm8994_lo_hpout1l_vol_r>
 8004864:	b118      	cbz	r0, 800486e <WM8994_GetVolume+0x1e>
 8004866:	f04f 30ff 	mov.w	r0, #4294967295	@ 0xffffffff
 800486a:	b002      	add	sp, #8
 800486c:	bd10      	pop	{r4, pc}
 800486e:	2264      	movs	r2, #100	@ 0x64
 8004870:	f8bd 3006 	ldrh.w	r3, [sp, #6]
 8004874:	4353      	muls	r3, r2
 8004876:	223f      	movs	r2, #63	@ 0x3f
 8004878:	2000      	movs	r0, #0
 800487a:	fbb3 f3f2 	udiv	r3, r3, r2
 800487e:	b2db      	uxtb	r3, r3
 8004880:	7023      	strb	r3, [r4, #0]
 8004882:	e7f2      	b.n	800486a <WM8994_GetVolume+0x1a>
 8004884:	f000 fee6 	bl	8005654 <wm8994_aif1_adc1_left_vol_adc1l_r>
 8004888:	2800      	cmp	r0, #0
 800488a:	d1ec      	bne.n	8004866 <WM8994_GetVolume+0x16>
 800488c:	2264      	movs	r2, #100	@ 0x64
 800488e:	f8bd 3006 	ldrh.w	r3, [sp, #6]
 8004892:	4353      	muls	r3, r2
 8004894:	22ef      	movs	r2, #239	@ 0xef
 8004896:	e7ef      	b.n	8004878 <WM8994_GetVolume+0x28>

08004898 <WM8994_SetResolution>:
 8004898:	b289      	uxth	r1, r1
 800489a:	3018      	adds	r0, #24
 800489c:	b508      	push	{r3, lr}
 800489e:	f000 fe8b 	bl	80055b8 <wm8994_aif1_control1_wl>
 80048a2:	3800      	subs	r0, #0
 80048a4:	bf18      	it	ne
 80048a6:	2001      	movne	r0, #1
 80048a8:	4240      	negs	r0, r0
 80048aa:	bd08      	pop	{r3, pc}

080048ac <WM8994_GetResolution>:
 80048ac:	2300      	movs	r3, #0
 80048ae:	b513      	push	{r0, r1, r4, lr}
 80048b0:	460c      	mov	r4, r1
 80048b2:	3018      	adds	r0, #24
 80048b4:	f10d 0106 	add.w	r1, sp, #6
 80048b8:	f8ad 3006 	strh.w	r3, [sp, #6]
 80048bc:	f000 fe9c 	bl	80055f8 <wm8994_aif1_control1_wl_r>
 80048c0:	b958      	cbnz	r0, 80048da <WM8994_GetResolution+0x2e>
 80048c2:	f8bd 3006 	ldrh.w	r3, [sp, #6]
 80048c6:	2b02      	cmp	r3, #2
 80048c8:	d004      	beq.n	80048d4 <WM8994_GetResolution+0x28>
 80048ca:	2b03      	cmp	r3, #3
 80048cc:	d002      	beq.n	80048d4 <WM8994_GetResolution+0x28>
 80048ce:	1e5a      	subs	r2, r3, #1
 80048d0:	4253      	negs	r3, r2
 80048d2:	4153      	adcs	r3, r2
 80048d4:	6023      	str	r3, [r4, #0]
 80048d6:	b002      	add	sp, #8
 80048d8:	bd10      	pop	{r4, pc}
 80048da:	f04f 30ff 	mov.w	r0, #4294967295	@ 0xffffffff
 80048de:	e7fa      	b.n	80048d6 <WM8994_GetResolution+0x2a>

080048e0 <WM8994_SetProtocol>:
 80048e0:	b289      	uxth	r1, r1
 80048e2:	3018      	adds	r0, #24
 80048e4:	b508      	push	{r3, lr}
 80048e6:	f000 fe39 	bl	800555c <wm8994_aif1_control1_fmt>
 80048ea:	3800      	subs	r0, #0
 80048ec:	bf18      	it	ne
 80048ee:	2001      	movne	r0, #1
 80048f0:	4240      	negs	r0, r0
 80048f2:	bd08      	pop	{r3, pc}

080048f4 <WM8994_GetProtocol>:
 80048f4:	b513      	push	{r0, r1, r4, lr}
 80048f6:	460c      	mov	r4, r1
 80048f8:	3018      	adds	r0, #24
 80048fa:	f10d 0106 	add.w	r1, sp, #6
 80048fe:	f000 fe4d 	bl	800559c <wm8994_aif1_control1_fmt_r>
 8004902:	b920      	cbnz	r0, 800490e <WM8994_GetProtocol+0x1a>
 8004904:	f8bd 3006 	ldrh.w	r3, [sp, #6]
 8004908:	6023      	str	r3, [r4, #0]
 800490a:	b002      	add	sp, #8
 800490c:	bd10      	pop	{r4, pc}
 800490e:	f04f 30ff 	mov.w	r0, #4294967295	@ 0xffffffff
 8004912:	e7fa      	b.n	800490a <WM8994_GetProtocol+0x16>

08004914 <WM8994_GetFrequency>:
 8004914:	2300      	movs	r3, #0
 8004916:	b513      	push	{r0, r1, r4, lr}
 8004918:	460c      	mov	r4, r1
 800491a:	3018      	adds	r0, #24
 800491c:	f10d 0106 	add.w	r1, sp, #6
 8004920:	f8ad 3006 	strh.w	r3, [sp, #6]
 8004924:	f000 fe0c 	bl	8005540 <wm8994_aif1_sr_r>
 8004928:	bb20      	cbnz	r0, 8004974 <WM8994_GetFrequency+0x60>
 800492a:	f8bd 3006 	ldrh.w	r3, [sp, #6]
 800492e:	2b0a      	cmp	r3, #10
 8004930:	d80a      	bhi.n	8004948 <WM8994_GetFrequency+0x34>
 8004932:	e8df f003 	tbb	[pc, r3]
 8004936:	0b06      	.short	0x0b06
 8004938:	09110e09 	.word	0x09110e09
 800493c:	091a1714 	.word	0x091a1714
 8004940:	1d          	.byte	0x1d
 8004941:	00          	.byte	0x00
 8004942:	f44f 53fa 	mov.w	r3, #8000	@ 0x1f40
 8004946:	6023      	str	r3, [r4, #0]
 8004948:	b002      	add	sp, #8
 800494a:	bd10      	pop	{r4, pc}
 800494c:	f642 3311 	movw	r3, #11025	@ 0x2b11
 8004950:	e7f9      	b.n	8004946 <WM8994_GetFrequency+0x32>
 8004952:	f44f 537a 	mov.w	r3, #16000	@ 0x3e80
 8004956:	e7f6      	b.n	8004946 <WM8994_GetFrequency+0x32>
 8004958:	f245 6322 	movw	r3, #22050	@ 0x5622
 800495c:	e7f3      	b.n	8004946 <WM8994_GetFrequency+0x32>
 800495e:	f44f 43fa 	mov.w	r3, #32000	@ 0x7d00
 8004962:	e7f0      	b.n	8004946 <WM8994_GetFrequency+0x32>
 8004964:	f64a 4344 	movw	r3, #44100	@ 0xac44
 8004968:	e7ed      	b.n	8004946 <WM8994_GetFrequency+0x32>
 800496a:	f64b 3380 	movw	r3, #48000	@ 0xbb80
 800496e:	e7ea      	b.n	8004946 <WM8994_GetFrequency+0x32>
 8004970:	4b02      	ldr	r3, [pc, #8]	@ (800497c <WM8994_GetFrequency+0x68>)
 8004972:	e7e8      	b.n	8004946 <WM8994_GetFrequency+0x32>
 8004974:	f04f 30ff 	mov.w	r0, #4294967295	@ 0xffffffff
 8004978:	e7e6      	b.n	8004948 <WM8994_GetFrequency+0x34>
 800497a:	bf00      	nop
 800497c:	00017700 	.word	0x00017700

08004980 <WM8994_Reset>:
 8004980:	2100      	movs	r1, #0
 8004982:	3018      	adds	r0, #24
 8004984:	b508      	push	{r3, lr}
 8004986:	f000 fdbd 	bl	8005504 <wm8994_sw_reset_w>
 800498a:	3800      	subs	r0, #0
 800498c:	bf18      	it	ne
 800498e:	2001      	movne	r0, #1
 8004990:	4240      	negs	r0, r0
 8004992:	bd08      	pop	{r3, pc}

08004994 <WM8994_Delay.isra.0>:
 8004994:	b570      	push	{r4, r5, r6, lr}
 8004996:	6943      	ldr	r3, [r0, #20]
 8004998:	4604      	mov	r4, r0
 800499a:	460d      	mov	r5, r1
 800499c:	4798      	blx	r3
 800499e:	4606      	mov	r6, r0
 80049a0:	6963      	ldr	r3, [r4, #20]
 80049a2:	4798      	blx	r3
 80049a4:	1b83      	subs	r3, r0, r6
 80049a6:	42ab      	cmp	r3, r5
 80049a8:	d3fa      	bcc.n	80049a0 <WM8994_Delay.isra.0+0xc>
 80049aa:	bd70      	pop	{r4, r5, r6, pc}

080049ac <WM8994_Init>:
 80049ac:	e92d 47f3 	stmdb	sp!, {r0, r1, r4, r5, r6, r7, r8, r9, sl, lr}
 80049b0:	f100 0418 	add.w	r4, r0, #24
 80049b4:	f04f 0803 	mov.w	r8, #3
 80049b8:	460f      	mov	r7, r1
 80049ba:	2302      	movs	r3, #2
 80049bc:	f10d 0206 	add.w	r2, sp, #6
 80049c0:	f44f 7181 	mov.w	r1, #258	@ 0x102
 80049c4:	4606      	mov	r6, r0
 80049c6:	4620      	mov	r0, r4
 80049c8:	f8ad 8006 	strh.w	r8, [sp, #6]
 80049cc:	f000 fd8e 	bl	80054ec <wm8994_write_reg>
 80049d0:	2300      	movs	r3, #0
 80049d2:	4605      	mov	r5, r0
 80049d4:	f10d 0206 	add.w	r2, sp, #6
 80049d8:	f640 0117 	movw	r1, #2071	@ 0x817
 80049dc:	f8ad 3006 	strh.w	r3, [sp, #6]
 80049e0:	4620      	mov	r0, r4
 80049e2:	2302      	movs	r3, #2
 80049e4:	f000 fd82 	bl	80054ec <wm8994_write_reg>
 80049e8:	2302      	movs	r3, #2
 80049ea:	4405      	add	r5, r0
 80049ec:	f10d 0206 	add.w	r2, sp, #6
 80049f0:	f44f 7181 	mov.w	r1, #258	@ 0x102
 80049f4:	4620      	mov	r0, r4
 80049f6:	f000 fd79 	bl	80054ec <wm8994_write_reg>
 80049fa:	236c      	movs	r3, #108	@ 0x6c
 80049fc:	4405      	add	r5, r0
 80049fe:	f10d 0206 	add.w	r2, sp, #6
 8004a02:	f8ad 3006 	strh.w	r3, [sp, #6]
 8004a06:	2139      	movs	r1, #57	@ 0x39
 8004a08:	2302      	movs	r3, #2
 8004a0a:	4620      	mov	r0, r4
 8004a0c:	f000 fd6e 	bl	80054ec <wm8994_write_reg>
 8004a10:	683b      	ldr	r3, [r7, #0]
 8004a12:	4405      	add	r5, r0
 8004a14:	b1b3      	cbz	r3, 8004a44 <WM8994_Init+0x98>
 8004a16:	2313      	movs	r3, #19
 8004a18:	f8ad 3006 	strh.w	r3, [sp, #6]
 8004a1c:	2302      	movs	r3, #2
 8004a1e:	f10d 0206 	add.w	r2, sp, #6
 8004a22:	2101      	movs	r1, #1
 8004a24:	4620      	mov	r0, r4
 8004a26:	f000 fd61 	bl	80054ec <wm8994_write_reg>
 8004a2a:	2132      	movs	r1, #50	@ 0x32
 8004a2c:	eb05 0800 	add.w	r8, r5, r0
 8004a30:	4630      	mov	r0, r6
 8004a32:	f7ff ffaf 	bl	8004994 <WM8994_Delay.isra.0>
 8004a36:	687b      	ldr	r3, [r7, #4]
 8004a38:	2b03      	cmp	r3, #3
 8004a3a:	d873      	bhi.n	8004b24 <WM8994_Init+0x178>
 8004a3c:	e8df f003 	tbb	[pc, r3]
 8004a40:	2a720560 	.word	0x2a720560
 8004a44:	f8ad 8006 	strh.w	r8, [sp, #6]
 8004a48:	e7e8      	b.n	8004a1c <WM8994_Init+0x70>
 8004a4a:	f640 430c 	movw	r3, #3084	@ 0xc0c
 8004a4e:	f10d 0206 	add.w	r2, sp, #6
 8004a52:	2105      	movs	r1, #5
 8004a54:	4620      	mov	r0, r4
 8004a56:	f8ad 3006 	strh.w	r3, [sp, #6]
 8004a5a:	2302      	movs	r3, #2
 8004a5c:	f000 fd46 	bl	80054ec <wm8994_write_reg>
 8004a60:	2300      	movs	r3, #0
 8004a62:	4480      	add	r8, r0
 8004a64:	f10d 0206 	add.w	r2, sp, #6
 8004a68:	f240 6101 	movw	r1, #1537	@ 0x601
 8004a6c:	f8ad 3006 	strh.w	r3, [sp, #6]
 8004a70:	4620      	mov	r0, r4
 8004a72:	2302      	movs	r3, #2
 8004a74:	2502      	movs	r5, #2
 8004a76:	f000 fd39 	bl	80054ec <wm8994_write_reg>
 8004a7a:	4480      	add	r8, r0
 8004a7c:	2302      	movs	r3, #2
 8004a7e:	f10d 0206 	add.w	r2, sp, #6
 8004a82:	f240 6102 	movw	r1, #1538	@ 0x602
 8004a86:	4620      	mov	r0, r4
 8004a88:	f000 fd30 	bl	80054ec <wm8994_write_reg>
 8004a8c:	f8ad 5006 	strh.w	r5, [sp, #6]
 8004a90:	4480      	add	r8, r0
 8004a92:	e023      	b.n	8004adc <WM8994_Init+0x130>
 8004a94:	6839      	ldr	r1, [r7, #0]
 8004a96:	f640 730f 	movw	r3, #3855	@ 0xf0f
 8004a9a:	f10d 0206 	add.w	r2, sp, #6
 8004a9e:	2905      	cmp	r1, #5
 8004aa0:	f8ad 3006 	strh.w	r3, [sp, #6]
 8004aa4:	f04f 0302 	mov.w	r3, #2
 8004aa8:	d135      	bne.n	8004b16 <WM8994_Init+0x16a>
 8004aaa:	4620      	mov	r0, r4
 8004aac:	f000 fd1e 	bl	80054ec <wm8994_write_reg>
 8004ab0:	2303      	movs	r3, #3
 8004ab2:	4480      	add	r8, r0
 8004ab4:	f10d 0206 	add.w	r2, sp, #6
 8004ab8:	f240 6101 	movw	r1, #1537	@ 0x601
 8004abc:	f8ad 3006 	strh.w	r3, [sp, #6]
 8004ac0:	4620      	mov	r0, r4
 8004ac2:	2302      	movs	r3, #2
 8004ac4:	f000 fd12 	bl	80054ec <wm8994_write_reg>
 8004ac8:	4480      	add	r8, r0
 8004aca:	2302      	movs	r3, #2
 8004acc:	f10d 0206 	add.w	r2, sp, #6
 8004ad0:	f240 6102 	movw	r1, #1538	@ 0x602
 8004ad4:	4620      	mov	r0, r4
 8004ad6:	f000 fd09 	bl	80054ec <wm8994_write_reg>
 8004ada:	4480      	add	r8, r0
 8004adc:	2302      	movs	r3, #2
 8004ade:	f10d 0206 	add.w	r2, sp, #6
 8004ae2:	f240 6104 	movw	r1, #1540	@ 0x604
 8004ae6:	4620      	mov	r0, r4
 8004ae8:	f000 fd00 	bl	80054ec <wm8994_write_reg>
 8004aec:	4480      	add	r8, r0
 8004aee:	2302      	movs	r3, #2
 8004af0:	f10d 0206 	add.w	r2, sp, #6
 8004af4:	f240 6105 	movw	r1, #1541	@ 0x605
 8004af8:	4620      	mov	r0, r4
 8004afa:	f000 fcf7 	bl	80054ec <wm8994_write_reg>
 8004afe:	4480      	add	r8, r0
 8004b00:	683b      	ldr	r3, [r7, #0]
 8004b02:	3b01      	subs	r3, #1
 8004b04:	2b04      	cmp	r3, #4
 8004b06:	d877      	bhi.n	8004bf8 <WM8994_Init+0x24c>
 8004b08:	e8df f013 	tbh	[pc, r3, lsl #1]
 8004b0c:	003101d8 	.word	0x003101d8
 8004b10:	0076017e 	.word	0x0076017e
 8004b14:	0213      	.short	0x0213
 8004b16:	2105      	movs	r1, #5
 8004b18:	4620      	mov	r0, r4
 8004b1a:	f000 fce7 	bl	80054ec <wm8994_write_reg>
 8004b1e:	2301      	movs	r3, #1
 8004b20:	4480      	add	r8, r0
 8004b22:	e79f      	b.n	8004a64 <WM8994_Init+0xb8>
 8004b24:	f240 3303 	movw	r3, #771	@ 0x303
 8004b28:	f10d 0206 	add.w	r2, sp, #6
 8004b2c:	2105      	movs	r1, #5
 8004b2e:	4620      	mov	r0, r4
 8004b30:	f8ad 3006 	strh.w	r3, [sp, #6]
 8004b34:	2302      	movs	r3, #2
 8004b36:	f000 fcd9 	bl	80054ec <wm8994_write_reg>
 8004b3a:	2301      	movs	r3, #1
 8004b3c:	4480      	add	r8, r0
 8004b3e:	f10d 0206 	add.w	r2, sp, #6
 8004b42:	f240 6101 	movw	r1, #1537	@ 0x601
 8004b46:	f8ad 3006 	strh.w	r3, [sp, #6]
 8004b4a:	4620      	mov	r0, r4
 8004b4c:	2302      	movs	r3, #2
 8004b4e:	f000 fccd 	bl	80054ec <wm8994_write_reg>
 8004b52:	2302      	movs	r3, #2
 8004b54:	4480      	add	r8, r0
 8004b56:	f10d 0206 	add.w	r2, sp, #6
 8004b5a:	f240 6102 	movw	r1, #1538	@ 0x602
 8004b5e:	4620      	mov	r0, r4
 8004b60:	f000 fcc4 	bl	80054ec <wm8994_write_reg>
 8004b64:	2300      	movs	r3, #0
 8004b66:	4480      	add	r8, r0
 8004b68:	f8ad 3006 	strh.w	r3, [sp, #6]
 8004b6c:	e7b6      	b.n	8004adc <WM8994_Init+0x130>
 8004b6e:	f44f 6343 	mov.w	r3, #3120	@ 0xc30
 8004b72:	f10d 0206 	add.w	r2, sp, #6
 8004b76:	2104      	movs	r1, #4
 8004b78:	4620      	mov	r0, r4
 8004b7a:	f8ad 3006 	strh.w	r3, [sp, #6]
 8004b7e:	2302      	movs	r3, #2
 8004b80:	f000 fcb4 	bl	80054ec <wm8994_write_reg>
 8004b84:	23db      	movs	r3, #219	@ 0xdb
 8004b86:	4480      	add	r8, r0
 8004b88:	f10d 0206 	add.w	r2, sp, #6
 8004b8c:	f44f 618a 	mov.w	r1, #1104	@ 0x450
 8004b90:	f8ad 3006 	strh.w	r3, [sp, #6]
 8004b94:	4620      	mov	r0, r4
 8004b96:	2302      	movs	r3, #2
 8004b98:	f000 fca8 	bl	80054ec <wm8994_write_reg>
 8004b9c:	f44f 43c0 	mov.w	r3, #24576	@ 0x6000
 8004ba0:	4480      	add	r8, r0
 8004ba2:	2502      	movs	r5, #2
 8004ba4:	f8ad 3006 	strh.w	r3, [sp, #6]
 8004ba8:	2302      	movs	r3, #2
 8004baa:	f10d 0206 	add.w	r2, sp, #6
 8004bae:	4620      	mov	r0, r4
 8004bb0:	4619      	mov	r1, r3
 8004bb2:	f000 fc9b 	bl	80054ec <wm8994_write_reg>
 8004bb6:	4480      	add	r8, r0
 8004bb8:	462b      	mov	r3, r5
 8004bba:	f10d 0206 	add.w	r2, sp, #6
 8004bbe:	f44f 61c1 	mov.w	r1, #1544	@ 0x608
 8004bc2:	4620      	mov	r0, r4
 8004bc4:	f8ad 5006 	strh.w	r5, [sp, #6]
 8004bc8:	f000 fc90 	bl	80054ec <wm8994_write_reg>
 8004bcc:	4480      	add	r8, r0
 8004bce:	462b      	mov	r3, r5
 8004bd0:	f10d 0206 	add.w	r2, sp, #6
 8004bd4:	f240 6109 	movw	r1, #1545	@ 0x609
 8004bd8:	4620      	mov	r0, r4
 8004bda:	f000 fc87 	bl	80054ec <wm8994_write_reg>
 8004bde:	230e      	movs	r3, #14
 8004be0:	4480      	add	r8, r0
 8004be2:	f8ad 3006 	strh.w	r3, [sp, #6]
 8004be6:	f10d 0206 	add.w	r2, sp, #6
 8004bea:	462b      	mov	r3, r5
 8004bec:	f44f 61e0 	mov.w	r1, #1792	@ 0x700
 8004bf0:	4620      	mov	r0, r4
 8004bf2:	f000 fc7b 	bl	80054ec <wm8994_write_reg>
 8004bf6:	4480      	add	r8, r0
 8004bf8:	68b9      	ldr	r1, [r7, #8]
 8004bfa:	4630      	mov	r0, r6
 8004bfc:	f7ff fdde 	bl	80047bc <WM8994_SetFrequency>
 8004c00:	683b      	ldr	r3, [r7, #0]
 8004c02:	eb08 0500 	add.w	r5, r8, r0
 8004c06:	2b05      	cmp	r3, #5
 8004c08:	f040 81e4 	bne.w	8004fd4 <WM8994_Init+0x628>
 8004c0c:	2100      	movs	r1, #0
 8004c0e:	4630      	mov	r0, r6
 8004c10:	f7ff fe42 	bl	8004898 <WM8994_SetResolution>
 8004c14:	2103      	movs	r1, #3
 8004c16:	4405      	add	r5, r0
 8004c18:	4630      	mov	r0, r6
 8004c1a:	f7ff fe61 	bl	80048e0 <WM8994_SetProtocol>
 8004c1e:	2101      	movs	r1, #1
 8004c20:	4405      	add	r5, r0
 8004c22:	4620      	mov	r0, r4
 8004c24:	f000 fcf6 	bl	8005614 <wm8994_aif1_control1_adcr_src>
 8004c28:	2300      	movs	r3, #0
 8004c2a:	4405      	add	r5, r0
 8004c2c:	f10d 0206 	add.w	r2, sp, #6
 8004c30:	f240 3102 	movw	r1, #770	@ 0x302
 8004c34:	f8ad 3006 	strh.w	r3, [sp, #6]
 8004c38:	4620      	mov	r0, r4
 8004c3a:	2302      	movs	r3, #2
 8004c3c:	f000 fc56 	bl	80054ec <wm8994_write_reg>
 8004c40:	230a      	movs	r3, #10
 8004c42:	4405      	add	r5, r0
 8004c44:	f10d 0206 	add.w	r2, sp, #6
 8004c48:	f44f 7102 	mov.w	r1, #520	@ 0x208
 8004c4c:	f8ad 3006 	strh.w	r3, [sp, #6]
 8004c50:	4620      	mov	r0, r4
 8004c52:	2302      	movs	r3, #2
 8004c54:	f000 fc4a 	bl	80054ec <wm8994_write_reg>
 8004c58:	2301      	movs	r3, #1
 8004c5a:	4405      	add	r5, r0
 8004c5c:	f10d 0206 	add.w	r2, sp, #6
 8004c60:	f8ad 3006 	strh.w	r3, [sp, #6]
 8004c64:	f44f 7100 	mov.w	r1, #512	@ 0x200
 8004c68:	2302      	movs	r3, #2
 8004c6a:	4620      	mov	r0, r4
 8004c6c:	f000 fc3e 	bl	80054ec <wm8994_write_reg>
 8004c70:	f8d7 9004 	ldr.w	r9, [r7, #4]
 8004c74:	4405      	add	r5, r0
 8004c76:	f1b9 0f00 	cmp.w	r9, #0
 8004c7a:	f000 808d 	beq.w	8004d98 <WM8994_Init+0x3ec>
 8004c7e:	f1b9 0f02 	cmp.w	r9, #2
 8004c82:	f040 81bd 	bne.w	8005000 <WM8994_Init+0x654>
 8004c86:	f8d7 8000 	ldr.w	r8, [r7]
 8004c8a:	f1b8 0f00 	cmp.w	r8, #0
 8004c8e:	f040 81b7 	bne.w	8005000 <WM8994_Init+0x654>
 8004c92:	f44f 7380 	mov.w	r3, #256	@ 0x100
 8004c96:	f10d 0206 	add.w	r2, sp, #6
 8004c9a:	212d      	movs	r1, #45	@ 0x2d
 8004c9c:	4620      	mov	r0, r4
 8004c9e:	f8ad 3006 	strh.w	r3, [sp, #6]
 8004ca2:	464b      	mov	r3, r9
 8004ca4:	f8df a52c 	ldr.w	sl, [pc, #1324]	@ 80051d4 <WM8994_Init+0x828>
 8004ca8:	f000 fc20 	bl	80054ec <wm8994_write_reg>
 8004cac:	464b      	mov	r3, r9
 8004cae:	4405      	add	r5, r0
 8004cb0:	f10d 0206 	add.w	r2, sp, #6
 8004cb4:	212e      	movs	r1, #46	@ 0x2e
 8004cb6:	4620      	mov	r0, r4
 8004cb8:	f000 fc18 	bl	80054ec <wm8994_write_reg>
 8004cbc:	f89a 3000 	ldrb.w	r3, [sl]
 8004cc0:	4405      	add	r5, r0
 8004cc2:	2b01      	cmp	r3, #1
 8004cc4:	f040 818d 	bne.w	8004fe2 <WM8994_Init+0x636>
 8004cc8:	f44f 4301 	mov.w	r3, #33024	@ 0x8100
 8004ccc:	f44f 7188 	mov.w	r1, #272	@ 0x110
 8004cd0:	f10d 0206 	add.w	r2, sp, #6
 8004cd4:	4620      	mov	r0, r4
 8004cd6:	f8ad 3006 	strh.w	r3, [sp, #6]
 8004cda:	464b      	mov	r3, r9
 8004cdc:	f000 fc06 	bl	80054ec <wm8994_write_reg>
 8004ce0:	f240 1145 	movw	r1, #325	@ 0x145
 8004ce4:	4405      	add	r5, r0
 8004ce6:	f88a 8000 	strb.w	r8, [sl]
 8004cea:	4630      	mov	r0, r6
 8004cec:	f7ff fe52 	bl	8004994 <WM8994_Delay.isra.0>
 8004cf0:	2300      	movs	r3, #0
 8004cf2:	f10d 0206 	add.w	r2, sp, #6
 8004cf6:	f44f 6184 	mov.w	r1, #1056	@ 0x420
 8004cfa:	f8ad 3006 	strh.w	r3, [sp, #6]
 8004cfe:	2302      	movs	r3, #2
 8004d00:	4620      	mov	r0, r4
 8004d02:	f04f 09c0 	mov.w	r9, #192	@ 0xc0
 8004d06:	f000 fbf1 	bl	80054ec <wm8994_write_reg>
 8004d0a:	4405      	add	r5, r0
 8004d0c:	2302      	movs	r3, #2
 8004d0e:	f10d 0206 	add.w	r2, sp, #6
 8004d12:	f44f 61c2 	mov.w	r1, #1552	@ 0x610
 8004d16:	4620      	mov	r0, r4
 8004d18:	f8ad 9006 	strh.w	r9, [sp, #6]
 8004d1c:	f000 fbe6 	bl	80054ec <wm8994_write_reg>
 8004d20:	4405      	add	r5, r0
 8004d22:	2302      	movs	r3, #2
 8004d24:	f10d 0206 	add.w	r2, sp, #6
 8004d28:	f240 6111 	movw	r1, #1553	@ 0x611
 8004d2c:	4620      	mov	r0, r4
 8004d2e:	f04f 0810 	mov.w	r8, #16
 8004d32:	f000 fbdb 	bl	80054ec <wm8994_write_reg>
 8004d36:	4405      	add	r5, r0
 8004d38:	2302      	movs	r3, #2
 8004d3a:	f10d 0206 	add.w	r2, sp, #6
 8004d3e:	f44f 6184 	mov.w	r1, #1056	@ 0x420
 8004d42:	4620      	mov	r0, r4
 8004d44:	f8ad 8006 	strh.w	r8, [sp, #6]
 8004d48:	f000 fbd0 	bl	80054ec <wm8994_write_reg>
 8004d4c:	4405      	add	r5, r0
 8004d4e:	2302      	movs	r3, #2
 8004d50:	f10d 0206 	add.w	r2, sp, #6
 8004d54:	f240 6112 	movw	r1, #1554	@ 0x612
 8004d58:	4620      	mov	r0, r4
 8004d5a:	f8ad 9006 	strh.w	r9, [sp, #6]
 8004d5e:	f000 fbc5 	bl	80054ec <wm8994_write_reg>
 8004d62:	4405      	add	r5, r0
 8004d64:	2302      	movs	r3, #2
 8004d66:	f10d 0206 	add.w	r2, sp, #6
 8004d6a:	f240 6113 	movw	r1, #1555	@ 0x613
 8004d6e:	4620      	mov	r0, r4
 8004d70:	f000 fbbc 	bl	80054ec <wm8994_write_reg>
 8004d74:	4405      	add	r5, r0
 8004d76:	2302      	movs	r3, #2
 8004d78:	f10d 0206 	add.w	r2, sp, #6
 8004d7c:	f240 4122 	movw	r1, #1058	@ 0x422
 8004d80:	4620      	mov	r0, r4
 8004d82:	f8ad 8006 	strh.w	r8, [sp, #6]
 8004d86:	f000 fbb1 	bl	80054ec <wm8994_write_reg>
 8004d8a:	4405      	add	r5, r0
 8004d8c:	7c3a      	ldrb	r2, [r7, #16]
 8004d8e:	2101      	movs	r1, #1
 8004d90:	4630      	mov	r0, r6
 8004d92:	f7ff fca9 	bl	80046e8 <WM8994_SetVolume>
 8004d96:	4405      	add	r5, r0
 8004d98:	683b      	ldr	r3, [r7, #0]
 8004d9a:	b373      	cbz	r3, 8004dfa <WM8994_Init+0x44e>
 8004d9c:	1e5a      	subs	r2, r3, #1
 8004d9e:	2a01      	cmp	r2, #1
 8004da0:	f200 81d2 	bhi.w	8005148 <WM8994_Init+0x79c>
 8004da4:	2313      	movs	r3, #19
 8004da6:	f10d 0206 	add.w	r2, sp, #6
 8004daa:	2101      	movs	r1, #1
 8004dac:	f04f 0802 	mov.w	r8, #2
 8004db0:	f8ad 3006 	strh.w	r3, [sp, #6]
 8004db4:	4620      	mov	r0, r4
 8004db6:	2302      	movs	r3, #2
 8004db8:	f000 fb98 	bl	80054ec <wm8994_write_reg>
 8004dbc:	4405      	add	r5, r0
 8004dbe:	4643      	mov	r3, r8
 8004dc0:	f10d 0206 	add.w	r2, sp, #6
 8004dc4:	f44f 61c4 	mov.w	r1, #1568	@ 0x620
 8004dc8:	4620      	mov	r0, r4
 8004dca:	f8ad 8006 	strh.w	r8, [sp, #6]
 8004dce:	f000 fb8d 	bl	80054ec <wm8994_write_reg>
 8004dd2:	f44f 5360 	mov.w	r3, #14336	@ 0x3800
 8004dd6:	4405      	add	r5, r0
 8004dd8:	f8ad 3006 	strh.w	r3, [sp, #6]
 8004ddc:	4643      	mov	r3, r8
 8004dde:	f10d 0206 	add.w	r2, sp, #6
 8004de2:	f240 4111 	movw	r1, #1041	@ 0x411
 8004de6:	4620      	mov	r0, r4
 8004de8:	f000 fb80 	bl	80054ec <wm8994_write_reg>
 8004dec:	4405      	add	r5, r0
 8004dee:	7c3a      	ldrb	r2, [r7, #16]
 8004df0:	2100      	movs	r1, #0
 8004df2:	4630      	mov	r0, r6
 8004df4:	f7ff fc78 	bl	80046e8 <WM8994_SetVolume>
 8004df8:	4405      	add	r5, r0
 8004dfa:	1e28      	subs	r0, r5, #0
 8004dfc:	bf18      	it	ne
 8004dfe:	2001      	movne	r0, #1
 8004e00:	4240      	negs	r0, r0
 8004e02:	b002      	add	sp, #8
 8004e04:	e8bd 87f0 	ldmia.w	sp!, {r4, r5, r6, r7, r8, r9, sl, pc}
 8004e08:	2311      	movs	r3, #17
 8004e0a:	f10d 0206 	add.w	r2, sp, #6
 8004e0e:	2128      	movs	r1, #40	@ 0x28
 8004e10:	4620      	mov	r0, r4
 8004e12:	f8ad 3006 	strh.w	r3, [sp, #6]
 8004e16:	2302      	movs	r3, #2
 8004e18:	f000 fb68 	bl	80054ec <wm8994_write_reg>
 8004e1c:	2335      	movs	r3, #53	@ 0x35
 8004e1e:	4480      	add	r8, r0
 8004e20:	f10d 0206 	add.w	r2, sp, #6
 8004e24:	2129      	movs	r1, #41	@ 0x29
 8004e26:	f8ad 3006 	strh.w	r3, [sp, #6]
 8004e2a:	4620      	mov	r0, r4
 8004e2c:	2302      	movs	r3, #2
 8004e2e:	f000 fb5d 	bl	80054ec <wm8994_write_reg>
 8004e32:	2302      	movs	r3, #2
 8004e34:	4480      	add	r8, r0
 8004e36:	f10d 0206 	add.w	r2, sp, #6
 8004e3a:	212a      	movs	r1, #42	@ 0x2a
 8004e3c:	4620      	mov	r0, r4
 8004e3e:	f000 fb55 	bl	80054ec <wm8994_write_reg>
 8004e42:	f240 3303 	movw	r3, #771	@ 0x303
 8004e46:	4480      	add	r8, r0
 8004e48:	f10d 0206 	add.w	r2, sp, #6
 8004e4c:	2104      	movs	r1, #4
 8004e4e:	f8ad 3006 	strh.w	r3, [sp, #6]
 8004e52:	4620      	mov	r0, r4
 8004e54:	2302      	movs	r3, #2
 8004e56:	f000 fb49 	bl	80054ec <wm8994_write_reg>
 8004e5a:	23db      	movs	r3, #219	@ 0xdb
 8004e5c:	4480      	add	r8, r0
 8004e5e:	f10d 0206 	add.w	r2, sp, #6
 8004e62:	f44f 6188 	mov.w	r1, #1088	@ 0x440
 8004e66:	f8ad 3006 	strh.w	r3, [sp, #6]
 8004e6a:	4620      	mov	r0, r4
 8004e6c:	2302      	movs	r3, #2
 8004e6e:	f000 fb3d 	bl	80054ec <wm8994_write_reg>
 8004e72:	f246 3350 	movw	r3, #25424	@ 0x6350
 8004e76:	4480      	add	r8, r0
 8004e78:	2502      	movs	r5, #2
 8004e7a:	f8ad 3006 	strh.w	r3, [sp, #6]
 8004e7e:	2302      	movs	r3, #2
 8004e80:	f10d 0206 	add.w	r2, sp, #6
 8004e84:	4620      	mov	r0, r4
 8004e86:	4619      	mov	r1, r3
 8004e88:	f000 fb30 	bl	80054ec <wm8994_write_reg>
 8004e8c:	4480      	add	r8, r0
 8004e8e:	462b      	mov	r3, r5
 8004e90:	f10d 0206 	add.w	r2, sp, #6
 8004e94:	f240 6106 	movw	r1, #1542	@ 0x606
 8004e98:	4620      	mov	r0, r4
 8004e9a:	f8ad 5006 	strh.w	r5, [sp, #6]
 8004e9e:	f000 fb25 	bl	80054ec <wm8994_write_reg>
 8004ea2:	4480      	add	r8, r0
 8004ea4:	462b      	mov	r3, r5
 8004ea6:	f10d 0206 	add.w	r2, sp, #6
 8004eaa:	f240 6107 	movw	r1, #1543	@ 0x607
 8004eae:	4620      	mov	r0, r4
 8004eb0:	f000 fb1c 	bl	80054ec <wm8994_write_reg>
 8004eb4:	f248 030d 	movw	r3, #32781	@ 0x800d
 8004eb8:	4480      	add	r8, r0
 8004eba:	e692      	b.n	8004be2 <WM8994_Init+0x236>
 8004ebc:	f44f 7343 	mov.w	r3, #780	@ 0x30c
 8004ec0:	f10d 0206 	add.w	r2, sp, #6
 8004ec4:	2104      	movs	r1, #4
 8004ec6:	4620      	mov	r0, r4
 8004ec8:	f8ad 3006 	strh.w	r3, [sp, #6]
 8004ecc:	2302      	movs	r3, #2
 8004ece:	f000 fb0d 	bl	80054ec <wm8994_write_reg>
 8004ed2:	23db      	movs	r3, #219	@ 0xdb
 8004ed4:	4480      	add	r8, r0
 8004ed6:	f10d 0206 	add.w	r2, sp, #6
 8004eda:	f44f 6188 	mov.w	r1, #1088	@ 0x440
 8004ede:	f8ad 3006 	strh.w	r3, [sp, #6]
 8004ee2:	4620      	mov	r0, r4
 8004ee4:	2302      	movs	r3, #2
 8004ee6:	f000 fb01 	bl	80054ec <wm8994_write_reg>
 8004eea:	f246 3350 	movw	r3, #25424	@ 0x6350
 8004eee:	4480      	add	r8, r0
 8004ef0:	2502      	movs	r5, #2
 8004ef2:	f8ad 3006 	strh.w	r3, [sp, #6]
 8004ef6:	2302      	movs	r3, #2
 8004ef8:	f10d 0206 	add.w	r2, sp, #6
 8004efc:	4620      	mov	r0, r4
 8004efe:	4619      	mov	r1, r3
 8004f00:	f000 faf4 	bl	80054ec <wm8994_write_reg>
 8004f04:	4480      	add	r8, r0
 8004f06:	462b      	mov	r3, r5
 8004f08:	f10d 0206 	add.w	r2, sp, #6
 8004f0c:	f240 6106 	movw	r1, #1542	@ 0x606
 8004f10:	4620      	mov	r0, r4
 8004f12:	f8ad 5006 	strh.w	r5, [sp, #6]
 8004f16:	f000 fae9 	bl	80054ec <wm8994_write_reg>
 8004f1a:	462b      	mov	r3, r5
 8004f1c:	4480      	add	r8, r0
 8004f1e:	f10d 0206 	add.w	r2, sp, #6
 8004f22:	f240 6107 	movw	r1, #1543	@ 0x607
 8004f26:	4620      	mov	r0, r4
 8004f28:	f000 fae0 	bl	80054ec <wm8994_write_reg>
 8004f2c:	230d      	movs	r3, #13
 8004f2e:	4480      	add	r8, r0
 8004f30:	e657      	b.n	8004be2 <WM8994_Init+0x236>
 8004f32:	f640 733c 	movw	r3, #3900	@ 0xf3c
 8004f36:	f10d 0206 	add.w	r2, sp, #6
 8004f3a:	2104      	movs	r1, #4
 8004f3c:	4620      	mov	r0, r4
 8004f3e:	f8ad 3006 	strh.w	r3, [sp, #6]
 8004f42:	2302      	movs	r3, #2
 8004f44:	f000 fad2 	bl	80054ec <wm8994_write_reg>
 8004f48:	23db      	movs	r3, #219	@ 0xdb
 8004f4a:	4480      	add	r8, r0
 8004f4c:	f10d 0206 	add.w	r2, sp, #6
 8004f50:	f44f 618a 	mov.w	r1, #1104	@ 0x450
 8004f54:	f8ad 3006 	strh.w	r3, [sp, #6]
 8004f58:	4620      	mov	r0, r4
 8004f5a:	2302      	movs	r3, #2
 8004f5c:	f000 fac6 	bl	80054ec <wm8994_write_reg>
 8004f60:	2302      	movs	r3, #2
 8004f62:	4480      	add	r8, r0
 8004f64:	f10d 0206 	add.w	r2, sp, #6
 8004f68:	f44f 6188 	mov.w	r1, #1088	@ 0x440
 8004f6c:	4620      	mov	r0, r4
 8004f6e:	f000 fabd 	bl	80054ec <wm8994_write_reg>
 8004f72:	f246 33a0 	movw	r3, #25504	@ 0x63a0
 8004f76:	4480      	add	r8, r0
 8004f78:	2502      	movs	r5, #2
 8004f7a:	f8ad 3006 	strh.w	r3, [sp, #6]
 8004f7e:	2302      	movs	r3, #2
 8004f80:	f10d 0206 	add.w	r2, sp, #6
 8004f84:	4620      	mov	r0, r4
 8004f86:	4619      	mov	r1, r3
 8004f88:	f000 fab0 	bl	80054ec <wm8994_write_reg>
 8004f8c:	4480      	add	r8, r0
 8004f8e:	462b      	mov	r3, r5
 8004f90:	f10d 0206 	add.w	r2, sp, #6
 8004f94:	f240 6106 	movw	r1, #1542	@ 0x606
 8004f98:	4620      	mov	r0, r4
 8004f9a:	f8ad 5006 	strh.w	r5, [sp, #6]
 8004f9e:	f000 faa5 	bl	80054ec <wm8994_write_reg>
 8004fa2:	4480      	add	r8, r0
 8004fa4:	462b      	mov	r3, r5
 8004fa6:	f10d 0206 	add.w	r2, sp, #6
 8004faa:	f240 6107 	movw	r1, #1543	@ 0x607
 8004fae:	4620      	mov	r0, r4
 8004fb0:	f000 fa9c 	bl	80054ec <wm8994_write_reg>
 8004fb4:	4480      	add	r8, r0
 8004fb6:	462b      	mov	r3, r5
 8004fb8:	f10d 0206 	add.w	r2, sp, #6
 8004fbc:	f44f 61c1 	mov.w	r1, #1544	@ 0x608
 8004fc0:	4620      	mov	r0, r4
 8004fc2:	f000 fa93 	bl	80054ec <wm8994_write_reg>
 8004fc6:	462b      	mov	r3, r5
 8004fc8:	4480      	add	r8, r0
 8004fca:	f10d 0206 	add.w	r2, sp, #6
 8004fce:	f240 6109 	movw	r1, #1545	@ 0x609
 8004fd2:	e7a8      	b.n	8004f26 <WM8994_Init+0x57a>
 8004fd4:	68f9      	ldr	r1, [r7, #12]
 8004fd6:	4630      	mov	r0, r6
 8004fd8:	f7ff fc5e 	bl	8004898 <WM8994_SetResolution>
 8004fdc:	2102      	movs	r1, #2
 8004fde:	4405      	add	r5, r0
 8004fe0:	e61a      	b.n	8004c18 <WM8994_Init+0x26c>
 8004fe2:	f248 1308 	movw	r3, #33032	@ 0x8108
 8004fe6:	f44f 7188 	mov.w	r1, #272	@ 0x110
 8004fea:	f10d 0206 	add.w	r2, sp, #6
 8004fee:	4620      	mov	r0, r4
 8004ff0:	f8ad 3006 	strh.w	r3, [sp, #6]
 8004ff4:	464b      	mov	r3, r9
 8004ff6:	f000 fa79 	bl	80054ec <wm8994_write_reg>
 8004ffa:	2132      	movs	r1, #50	@ 0x32
 8004ffc:	4405      	add	r5, r0
 8004ffe:	e674      	b.n	8004cea <WM8994_Init+0x33e>
 8005000:	f44f 7840 	mov.w	r8, #768	@ 0x300
 8005004:	2302      	movs	r3, #2
 8005006:	f10d 0206 	add.w	r2, sp, #6
 800500a:	2103      	movs	r1, #3
 800500c:	4620      	mov	r0, r4
 800500e:	f8ad 8006 	strh.w	r8, [sp, #6]
 8005012:	f000 fa6b 	bl	80054ec <wm8994_write_reg>
 8005016:	2300      	movs	r3, #0
 8005018:	4405      	add	r5, r0
 800501a:	f10d 0206 	add.w	r2, sp, #6
 800501e:	2122      	movs	r1, #34	@ 0x22
 8005020:	f8ad 3006 	strh.w	r3, [sp, #6]
 8005024:	4620      	mov	r0, r4
 8005026:	2302      	movs	r3, #2
 8005028:	f000 fa60 	bl	80054ec <wm8994_write_reg>
 800502c:	4405      	add	r5, r0
 800502e:	2302      	movs	r3, #2
 8005030:	f10d 0206 	add.w	r2, sp, #6
 8005034:	2123      	movs	r1, #35	@ 0x23
 8005036:	4620      	mov	r0, r4
 8005038:	f000 fa58 	bl	80054ec <wm8994_write_reg>
 800503c:	2302      	movs	r3, #2
 800503e:	4405      	add	r5, r0
 8005040:	f10d 0206 	add.w	r2, sp, #6
 8005044:	2136      	movs	r1, #54	@ 0x36
 8005046:	4620      	mov	r0, r4
 8005048:	f8ad 8006 	strh.w	r8, [sp, #6]
 800504c:	f000 fa4e 	bl	80054ec <wm8994_write_reg>
 8005050:	f243 0303 	movw	r3, #12291	@ 0x3003
 8005054:	4405      	add	r5, r0
 8005056:	f10d 0206 	add.w	r2, sp, #6
 800505a:	2101      	movs	r1, #1
 800505c:	f8ad 3006 	strh.w	r3, [sp, #6]
 8005060:	4620      	mov	r0, r4
 8005062:	2302      	movs	r3, #2
 8005064:	f000 fa42 	bl	80054ec <wm8994_write_reg>
 8005068:	683b      	ldr	r3, [r7, #0]
 800506a:	4405      	add	r5, r0
 800506c:	f10d 0206 	add.w	r2, sp, #6
 8005070:	2b05      	cmp	r3, #5
 8005072:	f04f 0151 	mov.w	r1, #81	@ 0x51
 8005076:	4620      	mov	r0, r4
 8005078:	bf0c      	ite	eq
 800507a:	f240 2305 	movweq	r3, #517	@ 0x205
 800507e:	2305      	movne	r3, #5
 8005080:	f8ad 3006 	strh.w	r3, [sp, #6]
 8005084:	2302      	movs	r3, #2
 8005086:	f000 fa31 	bl	80054ec <wm8994_write_reg>
 800508a:	f243 3303 	movw	r3, #13059	@ 0x3303
 800508e:	4405      	add	r5, r0
 8005090:	f10d 0206 	add.w	r2, sp, #6
 8005094:	2101      	movs	r1, #1
 8005096:	f8ad 3006 	strh.w	r3, [sp, #6]
 800509a:	4620      	mov	r0, r4
 800509c:	2302      	movs	r3, #2
 800509e:	f000 fa25 	bl	80054ec <wm8994_write_reg>
 80050a2:	2322      	movs	r3, #34	@ 0x22
 80050a4:	4405      	add	r5, r0
 80050a6:	f10d 0206 	add.w	r2, sp, #6
 80050aa:	2160      	movs	r1, #96	@ 0x60
 80050ac:	f8ad 3006 	strh.w	r3, [sp, #6]
 80050b0:	4620      	mov	r0, r4
 80050b2:	2302      	movs	r3, #2
 80050b4:	f000 fa1a 	bl	80054ec <wm8994_write_reg>
 80050b8:	f649 7325 	movw	r3, #40741	@ 0x9f25
 80050bc:	4405      	add	r5, r0
 80050be:	f10d 0206 	add.w	r2, sp, #6
 80050c2:	214c      	movs	r1, #76	@ 0x4c
 80050c4:	f8ad 3006 	strh.w	r3, [sp, #6]
 80050c8:	4620      	mov	r0, r4
 80050ca:	2302      	movs	r3, #2
 80050cc:	f000 fa0e 	bl	80054ec <wm8994_write_reg>
 80050d0:	210f      	movs	r1, #15
 80050d2:	4405      	add	r5, r0
 80050d4:	4630      	mov	r0, r6
 80050d6:	f7ff fc5d 	bl	8004994 <WM8994_Delay.isra.0>
 80050da:	2301      	movs	r3, #1
 80050dc:	f10d 0206 	add.w	r2, sp, #6
 80050e0:	212d      	movs	r1, #45	@ 0x2d
 80050e2:	f8ad 3006 	strh.w	r3, [sp, #6]
 80050e6:	4620      	mov	r0, r4
 80050e8:	2302      	movs	r3, #2
 80050ea:	f000 f9ff 	bl	80054ec <wm8994_write_reg>
 80050ee:	2302      	movs	r3, #2
 80050f0:	4405      	add	r5, r0
 80050f2:	f10d 0206 	add.w	r2, sp, #6
 80050f6:	212e      	movs	r1, #46	@ 0x2e
 80050f8:	4620      	mov	r0, r4
 80050fa:	f000 f9f7 	bl	80054ec <wm8994_write_reg>
 80050fe:	f44f 734c 	mov.w	r3, #816	@ 0x330
 8005102:	4405      	add	r5, r0
 8005104:	f10d 0206 	add.w	r2, sp, #6
 8005108:	2103      	movs	r1, #3
 800510a:	f8ad 3006 	strh.w	r3, [sp, #6]
 800510e:	4620      	mov	r0, r4
 8005110:	2302      	movs	r3, #2
 8005112:	f000 f9eb 	bl	80054ec <wm8994_write_reg>
 8005116:	2333      	movs	r3, #51	@ 0x33
 8005118:	4405      	add	r5, r0
 800511a:	f10d 0206 	add.w	r2, sp, #6
 800511e:	2154      	movs	r1, #84	@ 0x54
 8005120:	f8ad 3006 	strh.w	r3, [sp, #6]
 8005124:	4620      	mov	r0, r4
 8005126:	2302      	movs	r3, #2
 8005128:	f000 f9e0 	bl	80054ec <wm8994_write_reg>
 800512c:	f240 1101 	movw	r1, #257	@ 0x101
 8005130:	4405      	add	r5, r0
 8005132:	4630      	mov	r0, r6
 8005134:	f7ff fc2e 	bl	8004994 <WM8994_Delay.isra.0>
 8005138:	23ee      	movs	r3, #238	@ 0xee
 800513a:	f10d 0206 	add.w	r2, sp, #6
 800513e:	2160      	movs	r1, #96	@ 0x60
 8005140:	f8ad 3006 	strh.w	r3, [sp, #6]
 8005144:	2302      	movs	r3, #2
 8005146:	e5db      	b.n	8004d00 <WM8994_Init+0x354>
 8005148:	2b05      	cmp	r3, #5
 800514a:	d125      	bne.n	8005198 <WM8994_Init+0x7ec>
 800514c:	2313      	movs	r3, #19
 800514e:	f04f 0802 	mov.w	r8, #2
 8005152:	f10d 0206 	add.w	r2, sp, #6
 8005156:	2101      	movs	r1, #1
 8005158:	f8ad 3006 	strh.w	r3, [sp, #6]
 800515c:	4620      	mov	r0, r4
 800515e:	2302      	movs	r3, #2
 8005160:	f000 f9c4 	bl	80054ec <wm8994_write_reg>
 8005164:	4643      	mov	r3, r8
 8005166:	4405      	add	r5, r0
 8005168:	f10d 0206 	add.w	r2, sp, #6
 800516c:	f44f 61c4 	mov.w	r1, #1568	@ 0x620
 8005170:	4620      	mov	r0, r4
 8005172:	f8ad 8006 	strh.w	r8, [sp, #6]
 8005176:	f000 f9b9 	bl	80054ec <wm8994_write_reg>
 800517a:	f44f 53c0 	mov.w	r3, #6144	@ 0x1800
 800517e:	4405      	add	r5, r0
 8005180:	f10d 0206 	add.w	r2, sp, #6
 8005184:	f44f 6182 	mov.w	r1, #1040	@ 0x410
 8005188:	f8ad 3006 	strh.w	r3, [sp, #6]
 800518c:	4620      	mov	r0, r4
 800518e:	4643      	mov	r3, r8
 8005190:	f000 f9ac 	bl	80054ec <wm8994_write_reg>
 8005194:	4405      	add	r5, r0
 8005196:	e621      	b.n	8004ddc <WM8994_Init+0x430>
 8005198:	230b      	movs	r3, #11
 800519a:	f10d 0206 	add.w	r2, sp, #6
 800519e:	2118      	movs	r1, #24
 80051a0:	4620      	mov	r0, r4
 80051a2:	f8ad 3006 	strh.w	r3, [sp, #6]
 80051a6:	2302      	movs	r3, #2
 80051a8:	f000 f9a0 	bl	80054ec <wm8994_write_reg>
 80051ac:	2302      	movs	r3, #2
 80051ae:	4405      	add	r5, r0
 80051b0:	f10d 0206 	add.w	r2, sp, #6
 80051b4:	211a      	movs	r1, #26
 80051b6:	4620      	mov	r0, r4
 80051b8:	f000 f998 	bl	80054ec <wm8994_write_reg>
 80051bc:	f44f 53c0 	mov.w	r3, #6144	@ 0x1800
 80051c0:	4405      	add	r5, r0
 80051c2:	f10d 0206 	add.w	r2, sp, #6
 80051c6:	f8ad 3006 	strh.w	r3, [sp, #6]
 80051ca:	f44f 6182 	mov.w	r1, #1040	@ 0x410
 80051ce:	2302      	movs	r3, #2
 80051d0:	e609      	b.n	8004de6 <WM8994_Init+0x43a>
 80051d2:	bf00      	nop
 80051d4:	20000014 	.word	0x20000014

080051d8 <WM8994_SetOutputMode>:
 80051d8:	2902      	cmp	r1, #2
 80051da:	b5f7      	push	{r0, r1, r2, r4, r5, r6, r7, lr}
 80051dc:	4606      	mov	r6, r0
 80051de:	f100 0518 	add.w	r5, r0, #24
 80051e2:	d001      	beq.n	80051e8 <WM8994_SetOutputMode+0x10>
 80051e4:	2904      	cmp	r1, #4
 80051e6:	d176      	bne.n	80052d6 <WM8994_SetOutputMode+0xfe>
 80051e8:	2700      	movs	r7, #0
 80051ea:	2302      	movs	r3, #2
 80051ec:	f10d 0206 	add.w	r2, sp, #6
 80051f0:	2101      	movs	r1, #1
 80051f2:	4628      	mov	r0, r5
 80051f4:	f8ad 7006 	strh.w	r7, [sp, #6]
 80051f8:	f000 f978 	bl	80054ec <wm8994_write_reg>
 80051fc:	f240 3303 	movw	r3, #771	@ 0x303
 8005200:	4604      	mov	r4, r0
 8005202:	f10d 0206 	add.w	r2, sp, #6
 8005206:	2105      	movs	r1, #5
 8005208:	f8ad 3006 	strh.w	r3, [sp, #6]
 800520c:	4628      	mov	r0, r5
 800520e:	2302      	movs	r3, #2
 8005210:	f000 f96c 	bl	80054ec <wm8994_write_reg>
 8005214:	2301      	movs	r3, #1
 8005216:	4404      	add	r4, r0
 8005218:	f10d 0206 	add.w	r2, sp, #6
 800521c:	f240 6101 	movw	r1, #1537	@ 0x601
 8005220:	f8ad 3006 	strh.w	r3, [sp, #6]
 8005224:	4628      	mov	r0, r5
 8005226:	2302      	movs	r3, #2
 8005228:	f000 f960 	bl	80054ec <wm8994_write_reg>
 800522c:	4404      	add	r4, r0
 800522e:	2302      	movs	r3, #2
 8005230:	f10d 0206 	add.w	r2, sp, #6
 8005234:	f240 6102 	movw	r1, #1538	@ 0x602
 8005238:	4628      	mov	r0, r5
 800523a:	f000 f957 	bl	80054ec <wm8994_write_reg>
 800523e:	4404      	add	r4, r0
 8005240:	2302      	movs	r3, #2
 8005242:	f10d 0206 	add.w	r2, sp, #6
 8005246:	f240 6104 	movw	r1, #1540	@ 0x604
 800524a:	4628      	mov	r0, r5
 800524c:	f8ad 7006 	strh.w	r7, [sp, #6]
 8005250:	f000 f94c 	bl	80054ec <wm8994_write_reg>
 8005254:	2302      	movs	r3, #2
 8005256:	4404      	add	r4, r0
 8005258:	f10d 0206 	add.w	r2, sp, #6
 800525c:	f240 6105 	movw	r1, #1541	@ 0x605
 8005260:	4628      	mov	r0, r5
 8005262:	f000 f943 	bl	80054ec <wm8994_write_reg>
 8005266:	f44f 7380 	mov.w	r3, #256	@ 0x100
 800526a:	4404      	add	r4, r0
 800526c:	f10d 0206 	add.w	r2, sp, #6
 8005270:	212d      	movs	r1, #45	@ 0x2d
 8005272:	f8ad 3006 	strh.w	r3, [sp, #6]
 8005276:	4628      	mov	r0, r5
 8005278:	2302      	movs	r3, #2
 800527a:	f000 f937 	bl	80054ec <wm8994_write_reg>
 800527e:	2302      	movs	r3, #2
 8005280:	4404      	add	r4, r0
 8005282:	f10d 0206 	add.w	r2, sp, #6
 8005286:	212e      	movs	r1, #46	@ 0x2e
 8005288:	4628      	mov	r0, r5
 800528a:	f000 f92f 	bl	80054ec <wm8994_write_reg>
 800528e:	f44f 4301 	mov.w	r3, #33024	@ 0x8100
 8005292:	4404      	add	r4, r0
 8005294:	f10d 0206 	add.w	r2, sp, #6
 8005298:	f44f 7188 	mov.w	r1, #272	@ 0x110
 800529c:	f8ad 3006 	strh.w	r3, [sp, #6]
 80052a0:	4628      	mov	r0, r5
 80052a2:	2302      	movs	r3, #2
 80052a4:	f000 f922 	bl	80054ec <wm8994_write_reg>
 80052a8:	f44f 7196 	mov.w	r1, #300	@ 0x12c
 80052ac:	4404      	add	r4, r0
 80052ae:	4630      	mov	r0, r6
 80052b0:	f7ff fb70 	bl	8004994 <WM8994_Delay.isra.0>
 80052b4:	2302      	movs	r3, #2
 80052b6:	f10d 0206 	add.w	r2, sp, #6
 80052ba:	f44f 6184 	mov.w	r1, #1056	@ 0x420
 80052be:	f8ad 7006 	strh.w	r7, [sp, #6]
 80052c2:	4628      	mov	r0, r5
 80052c4:	f000 f912 	bl	80054ec <wm8994_write_reg>
 80052c8:	4420      	add	r0, r4
 80052ca:	3800      	subs	r0, #0
 80052cc:	bf18      	it	ne
 80052ce:	2001      	movne	r0, #1
 80052d0:	4240      	negs	r0, r0
 80052d2:	b003      	add	sp, #12
 80052d4:	bdf0      	pop	{r4, r5, r6, r7, pc}
 80052d6:	2901      	cmp	r1, #1
 80052d8:	f040 80d4 	bne.w	8005484 <WM8994_SetOutputMode+0x2ac>
 80052dc:	f640 430c 	movw	r3, #3084	@ 0xc0c
 80052e0:	f10d 0206 	add.w	r2, sp, #6
 80052e4:	2105      	movs	r1, #5
 80052e6:	4628      	mov	r0, r5
 80052e8:	f8ad 3006 	strh.w	r3, [sp, #6]
 80052ec:	2302      	movs	r3, #2
 80052ee:	f000 f8fd 	bl	80054ec <wm8994_write_reg>
 80052f2:	2300      	movs	r3, #0
 80052f4:	4604      	mov	r4, r0
 80052f6:	f10d 0206 	add.w	r2, sp, #6
 80052fa:	f240 6101 	movw	r1, #1537	@ 0x601
 80052fe:	f8ad 3006 	strh.w	r3, [sp, #6]
 8005302:	4628      	mov	r0, r5
 8005304:	2302      	movs	r3, #2
 8005306:	f000 f8f1 	bl	80054ec <wm8994_write_reg>
 800530a:	4404      	add	r4, r0
 800530c:	2702      	movs	r7, #2
 800530e:	2302      	movs	r3, #2
 8005310:	f10d 0206 	add.w	r2, sp, #6
 8005314:	f240 6102 	movw	r1, #1538	@ 0x602
 8005318:	4628      	mov	r0, r5
 800531a:	f000 f8e7 	bl	80054ec <wm8994_write_reg>
 800531e:	4404      	add	r4, r0
 8005320:	463b      	mov	r3, r7
 8005322:	f10d 0206 	add.w	r2, sp, #6
 8005326:	f240 6104 	movw	r1, #1540	@ 0x604
 800532a:	4628      	mov	r0, r5
 800532c:	f8ad 7006 	strh.w	r7, [sp, #6]
 8005330:	f000 f8dc 	bl	80054ec <wm8994_write_reg>
 8005334:	463b      	mov	r3, r7
 8005336:	4404      	add	r4, r0
 8005338:	f10d 0206 	add.w	r2, sp, #6
 800533c:	f240 6105 	movw	r1, #1541	@ 0x605
 8005340:	f44f 7740 	mov.w	r7, #768	@ 0x300
 8005344:	4628      	mov	r0, r5
 8005346:	f000 f8d1 	bl	80054ec <wm8994_write_reg>
 800534a:	2302      	movs	r3, #2
 800534c:	4404      	add	r4, r0
 800534e:	f10d 0206 	add.w	r2, sp, #6
 8005352:	2103      	movs	r1, #3
 8005354:	4628      	mov	r0, r5
 8005356:	f8ad 7006 	strh.w	r7, [sp, #6]
 800535a:	f000 f8c7 	bl	80054ec <wm8994_write_reg>
 800535e:	2300      	movs	r3, #0
 8005360:	4404      	add	r4, r0
 8005362:	f10d 0206 	add.w	r2, sp, #6
 8005366:	2122      	movs	r1, #34	@ 0x22
 8005368:	f8ad 3006 	strh.w	r3, [sp, #6]
 800536c:	4628      	mov	r0, r5
 800536e:	2302      	movs	r3, #2
 8005370:	f000 f8bc 	bl	80054ec <wm8994_write_reg>
 8005374:	4404      	add	r4, r0
 8005376:	2302      	movs	r3, #2
 8005378:	f10d 0206 	add.w	r2, sp, #6
 800537c:	2123      	movs	r1, #35	@ 0x23
 800537e:	4628      	mov	r0, r5
 8005380:	f000 f8b4 	bl	80054ec <wm8994_write_reg>
 8005384:	2302      	movs	r3, #2
 8005386:	4404      	add	r4, r0
 8005388:	f10d 0206 	add.w	r2, sp, #6
 800538c:	2136      	movs	r1, #54	@ 0x36
 800538e:	4628      	mov	r0, r5
 8005390:	f8ad 7006 	strh.w	r7, [sp, #6]
 8005394:	f000 f8aa 	bl	80054ec <wm8994_write_reg>
 8005398:	f243 0303 	movw	r3, #12291	@ 0x3003
 800539c:	4404      	add	r4, r0
 800539e:	f10d 0206 	add.w	r2, sp, #6
 80053a2:	2101      	movs	r1, #1
 80053a4:	f8ad 3006 	strh.w	r3, [sp, #6]
 80053a8:	4628      	mov	r0, r5
 80053aa:	2302      	movs	r3, #2
 80053ac:	f000 f89e 	bl	80054ec <wm8994_write_reg>
 80053b0:	2305      	movs	r3, #5
 80053b2:	4404      	add	r4, r0
 80053b4:	f10d 0206 	add.w	r2, sp, #6
 80053b8:	2151      	movs	r1, #81	@ 0x51
 80053ba:	f8ad 3006 	strh.w	r3, [sp, #6]
 80053be:	4628      	mov	r0, r5
 80053c0:	2302      	movs	r3, #2
 80053c2:	f000 f893 	bl	80054ec <wm8994_write_reg>
 80053c6:	f243 3303 	movw	r3, #13059	@ 0x3303
 80053ca:	4404      	add	r4, r0
 80053cc:	f10d 0206 	add.w	r2, sp, #6
 80053d0:	2101      	movs	r1, #1
 80053d2:	f8ad 3006 	strh.w	r3, [sp, #6]
 80053d6:	4628      	mov	r0, r5
 80053d8:	2302      	movs	r3, #2
 80053da:	f000 f887 	bl	80054ec <wm8994_write_reg>
 80053de:	2322      	movs	r3, #34	@ 0x22
 80053e0:	4404      	add	r4, r0
 80053e2:	f10d 0206 	add.w	r2, sp, #6
 80053e6:	2160      	movs	r1, #96	@ 0x60
 80053e8:	f8ad 3006 	strh.w	r3, [sp, #6]
 80053ec:	4628      	mov	r0, r5
 80053ee:	2302      	movs	r3, #2
 80053f0:	f000 f87c 	bl	80054ec <wm8994_write_reg>
 80053f4:	f649 7325 	movw	r3, #40741	@ 0x9f25
 80053f8:	4404      	add	r4, r0
 80053fa:	f10d 0206 	add.w	r2, sp, #6
 80053fe:	214c      	movs	r1, #76	@ 0x4c
 8005400:	f8ad 3006 	strh.w	r3, [sp, #6]
 8005404:	4628      	mov	r0, r5
 8005406:	2302      	movs	r3, #2
 8005408:	f000 f870 	bl	80054ec <wm8994_write_reg>
 800540c:	210f      	movs	r1, #15
 800540e:	4404      	add	r4, r0
 8005410:	4630      	mov	r0, r6
 8005412:	f7ff fabf 	bl	8004994 <WM8994_Delay.isra.0>
 8005416:	2301      	movs	r3, #1
 8005418:	f10d 0206 	add.w	r2, sp, #6
 800541c:	212d      	movs	r1, #45	@ 0x2d
 800541e:	f8ad 3006 	strh.w	r3, [sp, #6]
 8005422:	4628      	mov	r0, r5
 8005424:	2302      	movs	r3, #2
 8005426:	f000 f861 	bl	80054ec <wm8994_write_reg>
 800542a:	2302      	movs	r3, #2
 800542c:	4404      	add	r4, r0
 800542e:	f10d 0206 	add.w	r2, sp, #6
 8005432:	212e      	movs	r1, #46	@ 0x2e
 8005434:	4628      	mov	r0, r5
 8005436:	f000 f859 	bl	80054ec <wm8994_write_reg>
 800543a:	f44f 734c 	mov.w	r3, #816	@ 0x330
 800543e:	4404      	add	r4, r0
 8005440:	f10d 0206 	add.w	r2, sp, #6
 8005444:	2103      	movs	r1, #3
 8005446:	f8ad 3006 	strh.w	r3, [sp, #6]
 800544a:	4628      	mov	r0, r5
 800544c:	2302      	movs	r3, #2
 800544e:	f000 f84d 	bl	80054ec <wm8994_write_reg>
 8005452:	2333      	movs	r3, #51	@ 0x33
 8005454:	4404      	add	r4, r0
 8005456:	f10d 0206 	add.w	r2, sp, #6
 800545a:	2154      	movs	r1, #84	@ 0x54
 800545c:	f8ad 3006 	strh.w	r3, [sp, #6]
 8005460:	4628      	mov	r0, r5
 8005462:	2302      	movs	r3, #2
 8005464:	f000 f842 	bl	80054ec <wm8994_write_reg>
 8005468:	f240 1101 	movw	r1, #257	@ 0x101
 800546c:	4404      	add	r4, r0
 800546e:	4630      	mov	r0, r6
 8005470:	f7ff fa90 	bl	8004994 <WM8994_Delay.isra.0>
 8005474:	23ee      	movs	r3, #238	@ 0xee
 8005476:	f10d 0206 	add.w	r2, sp, #6
 800547a:	2160      	movs	r1, #96	@ 0x60
 800547c:	f8ad 3006 	strh.w	r3, [sp, #6]
 8005480:	2302      	movs	r3, #2
 8005482:	e71e      	b.n	80052c2 <WM8994_SetOutputMode+0xea>
 8005484:	f640 730f 	movw	r3, #3855	@ 0xf0f
 8005488:	f10d 0206 	add.w	r2, sp, #6
 800548c:	2105      	movs	r1, #5
 800548e:	4628      	mov	r0, r5
 8005490:	f8ad 3006 	strh.w	r3, [sp, #6]
 8005494:	2302      	movs	r3, #2
 8005496:	f000 f829 	bl	80054ec <wm8994_write_reg>
 800549a:	2301      	movs	r3, #1
 800549c:	4604      	mov	r4, r0
 800549e:	f10d 0206 	add.w	r2, sp, #6
 80054a2:	f240 6101 	movw	r1, #1537	@ 0x601
 80054a6:	f8ad 3006 	strh.w	r3, [sp, #6]
 80054aa:	4628      	mov	r0, r5
 80054ac:	2302      	movs	r3, #2
 80054ae:	f000 f81d 	bl	80054ec <wm8994_write_reg>
 80054b2:	2302      	movs	r3, #2
 80054b4:	4404      	add	r4, r0
 80054b6:	f10d 0206 	add.w	r2, sp, #6
 80054ba:	f240 6102 	movw	r1, #1538	@ 0x602
 80054be:	4628      	mov	r0, r5
 80054c0:	f000 f814 	bl	80054ec <wm8994_write_reg>
 80054c4:	2302      	movs	r3, #2
 80054c6:	4404      	add	r4, r0
 80054c8:	f10d 0206 	add.w	r2, sp, #6
 80054cc:	f240 6104 	movw	r1, #1540	@ 0x604
 80054d0:	f8ad 3006 	strh.w	r3, [sp, #6]
 80054d4:	e734      	b.n	8005340 <WM8994_SetOutputMode+0x168>

080054d6 <wm8994_read_reg>:
 80054d6:	b538      	push	{r3, r4, r5, lr}
 80054d8:	e9d0 5001 	ldrd	r5, r0, [r0, #4]
 80054dc:	4614      	mov	r4, r2
 80054de:	47a8      	blx	r5
 80054e0:	2800      	cmp	r0, #0
 80054e2:	db02      	blt.n	80054ea <wm8994_read_reg+0x14>
 80054e4:	8823      	ldrh	r3, [r4, #0]
 80054e6:	ba5b      	rev16	r3, r3
 80054e8:	8023      	strh	r3, [r4, #0]
 80054ea:	bd38      	pop	{r3, r4, r5, pc}

080054ec <wm8994_write_reg>:
 80054ec:	8812      	ldrh	r2, [r2, #0]
 80054ee:	ba52      	rev16	r2, r2
 80054f0:	b513      	push	{r0, r1, r4, lr}
 80054f2:	6804      	ldr	r4, [r0, #0]
 80054f4:	f8ad 2006 	strh.w	r2, [sp, #6]
 80054f8:	f10d 0206 	add.w	r2, sp, #6
 80054fc:	6880      	ldr	r0, [r0, #8]
 80054fe:	47a0      	blx	r4
 8005500:	b002      	add	sp, #8
 8005502:	bd10      	pop	{r4, pc}

08005504 <wm8994_sw_reset_w>:
 8005504:	b507      	push	{r0, r1, r2, lr}
 8005506:	2302      	movs	r3, #2
 8005508:	f8ad 1006 	strh.w	r1, [sp, #6]
 800550c:	f10d 0206 	add.w	r2, sp, #6
 8005510:	2100      	movs	r1, #0
 8005512:	f7ff ffeb 	bl	80054ec <wm8994_write_reg>
 8005516:	b003      	add	sp, #12
 8005518:	f85d fb04 	ldr.w	pc, [sp], #4

0800551c <wm8994_sw_reset_r>:
 800551c:	460a      	mov	r2, r1
 800551e:	2302      	movs	r3, #2
 8005520:	2100      	movs	r1, #0
 8005522:	f7ff bfd8 	b.w	80054d6 <wm8994_read_reg>

08005526 <wm8994_lo_hpout1l_vol_r>:
 8005526:	b510      	push	{r4, lr}
 8005528:	460a      	mov	r2, r1
 800552a:	460c      	mov	r4, r1
 800552c:	2302      	movs	r3, #2
 800552e:	211c      	movs	r1, #28
 8005530:	f7ff ffd1 	bl	80054d6 <wm8994_read_reg>
 8005534:	b918      	cbnz	r0, 800553e <wm8994_lo_hpout1l_vol_r+0x18>
 8005536:	8823      	ldrh	r3, [r4, #0]
 8005538:	f003 033f 	and.w	r3, r3, #63	@ 0x3f
 800553c:	8023      	strh	r3, [r4, #0]
 800553e:	bd10      	pop	{r4, pc}

08005540 <wm8994_aif1_sr_r>:
 8005540:	b510      	push	{r4, lr}
 8005542:	460a      	mov	r2, r1
 8005544:	460c      	mov	r4, r1
 8005546:	2302      	movs	r3, #2
 8005548:	f44f 7104 	mov.w	r1, #528	@ 0x210
 800554c:	f7ff ffc3 	bl	80054d6 <wm8994_read_reg>
 8005550:	b918      	cbnz	r0, 800555a <wm8994_aif1_sr_r+0x1a>
 8005552:	8823      	ldrh	r3, [r4, #0]
 8005554:	f3c3 1303 	ubfx	r3, r3, #4, #4
 8005558:	8023      	strh	r3, [r4, #0]
 800555a:	bd10      	pop	{r4, pc}

0800555c <wm8994_aif1_control1_fmt>:
 800555c:	2300      	movs	r3, #0
 800555e:	b537      	push	{r0, r1, r2, r4, r5, lr}
 8005560:	460d      	mov	r5, r1
 8005562:	f8ad 3006 	strh.w	r3, [sp, #6]
 8005566:	f10d 0206 	add.w	r2, sp, #6
 800556a:	2302      	movs	r3, #2
 800556c:	f44f 7140 	mov.w	r1, #768	@ 0x300
 8005570:	4604      	mov	r4, r0
 8005572:	f7ff ffb0 	bl	80054d6 <wm8994_read_reg>
 8005576:	b978      	cbnz	r0, 8005598 <wm8994_aif1_control1_fmt+0x3c>
 8005578:	f8bd 3006 	ldrh.w	r3, [sp, #6]
 800557c:	f10d 0206 	add.w	r2, sp, #6
 8005580:	4620      	mov	r0, r4
 8005582:	f023 0318 	bic.w	r3, r3, #24
 8005586:	ea43 01c5 	orr.w	r1, r3, r5, lsl #3
 800558a:	2302      	movs	r3, #2
 800558c:	f8ad 1006 	strh.w	r1, [sp, #6]
 8005590:	f44f 7140 	mov.w	r1, #768	@ 0x300
 8005594:	f7ff ffaa 	bl	80054ec <wm8994_write_reg>
 8005598:	b003      	add	sp, #12
 800559a:	bd30      	pop	{r4, r5, pc}

0800559c <wm8994_aif1_control1_fmt_r>:
 800559c:	b510      	push	{r4, lr}
 800559e:	460a      	mov	r2, r1
 80055a0:	460c      	mov	r4, r1
 80055a2:	2302      	movs	r3, #2
 80055a4:	f44f 7140 	mov.w	r1, #768	@ 0x300
 80055a8:	f7ff ff95 	bl	80054d6 <wm8994_read_reg>
 80055ac:	b918      	cbnz	r0, 80055b6 <wm8994_aif1_control1_fmt_r+0x1a>
 80055ae:	8823      	ldrh	r3, [r4, #0]
 80055b0:	f3c3 03c1 	ubfx	r3, r3, #3, #2
 80055b4:	8023      	strh	r3, [r4, #0]
 80055b6:	bd10      	pop	{r4, pc}

080055b8 <wm8994_aif1_control1_wl>:
 80055b8:	2300      	movs	r3, #0
 80055ba:	b537      	push	{r0, r1, r2, r4, r5, lr}
 80055bc:	460d      	mov	r5, r1
 80055be:	f8ad 3006 	strh.w	r3, [sp, #6]
 80055c2:	f10d 0206 	add.w	r2, sp, #6
 80055c6:	2302      	movs	r3, #2
 80055c8:	f44f 7140 	mov.w	r1, #768	@ 0x300
 80055cc:	4604      	mov	r4, r0
 80055ce:	f7ff ff82 	bl	80054d6 <wm8994_read_reg>
 80055d2:	b978      	cbnz	r0, 80055f4 <wm8994_aif1_control1_wl+0x3c>
 80055d4:	f8bd 3006 	ldrh.w	r3, [sp, #6]
 80055d8:	f10d 0206 	add.w	r2, sp, #6
 80055dc:	4620      	mov	r0, r4
 80055de:	f023 0360 	bic.w	r3, r3, #96	@ 0x60
 80055e2:	ea43 1145 	orr.w	r1, r3, r5, lsl #5
 80055e6:	2302      	movs	r3, #2
 80055e8:	f8ad 1006 	strh.w	r1, [sp, #6]
 80055ec:	f44f 7140 	mov.w	r1, #768	@ 0x300
 80055f0:	f7ff ff7c 	bl	80054ec <wm8994_write_reg>
 80055f4:	b003      	add	sp, #12
 80055f6:	bd30      	pop	{r4, r5, pc}

080055f8 <wm8994_aif1_control1_wl_r>:
 80055f8:	b510      	push	{r4, lr}
 80055fa:	460a      	mov	r2, r1
 80055fc:	460c      	mov	r4, r1
 80055fe:	2302      	movs	r3, #2
 8005600:	f44f 7140 	mov.w	r1, #768	@ 0x300
 8005604:	f7ff ff67 	bl	80054d6 <wm8994_read_reg>
 8005608:	b918      	cbnz	r0, 8005612 <wm8994_aif1_control1_wl_r+0x1a>
 800560a:	8823      	ldrh	r3, [r4, #0]
 800560c:	f3c3 1341 	ubfx	r3, r3, #5, #2
 8005610:	8023      	strh	r3, [r4, #0]
 8005612:	bd10      	pop	{r4, pc}

08005614 <wm8994_aif1_control1_adcr_src>:
 8005614:	2300      	movs	r3, #0
 8005616:	b537      	push	{r0, r1, r2, r4, r5, lr}
 8005618:	460d      	mov	r5, r1
 800561a:	f8ad 3006 	strh.w	r3, [sp, #6]
 800561e:	f10d 0206 	add.w	r2, sp, #6
 8005622:	2302      	movs	r3, #2
 8005624:	f44f 7140 	mov.w	r1, #768	@ 0x300
 8005628:	4604      	mov	r4, r0
 800562a:	f7ff ff54 	bl	80054d6 <wm8994_read_reg>
 800562e:	b978      	cbnz	r0, 8005650 <wm8994_aif1_control1_adcr_src+0x3c>
 8005630:	f8bd 3006 	ldrh.w	r3, [sp, #6]
 8005634:	f10d 0206 	add.w	r2, sp, #6
 8005638:	4620      	mov	r0, r4
 800563a:	f423 4380 	bic.w	r3, r3, #16384	@ 0x4000
 800563e:	ea43 3185 	orr.w	r1, r3, r5, lsl #14
 8005642:	2302      	movs	r3, #2
 8005644:	f8ad 1006 	strh.w	r1, [sp, #6]
 8005648:	f44f 7140 	mov.w	r1, #768	@ 0x300
 800564c:	f7ff ff4e 	bl	80054ec <wm8994_write_reg>
 8005650:	b003      	add	sp, #12
 8005652:	bd30      	pop	{r4, r5, pc}

08005654 <wm8994_aif1_adc1_left_vol_adc1l_r>:
 8005654:	b510      	push	{r4, lr}
 8005656:	460a      	mov	r2, r1
 8005658:	460c      	mov	r4, r1
 800565a:	2302      	movs	r3, #2
 800565c:	f44f 6180 	mov.w	r1, #1024	@ 0x400
 8005660:	f7ff ff39 	bl	80054d6 <wm8994_read_reg>
 8005664:	b908      	cbnz	r0, 800566a <wm8994_aif1_adc1_left_vol_adc1l_r+0x16>
 8005666:	7823      	ldrb	r3, [r4, #0]
 8005668:	8023      	strh	r3, [r4, #0]
 800566a:	bd10      	pop	{r4, pc}

0800566c <USBH_CDC_SOFProcess>:
 800566c:	2000      	movs	r0, #0
 800566e:	4770      	bx	lr

08005670 <USBH_CDC_InterfaceDeInit>:
 8005670:	b538      	push	{r3, r4, r5, lr}
 8005672:	f8d0 337c 	ldr.w	r3, [r0, #892]	@ 0x37c
 8005676:	4604      	mov	r4, r0
 8005678:	69dd      	ldr	r5, [r3, #28]
 800567a:	7829      	ldrb	r1, [r5, #0]
 800567c:	b139      	cbz	r1, 800568e <USBH_CDC_InterfaceDeInit+0x1e>
 800567e:	f000 ff57 	bl	8006530 <USBH_ClosePipe>
 8005682:	7829      	ldrb	r1, [r5, #0]
 8005684:	4620      	mov	r0, r4
 8005686:	f000 ff6f 	bl	8006568 <USBH_FreePipe>
 800568a:	2300      	movs	r3, #0
 800568c:	702b      	strb	r3, [r5, #0]
 800568e:	7b29      	ldrb	r1, [r5, #12]
 8005690:	b141      	cbz	r1, 80056a4 <USBH_CDC_InterfaceDeInit+0x34>
 8005692:	4620      	mov	r0, r4
 8005694:	f000 ff4c 	bl	8006530 <USBH_ClosePipe>
 8005698:	7b29      	ldrb	r1, [r5, #12]
 800569a:	4620      	mov	r0, r4
 800569c:	f000 ff64 	bl	8006568 <USBH_FreePipe>
 80056a0:	2300      	movs	r3, #0
 80056a2:	732b      	strb	r3, [r5, #12]
 80056a4:	7b69      	ldrb	r1, [r5, #13]
 80056a6:	b141      	cbz	r1, 80056ba <USBH_CDC_InterfaceDeInit+0x4a>
 80056a8:	4620      	mov	r0, r4
 80056aa:	f000 ff41 	bl	8006530 <USBH_ClosePipe>
 80056ae:	7b69      	ldrb	r1, [r5, #13]
 80056b0:	4620      	mov	r0, r4
 80056b2:	f000 ff59 	bl	8006568 <USBH_FreePipe>
 80056b6:	2300      	movs	r3, #0
 80056b8:	736b      	strb	r3, [r5, #13]
 80056ba:	f8d4 337c 	ldr.w	r3, [r4, #892]	@ 0x37c
 80056be:	69d8      	ldr	r0, [r3, #28]
 80056c0:	b128      	cbz	r0, 80056ce <USBH_CDC_InterfaceDeInit+0x5e>
 80056c2:	f001 f8ab 	bl	800681c <free>
 80056c6:	f8d4 337c 	ldr.w	r3, [r4, #892]	@ 0x37c
 80056ca:	2200      	movs	r2, #0
 80056cc:	61da      	str	r2, [r3, #28]
 80056ce:	2000      	movs	r0, #0
 80056d0:	bd38      	pop	{r3, r4, r5, pc}

080056d2 <USBH_CDC_InterfaceInit>:
 80056d2:	e92d 41ff 	stmdb	sp!, {r0, r1, r2, r3, r4, r5, r6, r7, r8, lr}
 80056d6:	2202      	movs	r2, #2
 80056d8:	2301      	movs	r3, #1
 80056da:	4605      	mov	r5, r0
 80056dc:	4611      	mov	r1, r2
 80056de:	f000 f9cc 	bl	8005a7a <USBH_FindInterface>
 80056e2:	2801      	cmp	r0, #1
 80056e4:	4606      	mov	r6, r0
 80056e6:	d904      	bls.n	80056f2 <USBH_CDC_InterfaceInit+0x20>
 80056e8:	2702      	movs	r7, #2
 80056ea:	4638      	mov	r0, r7
 80056ec:	b004      	add	sp, #16
 80056ee:	e8bd 81f0 	ldmia.w	sp!, {r4, r5, r6, r7, r8, pc}
 80056f2:	4601      	mov	r1, r0
 80056f4:	4628      	mov	r0, r5
 80056f6:	f000 f9b7 	bl	8005a68 <USBH_SelectInterface>
 80056fa:	4607      	mov	r7, r0
 80056fc:	2800      	cmp	r0, #0
 80056fe:	d1f3      	bne.n	80056e8 <USBH_CDC_InterfaceInit+0x16>
 8005700:	f8d5 837c 	ldr.w	r8, [r5, #892]	@ 0x37c
 8005704:	2050      	movs	r0, #80	@ 0x50
 8005706:	f001 f881 	bl	800680c <malloc>
 800570a:	4604      	mov	r4, r0
 800570c:	f8c8 001c 	str.w	r0, [r8, #28]
 8005710:	2800      	cmp	r0, #0
 8005712:	d0e9      	beq.n	80056e8 <USBH_CDC_InterfaceInit+0x16>
 8005714:	2250      	movs	r2, #80	@ 0x50
 8005716:	4639      	mov	r1, r7
 8005718:	f001 f936 	bl	8006988 <memset>
 800571c:	231a      	movs	r3, #26
 800571e:	4628      	mov	r0, r5
 8005720:	fb03 5606 	mla	r6, r3, r6, r5
 8005724:	f996 234e 	ldrsb.w	r2, [r6, #846]	@ 0x34e
 8005728:	f896 334e 	ldrb.w	r3, [r6, #846]	@ 0x34e
 800572c:	2a00      	cmp	r2, #0
 800572e:	bfbc      	itt	lt
 8005730:	7063      	strblt	r3, [r4, #1]
 8005732:	f8b6 3350 	ldrhlt.w	r3, [r6, #848]	@ 0x350
 8005736:	7861      	ldrb	r1, [r4, #1]
 8005738:	bfb8      	it	lt
 800573a:	8163      	strhlt	r3, [r4, #10]
 800573c:	f000 fefd 	bl	800653a <USBH_AllocPipe>
 8005740:	8963      	ldrh	r3, [r4, #10]
 8005742:	7020      	strb	r0, [r4, #0]
 8005744:	4601      	mov	r1, r0
 8005746:	9302      	str	r3, [sp, #8]
 8005748:	2303      	movs	r3, #3
 800574a:	4628      	mov	r0, r5
 800574c:	9301      	str	r3, [sp, #4]
 800574e:	f895 331d 	ldrb.w	r3, [r5, #797]	@ 0x31d
 8005752:	9300      	str	r3, [sp, #0]
 8005754:	f895 331c 	ldrb.w	r3, [r5, #796]	@ 0x31c
 8005758:	7862      	ldrb	r2, [r4, #1]
 800575a:	f000 feda 	bl	8006512 <USBH_OpenPipe>
 800575e:	2200      	movs	r2, #0
 8005760:	7821      	ldrb	r1, [r4, #0]
 8005762:	4628      	mov	r0, r5
 8005764:	f000 ffe6 	bl	8006734 <USBH_LL_SetToggle>
 8005768:	2300      	movs	r3, #0
 800576a:	210a      	movs	r1, #10
 800576c:	4628      	mov	r0, r5
 800576e:	461a      	mov	r2, r3
 8005770:	f000 f983 	bl	8005a7a <USBH_FindInterface>
 8005774:	2801      	cmp	r0, #1
 8005776:	d8b7      	bhi.n	80056e8 <USBH_CDC_InterfaceInit+0x16>
 8005778:	221a      	movs	r2, #26
 800577a:	fb02 5300 	mla	r3, r2, r0, r5
 800577e:	f893 634e 	ldrb.w	r6, [r3, #846]	@ 0x34e
 8005782:	f8b3 1350 	ldrh.w	r1, [r3, #848]	@ 0x350
 8005786:	f993 334e 	ldrsb.w	r3, [r3, #846]	@ 0x34e
 800578a:	2b00      	cmp	r3, #0
 800578c:	fb02 5300 	mla	r3, r2, r0, r5
 8005790:	4628      	mov	r0, r5
 8005792:	f8b3 2358 	ldrh.w	r2, [r3, #856]	@ 0x358
 8005796:	bfb4      	ite	lt
 8005798:	8361      	strhlt	r1, [r4, #26]
 800579a:	8321      	strhge	r1, [r4, #24]
 800579c:	f893 1356 	ldrb.w	r1, [r3, #854]	@ 0x356
 80057a0:	f993 3356 	ldrsb.w	r3, [r3, #854]	@ 0x356
 80057a4:	bfac      	ite	ge
 80057a6:	73a6      	strbge	r6, [r4, #14]
 80057a8:	73e6      	strblt	r6, [r4, #15]
 80057aa:	2b00      	cmp	r3, #0
 80057ac:	f04f 0602 	mov.w	r6, #2
 80057b0:	bfb9      	ittee	lt
 80057b2:	73e1      	strblt	r1, [r4, #15]
 80057b4:	8362      	strhlt	r2, [r4, #26]
 80057b6:	73a1      	strbge	r1, [r4, #14]
 80057b8:	8322      	strhge	r2, [r4, #24]
 80057ba:	7ba1      	ldrb	r1, [r4, #14]
 80057bc:	f000 febd 	bl	800653a <USBH_AllocPipe>
 80057c0:	7be1      	ldrb	r1, [r4, #15]
 80057c2:	7360      	strb	r0, [r4, #13]
 80057c4:	4628      	mov	r0, r5
 80057c6:	f000 feb8 	bl	800653a <USBH_AllocPipe>
 80057ca:	8b23      	ldrh	r3, [r4, #24]
 80057cc:	7320      	strb	r0, [r4, #12]
 80057ce:	4628      	mov	r0, r5
 80057d0:	9601      	str	r6, [sp, #4]
 80057d2:	9302      	str	r3, [sp, #8]
 80057d4:	f895 331d 	ldrb.w	r3, [r5, #797]	@ 0x31d
 80057d8:	9300      	str	r3, [sp, #0]
 80057da:	f895 331c 	ldrb.w	r3, [r5, #796]	@ 0x31c
 80057de:	7ba2      	ldrb	r2, [r4, #14]
 80057e0:	7b61      	ldrb	r1, [r4, #13]
 80057e2:	f000 fe96 	bl	8006512 <USBH_OpenPipe>
 80057e6:	8b63      	ldrh	r3, [r4, #26]
 80057e8:	4628      	mov	r0, r5
 80057ea:	e9cd 6301 	strd	r6, r3, [sp, #4]
 80057ee:	f895 331d 	ldrb.w	r3, [r5, #797]	@ 0x31d
 80057f2:	2600      	movs	r6, #0
 80057f4:	9300      	str	r3, [sp, #0]
 80057f6:	f895 331c 	ldrb.w	r3, [r5, #796]	@ 0x31c
 80057fa:	7be2      	ldrb	r2, [r4, #15]
 80057fc:	7b21      	ldrb	r1, [r4, #12]
 80057fe:	f000 fe88 	bl	8006512 <USBH_OpenPipe>
 8005802:	4632      	mov	r2, r6
 8005804:	7b61      	ldrb	r1, [r4, #13]
 8005806:	4628      	mov	r0, r5
 8005808:	f884 604c 	strb.w	r6, [r4, #76]	@ 0x4c
 800580c:	f000 ff92 	bl	8006734 <USBH_LL_SetToggle>
 8005810:	4632      	mov	r2, r6
 8005812:	7b21      	ldrb	r1, [r4, #12]
 8005814:	4628      	mov	r0, r5
 8005816:	f000 ff8d 	bl	8006734 <USBH_LL_SetToggle>
 800581a:	e766      	b.n	80056ea <USBH_CDC_InterfaceInit+0x18>

0800581c <USBH_CDC_ClassRequest>:
 800581c:	b538      	push	{r3, r4, r5, lr}
 800581e:	f8d0 337c 	ldr.w	r3, [r0, #892]	@ 0x37c
 8005822:	f242 12a1 	movw	r2, #8609	@ 0x21a1
 8005826:	4604      	mov	r4, r0
 8005828:	69d9      	ldr	r1, [r3, #28]
 800582a:	f44f 23e0 	mov.w	r3, #458752	@ 0x70000
 800582e:	3140      	adds	r1, #64	@ 0x40
 8005830:	e9c0 2304 	strd	r2, r3, [r0, #16]
 8005834:	2207      	movs	r2, #7
 8005836:	f000 fb63 	bl	8005f00 <USBH_CtlReq>
 800583a:	4605      	mov	r5, r0
 800583c:	b920      	cbnz	r0, 8005848 <USBH_CDC_ClassRequest+0x2c>
 800583e:	f8d4 33d4 	ldr.w	r3, [r4, #980]	@ 0x3d4
 8005842:	2102      	movs	r1, #2
 8005844:	4620      	mov	r0, r4
 8005846:	4798      	blx	r3
 8005848:	4628      	mov	r0, r5
 800584a:	bd38      	pop	{r3, r4, r5, pc}

0800584c <USBH_CDC_TransmitCallback>:
 800584c:	4770      	bx	lr

0800584e <USBH_CDC_ReceiveCallback>:
 800584e:	4770      	bx	lr

08005850 <USBH_CDC_LineCodingChanged>:
 8005850:	4770      	bx	lr

08005852 <USBH_CDC_Process>:
 8005852:	f8d0 337c 	ldr.w	r3, [r0, #892]	@ 0x37c
 8005856:	b573      	push	{r0, r1, r4, r5, r6, lr}
 8005858:	69dc      	ldr	r4, [r3, #28]
 800585a:	4605      	mov	r5, r0
 800585c:	f894 004c 	ldrb.w	r0, [r4, #76]	@ 0x4c
 8005860:	2804      	cmp	r0, #4
 8005862:	d813      	bhi.n	800588c <USBH_CDC_Process+0x3a>
 8005864:	e8df f000 	tbb	[pc, r0]
 8005868:	38190313 	.word	0x38190313
 800586c:	9c          	.byte	0x9c
 800586d:	00          	.byte	0x00
 800586e:	f242 0021 	movw	r0, #8225	@ 0x2021
 8005872:	f44f 23e0 	mov.w	r3, #458752	@ 0x70000
 8005876:	6ca1      	ldr	r1, [r4, #72]	@ 0x48
 8005878:	2207      	movs	r2, #7
 800587a:	e9c5 0304 	strd	r0, r3, [r5, #16]
 800587e:	4628      	mov	r0, r5
 8005880:	f000 fb3e 	bl	8005f00 <USBH_CtlReq>
 8005884:	b928      	cbnz	r0, 8005892 <USBH_CDC_Process+0x40>
 8005886:	2302      	movs	r3, #2
 8005888:	f884 304c 	strb.w	r3, [r4, #76]	@ 0x4c
 800588c:	2001      	movs	r0, #1
 800588e:	b002      	add	sp, #8
 8005890:	bd70      	pop	{r4, r5, r6, pc}
 8005892:	2801      	cmp	r0, #1
 8005894:	d0fa      	beq.n	800588c <USBH_CDC_Process+0x3a>
 8005896:	2304      	movs	r3, #4
 8005898:	e7f6      	b.n	8005888 <USBH_CDC_Process+0x36>
 800589a:	f242 12a1 	movw	r2, #8609	@ 0x21a1
 800589e:	f44f 23e0 	mov.w	r3, #458752	@ 0x70000
 80058a2:	f104 0140 	add.w	r1, r4, #64	@ 0x40
 80058a6:	4628      	mov	r0, r5
 80058a8:	e9c5 2304 	strd	r2, r3, [r5, #16]
 80058ac:	2207      	movs	r2, #7
 80058ae:	f000 fb27 	bl	8005f00 <USBH_CtlReq>
 80058b2:	2800      	cmp	r0, #0
 80058b4:	d1ed      	bne.n	8005892 <USBH_CDC_Process+0x40>
 80058b6:	f884 004c 	strb.w	r0, [r4, #76]	@ 0x4c
 80058ba:	e9d4 3211 	ldrd	r3, r2, [r4, #68]	@ 0x44
 80058be:	6851      	ldr	r1, [r2, #4]
 80058c0:	404b      	eors	r3, r1
 80058c2:	f033 437f 	bics.w	r3, r3, #4278190080	@ 0xff000000
 80058c6:	d1e1      	bne.n	800588c <USBH_CDC_Process+0x3a>
 80058c8:	6c21      	ldr	r1, [r4, #64]	@ 0x40
 80058ca:	6813      	ldr	r3, [r2, #0]
 80058cc:	4299      	cmp	r1, r3
 80058ce:	d1dd      	bne.n	800588c <USBH_CDC_Process+0x3a>
 80058d0:	4628      	mov	r0, r5
 80058d2:	f7ff ffbd 	bl	8005850 <USBH_CDC_LineCodingChanged>
 80058d6:	e7d9      	b.n	800588c <USBH_CDC_Process+0x3a>
 80058d8:	f894 004d 	ldrb.w	r0, [r4, #77]	@ 0x4d
 80058dc:	2801      	cmp	r0, #1
 80058de:	d021      	beq.n	8005924 <USBH_CDC_Process+0xd2>
 80058e0:	2802      	cmp	r0, #2
 80058e2:	d02e      	beq.n	8005942 <USBH_CDC_Process+0xf0>
 80058e4:	f8d5 337c 	ldr.w	r3, [r5, #892]	@ 0x37c
 80058e8:	69dc      	ldr	r4, [r3, #28]
 80058ea:	f894 304e 	ldrb.w	r3, [r4, #78]	@ 0x4e
 80058ee:	2b03      	cmp	r3, #3
 80058f0:	d045      	beq.n	800597e <USBH_CDC_Process+0x12c>
 80058f2:	2b04      	cmp	r3, #4
 80058f4:	d1ca      	bne.n	800588c <USBH_CDC_Process+0x3a>
 80058f6:	7b21      	ldrb	r1, [r4, #12]
 80058f8:	4628      	mov	r0, r5
 80058fa:	f000 ff0a 	bl	8006712 <USBH_LL_GetURBState>
 80058fe:	2801      	cmp	r0, #1
 8005900:	d1c4      	bne.n	800588c <USBH_CDC_Process+0x3a>
 8005902:	7b21      	ldrb	r1, [r4, #12]
 8005904:	4628      	mov	r0, r5
 8005906:	f000 ff00 	bl	800670a <USBH_LL_GetLastXferSize>
 800590a:	6aa3      	ldr	r3, [r4, #40]	@ 0x28
 800590c:	4298      	cmp	r0, r3
 800590e:	d040      	beq.n	8005992 <USBH_CDC_Process+0x140>
 8005910:	8b62      	ldrh	r2, [r4, #26]
 8005912:	4290      	cmp	r0, r2
 8005914:	d13d      	bne.n	8005992 <USBH_CDC_Process+0x140>
 8005916:	1a1b      	subs	r3, r3, r0
 8005918:	62a3      	str	r3, [r4, #40]	@ 0x28
 800591a:	6a23      	ldr	r3, [r4, #32]
 800591c:	4403      	add	r3, r0
 800591e:	6223      	str	r3, [r4, #32]
 8005920:	2303      	movs	r3, #3
 8005922:	e033      	b.n	800598c <USBH_CDC_Process+0x13a>
 8005924:	6a66      	ldr	r6, [r4, #36]	@ 0x24
 8005926:	8b22      	ldrh	r2, [r4, #24]
 8005928:	7b63      	ldrb	r3, [r4, #13]
 800592a:	4296      	cmp	r6, r2
 800592c:	69e1      	ldr	r1, [r4, #28]
 800592e:	9000      	str	r0, [sp, #0]
 8005930:	4628      	mov	r0, r5
 8005932:	bf98      	it	ls
 8005934:	b2b2      	uxthls	r2, r6
 8005936:	f000 fdc5 	bl	80064c4 <USBH_BulkSendData>
 800593a:	2302      	movs	r3, #2
 800593c:	f884 304d 	strb.w	r3, [r4, #77]	@ 0x4d
 8005940:	e7d0      	b.n	80058e4 <USBH_CDC_Process+0x92>
 8005942:	7b61      	ldrb	r1, [r4, #13]
 8005944:	4628      	mov	r0, r5
 8005946:	f000 fee4 	bl	8006712 <USBH_LL_GetURBState>
 800594a:	2801      	cmp	r0, #1
 800594c:	d113      	bne.n	8005976 <USBH_CDC_Process+0x124>
 800594e:	6a63      	ldr	r3, [r4, #36]	@ 0x24
 8005950:	8b22      	ldrh	r2, [r4, #24]
 8005952:	4293      	cmp	r3, r2
 8005954:	d907      	bls.n	8005966 <USBH_CDC_Process+0x114>
 8005956:	1a9b      	subs	r3, r3, r2
 8005958:	f884 004d 	strb.w	r0, [r4, #77]	@ 0x4d
 800595c:	6263      	str	r3, [r4, #36]	@ 0x24
 800595e:	69e3      	ldr	r3, [r4, #28]
 8005960:	4413      	add	r3, r2
 8005962:	61e3      	str	r3, [r4, #28]
 8005964:	e7be      	b.n	80058e4 <USBH_CDC_Process+0x92>
 8005966:	2300      	movs	r3, #0
 8005968:	4628      	mov	r0, r5
 800596a:	6263      	str	r3, [r4, #36]	@ 0x24
 800596c:	f884 304d 	strb.w	r3, [r4, #77]	@ 0x4d
 8005970:	f7ff ff6c 	bl	800584c <USBH_CDC_TransmitCallback>
 8005974:	e7b6      	b.n	80058e4 <USBH_CDC_Process+0x92>
 8005976:	2802      	cmp	r0, #2
 8005978:	d1b4      	bne.n	80058e4 <USBH_CDC_Process+0x92>
 800597a:	2301      	movs	r3, #1
 800597c:	e7de      	b.n	800593c <USBH_CDC_Process+0xea>
 800597e:	7b23      	ldrb	r3, [r4, #12]
 8005980:	4628      	mov	r0, r5
 8005982:	8b62      	ldrh	r2, [r4, #26]
 8005984:	6a21      	ldr	r1, [r4, #32]
 8005986:	f000 fdb4 	bl	80064f2 <USBH_BulkReceiveData>
 800598a:	2304      	movs	r3, #4
 800598c:	f884 304e 	strb.w	r3, [r4, #78]	@ 0x4e
 8005990:	e77c      	b.n	800588c <USBH_CDC_Process+0x3a>
 8005992:	2300      	movs	r3, #0
 8005994:	4628      	mov	r0, r5
 8005996:	f884 304e 	strb.w	r3, [r4, #78]	@ 0x4e
 800599a:	f7ff ff58 	bl	800584e <USBH_CDC_ReceiveCallback>
 800599e:	e775      	b.n	800588c <USBH_CDC_Process+0x3a>
 80059a0:	2100      	movs	r1, #0
 80059a2:	4628      	mov	r0, r5
 80059a4:	f000 fd4a 	bl	800643c <USBH_ClrFeature>
 80059a8:	2800      	cmp	r0, #0
 80059aa:	f47f af6f 	bne.w	800588c <USBH_CDC_Process+0x3a>
 80059ae:	f884 004c 	strb.w	r0, [r4, #76]	@ 0x4c
 80059b2:	e76b      	b.n	800588c <USBH_CDC_Process+0x3a>

080059b4 <DeInitStateMachine.isra.0>:
 80059b4:	b570      	push	{r4, r5, r6, lr}
 80059b6:	2640      	movs	r6, #64	@ 0x40
 80059b8:	4604      	mov	r4, r0
 80059ba:	2100      	movs	r1, #0
 80059bc:	f500 7061 	add.w	r0, r0, #900	@ 0x384
 80059c0:	4632      	mov	r2, r6
 80059c2:	2500      	movs	r5, #0
 80059c4:	f000 ffe0 	bl	8006988 <memset>
 80059c8:	2301      	movs	r3, #1
 80059ca:	f44f 7280 	mov.w	r2, #256	@ 0x100
 80059ce:	4629      	mov	r1, r5
 80059d0:	70a3      	strb	r3, [r4, #2]
 80059d2:	f104 001c 	add.w	r0, r4, #28
 80059d6:	8323      	strh	r3, [r4, #24]
 80059d8:	7025      	strb	r5, [r4, #0]
 80059da:	f8c4 231c 	str.w	r2, [r4, #796]	@ 0x31c
 80059de:	7065      	strb	r5, [r4, #1]
 80059e0:	f8c4 53c4 	str.w	r5, [r4, #964]	@ 0x3c4
 80059e4:	71a6      	strb	r6, [r4, #6]
 80059e6:	f000 ffcf 	bl	8006988 <memset>
 80059ea:	4629      	mov	r1, r5
 80059ec:	f44f 7200 	mov.w	r2, #512	@ 0x200
 80059f0:	f504 708e 	add.w	r0, r4, #284	@ 0x11c
 80059f4:	f000 ffc8 	bl	8006988 <memset>
 80059f8:	4629      	mov	r1, r5
 80059fa:	2212      	movs	r2, #18
 80059fc:	f204 3026 	addw	r0, r4, #806	@ 0x326
 8005a00:	f000 ffc2 	bl	8006988 <memset>
 8005a04:	4629      	mov	r1, r5
 8005a06:	f504 704e 	add.w	r0, r4, #824	@ 0x338
 8005a0a:	223e      	movs	r2, #62	@ 0x3e
 8005a0c:	e8bd 4070 	ldmia.w	sp!, {r4, r5, r6, lr}
 8005a10:	f000 bfba 	b.w	8006988 <memset>

08005a14 <USBH_Init>:
 8005a14:	b570      	push	{r4, r5, r6, lr}
 8005a16:	460e      	mov	r6, r1
 8005a18:	4604      	mov	r4, r0
 8005a1a:	b1b0      	cbz	r0, 8005a4a <USBH_Init+0x36>
 8005a1c:	2500      	movs	r5, #0
 8005a1e:	f880 23cc 	strb.w	r2, [r0, #972]	@ 0x3cc
 8005a22:	e9c0 55df 	strd	r5, r5, [r0, #892]	@ 0x37c
 8005a26:	f7ff ffc5 	bl	80059b4 <DeInitStateMachine.isra.0>
 8005a2a:	f884 5320 	strb.w	r5, [r4, #800]	@ 0x320
 8005a2e:	f884 5323 	strb.w	r5, [r4, #803]	@ 0x323
 8005a32:	f884 5321 	strb.w	r5, [r4, #801]	@ 0x321
 8005a36:	f884 5322 	strb.w	r5, [r4, #802]	@ 0x322
 8005a3a:	b10e      	cbz	r6, 8005a40 <USBH_Init+0x2c>
 8005a3c:	f8c4 63d4 	str.w	r6, [r4, #980]	@ 0x3d4
 8005a40:	4620      	mov	r0, r4
 8005a42:	f000 fe2f 	bl	80066a4 <USBH_LL_Init>
 8005a46:	2000      	movs	r0, #0
 8005a48:	bd70      	pop	{r4, r5, r6, pc}
 8005a4a:	2002      	movs	r0, #2
 8005a4c:	e7fc      	b.n	8005a48 <USBH_Init+0x34>

08005a4e <USBH_RegisterClass>:
 8005a4e:	4603      	mov	r3, r0
 8005a50:	b141      	cbz	r1, 8005a64 <USBH_RegisterClass+0x16>
 8005a52:	f8d0 0380 	ldr.w	r0, [r0, #896]	@ 0x380
 8005a56:	b928      	cbnz	r0, 8005a64 <USBH_RegisterClass+0x16>
 8005a58:	2201      	movs	r2, #1
 8005a5a:	f8c3 1378 	str.w	r1, [r3, #888]	@ 0x378
 8005a5e:	f8c3 2380 	str.w	r2, [r3, #896]	@ 0x380
 8005a62:	4770      	bx	lr
 8005a64:	2002      	movs	r0, #2
 8005a66:	4770      	bx	lr

08005a68 <USBH_SelectInterface>:
 8005a68:	f890 333c 	ldrb.w	r3, [r0, #828]	@ 0x33c
 8005a6c:	428b      	cmp	r3, r1
 8005a6e:	bf86      	itte	hi
 8005a70:	f880 1324 	strbhi.w	r1, [r0, #804]	@ 0x324
 8005a74:	2000      	movhi	r0, #0
 8005a76:	2002      	movls	r0, #2
 8005a78:	4770      	bx	lr

08005a7a <USBH_FindInterface>:
 8005a7a:	b570      	push	{r4, r5, r6, lr}
 8005a7c:	4604      	mov	r4, r0
 8005a7e:	2500      	movs	r5, #0
 8005a80:	f894 6347 	ldrb.w	r6, [r4, #839]	@ 0x347
 8005a84:	b2e8      	uxtb	r0, r5
 8005a86:	428e      	cmp	r6, r1
 8005a88:	d001      	beq.n	8005a8e <USBH_FindInterface+0x14>
 8005a8a:	29ff      	cmp	r1, #255	@ 0xff
 8005a8c:	d10b      	bne.n	8005aa6 <USBH_FindInterface+0x2c>
 8005a8e:	f894 6348 	ldrb.w	r6, [r4, #840]	@ 0x348
 8005a92:	4296      	cmp	r6, r2
 8005a94:	d001      	beq.n	8005a9a <USBH_FindInterface+0x20>
 8005a96:	2aff      	cmp	r2, #255	@ 0xff
 8005a98:	d105      	bne.n	8005aa6 <USBH_FindInterface+0x2c>
 8005a9a:	f894 6349 	ldrb.w	r6, [r4, #841]	@ 0x349
 8005a9e:	429e      	cmp	r6, r3
 8005aa0:	d004      	beq.n	8005aac <USBH_FindInterface+0x32>
 8005aa2:	2bff      	cmp	r3, #255	@ 0xff
 8005aa4:	d002      	beq.n	8005aac <USBH_FindInterface+0x32>
 8005aa6:	341a      	adds	r4, #26
 8005aa8:	b10d      	cbz	r5, 8005aae <USBH_FindInterface+0x34>
 8005aaa:	20ff      	movs	r0, #255	@ 0xff
 8005aac:	bd70      	pop	{r4, r5, r6, pc}
 8005aae:	2501      	movs	r5, #1
 8005ab0:	e7e6      	b.n	8005a80 <USBH_FindInterface+0x6>

08005ab2 <USBH_Start>:
 8005ab2:	b510      	push	{r4, lr}
 8005ab4:	4604      	mov	r4, r0
 8005ab6:	f000 fe53 	bl	8006760 <USBH_LL_Start>
 8005aba:	2101      	movs	r1, #1
 8005abc:	4620      	mov	r0, r4
 8005abe:	f000 fe2c 	bl	800671a <USBH_LL_DriverVBUS>
 8005ac2:	2000      	movs	r0, #0
 8005ac4:	bd10      	pop	{r4, pc}

08005ac6 <USBH_Process>:
 8005ac6:	b530      	push	{r4, r5, lr}
 8005ac8:	2302      	movs	r3, #2
 8005aca:	b087      	sub	sp, #28
 8005acc:	4604      	mov	r4, r0
 8005ace:	f88d 3017 	strb.w	r3, [sp, #23]
 8005ad2:	f890 3321 	ldrb.w	r3, [r0, #801]	@ 0x321
 8005ad6:	2b01      	cmp	r3, #1
 8005ad8:	d101      	bne.n	8005ade <USBH_Process+0x18>
 8005ada:	2303      	movs	r3, #3
 8005adc:	7003      	strb	r3, [r0, #0]
 8005ade:	7823      	ldrb	r3, [r4, #0]
 8005ae0:	2b0b      	cmp	r3, #11
 8005ae2:	d81d      	bhi.n	8005b20 <USBH_Process+0x5a>
 8005ae4:	e8df f013 	tbh	[pc, r3, lsl #1]
 8005ae8:	001f000c 	.word	0x001f000c
 8005aec:	01b00041 	.word	0x01b00041
 8005af0:	0077001c 	.word	0x0077001c
 8005af4:	01470192 	.word	0x01470192
 8005af8:	015a0150 	.word	0x015a0150
 8005afc:	01a7016f 	.word	0x01a7016f
 8005b00:	f894 3320 	ldrb.w	r3, [r4, #800]	@ 0x320
 8005b04:	b163      	cbz	r3, 8005b20 <USBH_Process+0x5a>
 8005b06:	2301      	movs	r3, #1
 8005b08:	20c8      	movs	r0, #200	@ 0xc8
 8005b0a:	7023      	strb	r3, [r4, #0]
 8005b0c:	f000 fe20 	bl	8006750 <USBH_Delay>
 8005b10:	4620      	mov	r0, r4
 8005b12:	f000 fe37 	bl	8006784 <USBH_LL_ResetPort>
 8005b16:	2300      	movs	r3, #0
 8005b18:	f884 331c 	strb.w	r3, [r4, #796]	@ 0x31c
 8005b1c:	f8c4 33c8 	str.w	r3, [r4, #968]	@ 0x3c8
 8005b20:	2000      	movs	r0, #0
 8005b22:	b007      	add	sp, #28
 8005b24:	bd30      	pop	{r4, r5, pc}
 8005b26:	f894 3323 	ldrb.w	r3, [r4, #803]	@ 0x323
 8005b2a:	2b01      	cmp	r3, #1
 8005b2c:	d105      	bne.n	8005b3a <USBH_Process+0x74>
 8005b2e:	2300      	movs	r3, #0
 8005b30:	f884 331f 	strb.w	r3, [r4, #799]	@ 0x31f
 8005b34:	2302      	movs	r3, #2
 8005b36:	7023      	strb	r3, [r4, #0]
 8005b38:	e7f2      	b.n	8005b20 <USBH_Process+0x5a>
 8005b3a:	f8d4 33c8 	ldr.w	r3, [r4, #968]	@ 0x3c8
 8005b3e:	f5b3 7f7a 	cmp.w	r3, #1000	@ 0x3e8
 8005b42:	d90b      	bls.n	8005b5c <USBH_Process+0x96>
 8005b44:	f894 331f 	ldrb.w	r3, [r4, #799]	@ 0x31f
 8005b48:	3301      	adds	r3, #1
 8005b4a:	b2db      	uxtb	r3, r3
 8005b4c:	2b03      	cmp	r3, #3
 8005b4e:	f884 331f 	strb.w	r3, [r4, #799]	@ 0x31f
 8005b52:	d901      	bls.n	8005b58 <USBH_Process+0x92>
 8005b54:	230d      	movs	r3, #13
 8005b56:	e7ee      	b.n	8005b36 <USBH_Process+0x70>
 8005b58:	2300      	movs	r3, #0
 8005b5a:	e7ec      	b.n	8005b36 <USBH_Process+0x70>
 8005b5c:	330a      	adds	r3, #10
 8005b5e:	200a      	movs	r0, #10
 8005b60:	f8c4 33c8 	str.w	r3, [r4, #968]	@ 0x3c8
 8005b64:	f000 fdf4 	bl	8006750 <USBH_Delay>
 8005b68:	e7da      	b.n	8005b20 <USBH_Process+0x5a>
 8005b6a:	f8d4 33d4 	ldr.w	r3, [r4, #980]	@ 0x3d4
 8005b6e:	b113      	cbz	r3, 8005b76 <USBH_Process+0xb0>
 8005b70:	2104      	movs	r1, #4
 8005b72:	4620      	mov	r0, r4
 8005b74:	4798      	blx	r3
 8005b76:	2064      	movs	r0, #100	@ 0x64
 8005b78:	2500      	movs	r5, #0
 8005b7a:	f000 fde9 	bl	8006750 <USBH_Delay>
 8005b7e:	4620      	mov	r0, r4
 8005b80:	f000 fdb8 	bl	80066f4 <USBH_LL_GetSpeed>
 8005b84:	2305      	movs	r3, #5
 8005b86:	f884 031d 	strb.w	r0, [r4, #797]	@ 0x31d
 8005b8a:	2100      	movs	r1, #0
 8005b8c:	7023      	strb	r3, [r4, #0]
 8005b8e:	4620      	mov	r0, r4
 8005b90:	f000 fcd3 	bl	800653a <USBH_AllocPipe>
 8005b94:	2180      	movs	r1, #128	@ 0x80
 8005b96:	7160      	strb	r0, [r4, #5]
 8005b98:	4620      	mov	r0, r4
 8005b9a:	f000 fcce 	bl	800653a <USBH_AllocPipe>
 8005b9e:	79a3      	ldrb	r3, [r4, #6]
 8005ba0:	7120      	strb	r0, [r4, #4]
 8005ba2:	4601      	mov	r1, r0
 8005ba4:	9302      	str	r3, [sp, #8]
 8005ba6:	2280      	movs	r2, #128	@ 0x80
 8005ba8:	9501      	str	r5, [sp, #4]
 8005baa:	4620      	mov	r0, r4
 8005bac:	f894 331d 	ldrb.w	r3, [r4, #797]	@ 0x31d
 8005bb0:	9300      	str	r3, [sp, #0]
 8005bb2:	f894 331c 	ldrb.w	r3, [r4, #796]	@ 0x31c
 8005bb6:	f000 fcac 	bl	8006512 <USBH_OpenPipe>
 8005bba:	79a3      	ldrb	r3, [r4, #6]
 8005bbc:	462a      	mov	r2, r5
 8005bbe:	4620      	mov	r0, r4
 8005bc0:	e9cd 5301 	strd	r5, r3, [sp, #4]
 8005bc4:	f894 331d 	ldrb.w	r3, [r4, #797]	@ 0x31d
 8005bc8:	9300      	str	r3, [sp, #0]
 8005bca:	f894 331c 	ldrb.w	r3, [r4, #796]	@ 0x31c
 8005bce:	7961      	ldrb	r1, [r4, #5]
 8005bd0:	f000 fc9f 	bl	8006512 <USBH_OpenPipe>
 8005bd4:	e7a4      	b.n	8005b20 <USBH_Process+0x5a>
 8005bd6:	7863      	ldrb	r3, [r4, #1]
 8005bd8:	2b07      	cmp	r3, #7
 8005bda:	d840      	bhi.n	8005c5e <USBH_Process+0x198>
 8005bdc:	e8df f003 	tbb	[pc, r3]
 8005be0:	896e5104 	.word	0x896e5104
 8005be4:	b8a99a91 	.word	0xb8a99a91
 8005be8:	2108      	movs	r1, #8
 8005bea:	4620      	mov	r0, r4
 8005bec:	f000 fa5c 	bl	80060a8 <USBH_Get_DevDesc>
 8005bf0:	4605      	mov	r5, r0
 8005bf2:	b9f0      	cbnz	r0, 8005c32 <USBH_Process+0x16c>
 8005bf4:	f894 332d 	ldrb.w	r3, [r4, #813]	@ 0x32d
 8005bf8:	2201      	movs	r2, #1
 8005bfa:	71a3      	strb	r3, [r4, #6]
 8005bfc:	7062      	strb	r2, [r4, #1]
 8005bfe:	e9cd 0301 	strd	r0, r3, [sp, #4]
 8005c02:	f894 331d 	ldrb.w	r3, [r4, #797]	@ 0x31d
 8005c06:	9300      	str	r3, [sp, #0]
 8005c08:	f894 331c 	ldrb.w	r3, [r4, #796]	@ 0x31c
 8005c0c:	7921      	ldrb	r1, [r4, #4]
 8005c0e:	2280      	movs	r2, #128	@ 0x80
 8005c10:	4620      	mov	r0, r4
 8005c12:	f000 fc7e 	bl	8006512 <USBH_OpenPipe>
 8005c16:	79a3      	ldrb	r3, [r4, #6]
 8005c18:	462a      	mov	r2, r5
 8005c1a:	4620      	mov	r0, r4
 8005c1c:	e9cd 5301 	strd	r5, r3, [sp, #4]
 8005c20:	f894 331d 	ldrb.w	r3, [r4, #797]	@ 0x31d
 8005c24:	9300      	str	r3, [sp, #0]
 8005c26:	f894 331c 	ldrb.w	r3, [r4, #796]	@ 0x31c
 8005c2a:	7961      	ldrb	r1, [r4, #5]
 8005c2c:	f000 fc71 	bl	8006512 <USBH_OpenPipe>
 8005c30:	e015      	b.n	8005c5e <USBH_Process+0x198>
 8005c32:	2803      	cmp	r0, #3
 8005c34:	d113      	bne.n	8005c5e <USBH_Process+0x198>
 8005c36:	f894 331e 	ldrb.w	r3, [r4, #798]	@ 0x31e
 8005c3a:	3301      	adds	r3, #1
 8005c3c:	b2db      	uxtb	r3, r3
 8005c3e:	2b03      	cmp	r3, #3
 8005c40:	f884 331e 	strb.w	r3, [r4, #798]	@ 0x31e
 8005c44:	d901      	bls.n	8005c4a <USBH_Process+0x184>
 8005c46:	230d      	movs	r3, #13
 8005c48:	e008      	b.n	8005c5c <USBH_Process+0x196>
 8005c4a:	7961      	ldrb	r1, [r4, #5]
 8005c4c:	4620      	mov	r0, r4
 8005c4e:	f000 fc8b 	bl	8006568 <USBH_FreePipe>
 8005c52:	7921      	ldrb	r1, [r4, #4]
 8005c54:	4620      	mov	r0, r4
 8005c56:	f000 fc87 	bl	8006568 <USBH_FreePipe>
 8005c5a:	2300      	movs	r3, #0
 8005c5c:	7023      	strb	r3, [r4, #0]
 8005c5e:	2001      	movs	r0, #1
 8005c60:	f88d 0017 	strb.w	r0, [sp, #23]
 8005c64:	f89d 3017 	ldrb.w	r3, [sp, #23]
 8005c68:	f003 02ff 	and.w	r2, r3, #255	@ 0xff
 8005c6c:	2b00      	cmp	r3, #0
 8005c6e:	f47f af57 	bne.w	8005b20 <USBH_Process+0x5a>
 8005c72:	f894 3337 	ldrb.w	r3, [r4, #823]	@ 0x337
 8005c76:	f884 2324 	strb.w	r2, [r4, #804]	@ 0x324
 8005c7a:	2b01      	cmp	r3, #1
 8005c7c:	d179      	bne.n	8005d72 <USBH_Process+0x2ac>
 8005c7e:	2308      	movs	r3, #8
 8005c80:	e759      	b.n	8005b36 <USBH_Process+0x70>
 8005c82:	2112      	movs	r1, #18
 8005c84:	4620      	mov	r0, r4
 8005c86:	f000 fa0f 	bl	80060a8 <USBH_Get_DevDesc>
 8005c8a:	b910      	cbnz	r0, 8005c92 <USBH_Process+0x1cc>
 8005c8c:	2302      	movs	r3, #2
 8005c8e:	7063      	strb	r3, [r4, #1]
 8005c90:	e7e5      	b.n	8005c5e <USBH_Process+0x198>
 8005c92:	2803      	cmp	r0, #3
 8005c94:	d1e3      	bne.n	8005c5e <USBH_Process+0x198>
 8005c96:	f894 331e 	ldrb.w	r3, [r4, #798]	@ 0x31e
 8005c9a:	3301      	adds	r3, #1
 8005c9c:	b2db      	uxtb	r3, r3
 8005c9e:	2b03      	cmp	r3, #3
 8005ca0:	f884 331e 	strb.w	r3, [r4, #798]	@ 0x31e
 8005ca4:	d8cf      	bhi.n	8005c46 <USBH_Process+0x180>
 8005ca6:	7961      	ldrb	r1, [r4, #5]
 8005ca8:	4620      	mov	r0, r4
 8005caa:	f000 fc5d 	bl	8006568 <USBH_FreePipe>
 8005cae:	7921      	ldrb	r1, [r4, #4]
 8005cb0:	4620      	mov	r0, r4
 8005cb2:	f000 fc59 	bl	8006568 <USBH_FreePipe>
 8005cb6:	2300      	movs	r3, #0
 8005cb8:	7063      	strb	r3, [r4, #1]
 8005cba:	e7cf      	b.n	8005c5c <USBH_Process+0x196>
 8005cbc:	2101      	movs	r1, #1
 8005cbe:	4620      	mov	r0, r4
 8005cc0:	f000 fb95 	bl	80063ee <USBH_SetAddress>
 8005cc4:	4605      	mov	r5, r0
 8005cc6:	b970      	cbnz	r0, 8005ce6 <USBH_Process+0x220>
 8005cc8:	2002      	movs	r0, #2
 8005cca:	f000 fd41 	bl	8006750 <USBH_Delay>
 8005cce:	2203      	movs	r2, #3
 8005cd0:	2301      	movs	r3, #1
 8005cd2:	7062      	strb	r2, [r4, #1]
 8005cd4:	79a2      	ldrb	r2, [r4, #6]
 8005cd6:	f884 331c 	strb.w	r3, [r4, #796]	@ 0x31c
 8005cda:	e9cd 5201 	strd	r5, r2, [sp, #4]
 8005cde:	f894 231d 	ldrb.w	r2, [r4, #797]	@ 0x31d
 8005ce2:	9200      	str	r2, [sp, #0]
 8005ce4:	e792      	b.n	8005c0c <USBH_Process+0x146>
 8005ce6:	2803      	cmp	r0, #3
 8005ce8:	d1b9      	bne.n	8005c5e <USBH_Process+0x198>
 8005cea:	230d      	movs	r3, #13
 8005cec:	7023      	strb	r3, [r4, #0]
 8005cee:	2300      	movs	r3, #0
 8005cf0:	e7cd      	b.n	8005c8e <USBH_Process+0x1c8>
 8005cf2:	2109      	movs	r1, #9
 8005cf4:	4620      	mov	r0, r4
 8005cf6:	f000 fa43 	bl	8006180 <USBH_Get_CfgDesc>
 8005cfa:	2800      	cmp	r0, #0
 8005cfc:	d1c9      	bne.n	8005c92 <USBH_Process+0x1cc>
 8005cfe:	2304      	movs	r3, #4
 8005d00:	e7c5      	b.n	8005c8e <USBH_Process+0x1c8>
 8005d02:	f8b4 133a 	ldrh.w	r1, [r4, #826]	@ 0x33a
 8005d06:	4620      	mov	r0, r4
 8005d08:	f000 fa3a 	bl	8006180 <USBH_Get_CfgDesc>
 8005d0c:	2800      	cmp	r0, #0
 8005d0e:	d1c0      	bne.n	8005c92 <USBH_Process+0x1cc>
 8005d10:	2305      	movs	r3, #5
 8005d12:	e7bc      	b.n	8005c8e <USBH_Process+0x1c8>
 8005d14:	f894 1334 	ldrb.w	r1, [r4, #820]	@ 0x334
 8005d18:	b131      	cbz	r1, 8005d28 <USBH_Process+0x262>
 8005d1a:	23ff      	movs	r3, #255	@ 0xff
 8005d1c:	f504 728e 	add.w	r2, r4, #284	@ 0x11c
 8005d20:	4620      	mov	r0, r4
 8005d22:	f000 fb37 	bl	8006394 <USBH_Get_StringDesc>
 8005d26:	b908      	cbnz	r0, 8005d2c <USBH_Process+0x266>
 8005d28:	2306      	movs	r3, #6
 8005d2a:	e7b0      	b.n	8005c8e <USBH_Process+0x1c8>
 8005d2c:	2803      	cmp	r0, #3
 8005d2e:	d196      	bne.n	8005c5e <USBH_Process+0x198>
 8005d30:	e7fa      	b.n	8005d28 <USBH_Process+0x262>
 8005d32:	f894 1335 	ldrb.w	r1, [r4, #821]	@ 0x335
 8005d36:	b131      	cbz	r1, 8005d46 <USBH_Process+0x280>
 8005d38:	23ff      	movs	r3, #255	@ 0xff
 8005d3a:	f504 728e 	add.w	r2, r4, #284	@ 0x11c
 8005d3e:	4620      	mov	r0, r4
 8005d40:	f000 fb28 	bl	8006394 <USBH_Get_StringDesc>
 8005d44:	b908      	cbnz	r0, 8005d4a <USBH_Process+0x284>
 8005d46:	2307      	movs	r3, #7
 8005d48:	e7a1      	b.n	8005c8e <USBH_Process+0x1c8>
 8005d4a:	2803      	cmp	r0, #3
 8005d4c:	d187      	bne.n	8005c5e <USBH_Process+0x198>
 8005d4e:	e7fa      	b.n	8005d46 <USBH_Process+0x280>
 8005d50:	f894 1336 	ldrb.w	r1, [r4, #822]	@ 0x336
 8005d54:	b909      	cbnz	r1, 8005d5a <USBH_Process+0x294>
 8005d56:	2000      	movs	r0, #0
 8005d58:	e782      	b.n	8005c60 <USBH_Process+0x19a>
 8005d5a:	23ff      	movs	r3, #255	@ 0xff
 8005d5c:	f504 728e 	add.w	r2, r4, #284	@ 0x11c
 8005d60:	4620      	mov	r0, r4
 8005d62:	f000 fb17 	bl	8006394 <USBH_Get_StringDesc>
 8005d66:	2800      	cmp	r0, #0
 8005d68:	d0f5      	beq.n	8005d56 <USBH_Process+0x290>
 8005d6a:	3803      	subs	r0, #3
 8005d6c:	bf18      	it	ne
 8005d6e:	2001      	movne	r0, #1
 8005d70:	e776      	b.n	8005c60 <USBH_Process+0x19a>
 8005d72:	2307      	movs	r3, #7
 8005d74:	e6df      	b.n	8005b36 <USBH_Process+0x70>
 8005d76:	f8d4 33d4 	ldr.w	r3, [r4, #980]	@ 0x3d4
 8005d7a:	2b00      	cmp	r3, #0
 8005d7c:	f43f aed0 	beq.w	8005b20 <USBH_Process+0x5a>
 8005d80:	2101      	movs	r1, #1
 8005d82:	4620      	mov	r0, r4
 8005d84:	4798      	blx	r3
 8005d86:	e77a      	b.n	8005c7e <USBH_Process+0x1b8>
 8005d88:	f894 133d 	ldrb.w	r1, [r4, #829]	@ 0x33d
 8005d8c:	4620      	mov	r0, r4
 8005d8e:	f000 fb3b 	bl	8006408 <USBH_SetCfg>
 8005d92:	2800      	cmp	r0, #0
 8005d94:	f47f aec4 	bne.w	8005b20 <USBH_Process+0x5a>
 8005d98:	2309      	movs	r3, #9
 8005d9a:	e6cc      	b.n	8005b36 <USBH_Process+0x70>
 8005d9c:	f894 333f 	ldrb.w	r3, [r4, #831]	@ 0x33f
 8005da0:	069b      	lsls	r3, r3, #26
 8005da2:	d508      	bpl.n	8005db6 <USBH_Process+0x2f0>
 8005da4:	2101      	movs	r1, #1
 8005da6:	4620      	mov	r0, r4
 8005da8:	f000 fb3b 	bl	8006422 <USBH_SetFeature>
 8005dac:	f88d 0017 	strb.w	r0, [sp, #23]
 8005db0:	f89d 3017 	ldrb.w	r3, [sp, #23]
 8005db4:	b90b      	cbnz	r3, 8005dba <USBH_Process+0x2f4>
 8005db6:	230a      	movs	r3, #10
 8005db8:	e6bd      	b.n	8005b36 <USBH_Process+0x70>
 8005dba:	f89d 3017 	ldrb.w	r3, [sp, #23]
 8005dbe:	2b03      	cmp	r3, #3
 8005dc0:	f47f aeae 	bne.w	8005b20 <USBH_Process+0x5a>
 8005dc4:	e7f7      	b.n	8005db6 <USBH_Process+0x2f0>
 8005dc6:	f8d4 3380 	ldr.w	r3, [r4, #896]	@ 0x380
 8005dca:	2b00      	cmp	r3, #0
 8005dcc:	f43f aea8 	beq.w	8005b20 <USBH_Process+0x5a>
 8005dd0:	2300      	movs	r3, #0
 8005dd2:	f894 1347 	ldrb.w	r1, [r4, #839]	@ 0x347
 8005dd6:	f8c4 337c 	str.w	r3, [r4, #892]	@ 0x37c
 8005dda:	f8d4 3378 	ldr.w	r3, [r4, #888]	@ 0x378
 8005dde:	791a      	ldrb	r2, [r3, #4]
 8005de0:	4291      	cmp	r1, r2
 8005de2:	bf18      	it	ne
 8005de4:	2300      	movne	r3, #0
 8005de6:	f8c4 337c 	str.w	r3, [r4, #892]	@ 0x37c
 8005dea:	2b00      	cmp	r3, #0
 8005dec:	f43f aeb2 	beq.w	8005b54 <USBH_Process+0x8e>
 8005df0:	689b      	ldr	r3, [r3, #8]
 8005df2:	4620      	mov	r0, r4
 8005df4:	4798      	blx	r3
 8005df6:	2800      	cmp	r0, #0
 8005df8:	f47f aeac 	bne.w	8005b54 <USBH_Process+0x8e>
 8005dfc:	2306      	movs	r3, #6
 8005dfe:	2103      	movs	r1, #3
 8005e00:	4620      	mov	r0, r4
 8005e02:	7023      	strb	r3, [r4, #0]
 8005e04:	f8d4 33d4 	ldr.w	r3, [r4, #980]	@ 0x3d4
 8005e08:	4798      	blx	r3
 8005e0a:	e689      	b.n	8005b20 <USBH_Process+0x5a>
 8005e0c:	f8d4 337c 	ldr.w	r3, [r4, #892]	@ 0x37c
 8005e10:	2b00      	cmp	r3, #0
 8005e12:	f43f ae9f 	beq.w	8005b54 <USBH_Process+0x8e>
 8005e16:	691b      	ldr	r3, [r3, #16]
 8005e18:	4620      	mov	r0, r4
 8005e1a:	4798      	blx	r3
 8005e1c:	f88d 0017 	strb.w	r0, [sp, #23]
 8005e20:	f89d 3017 	ldrb.w	r3, [sp, #23]
 8005e24:	b90b      	cbnz	r3, 8005e2a <USBH_Process+0x364>
 8005e26:	230b      	movs	r3, #11
 8005e28:	e685      	b.n	8005b36 <USBH_Process+0x70>
 8005e2a:	f89d 3017 	ldrb.w	r3, [sp, #23]
 8005e2e:	2b02      	cmp	r3, #2
 8005e30:	f47f ae76 	bne.w	8005b20 <USBH_Process+0x5a>
 8005e34:	e68e      	b.n	8005b54 <USBH_Process+0x8e>
 8005e36:	f8d4 337c 	ldr.w	r3, [r4, #892]	@ 0x37c
 8005e3a:	2b00      	cmp	r3, #0
 8005e3c:	f43f ae70 	beq.w	8005b20 <USBH_Process+0x5a>
 8005e40:	695b      	ldr	r3, [r3, #20]
 8005e42:	4620      	mov	r0, r4
 8005e44:	4798      	blx	r3
 8005e46:	e66b      	b.n	8005b20 <USBH_Process+0x5a>
 8005e48:	2500      	movs	r5, #0
 8005e4a:	4620      	mov	r0, r4
 8005e4c:	f884 5321 	strb.w	r5, [r4, #801]	@ 0x321
 8005e50:	f7ff fdb0 	bl	80059b4 <DeInitStateMachine.isra.0>
 8005e54:	f8d4 337c 	ldr.w	r3, [r4, #892]	@ 0x37c
 8005e58:	b123      	cbz	r3, 8005e64 <USBH_Process+0x39e>
 8005e5a:	68db      	ldr	r3, [r3, #12]
 8005e5c:	4620      	mov	r0, r4
 8005e5e:	4798      	blx	r3
 8005e60:	f8c4 537c 	str.w	r5, [r4, #892]	@ 0x37c
 8005e64:	f8d4 33d4 	ldr.w	r3, [r4, #980]	@ 0x3d4
 8005e68:	b113      	cbz	r3, 8005e70 <USBH_Process+0x3aa>
 8005e6a:	2105      	movs	r1, #5
 8005e6c:	4620      	mov	r0, r4
 8005e6e:	4798      	blx	r3
 8005e70:	f894 3322 	ldrb.w	r3, [r4, #802]	@ 0x322
 8005e74:	2b01      	cmp	r3, #1
 8005e76:	d106      	bne.n	8005e86 <USBH_Process+0x3c0>
 8005e78:	2300      	movs	r3, #0
 8005e7a:	4620      	mov	r0, r4
 8005e7c:	f884 3322 	strb.w	r3, [r4, #802]	@ 0x322
 8005e80:	f7ff fe17 	bl	8005ab2 <USBH_Start>
 8005e84:	e64c      	b.n	8005b20 <USBH_Process+0x5a>
 8005e86:	4620      	mov	r0, r4
 8005e88:	f000 fc6a 	bl	8006760 <USBH_LL_Start>
 8005e8c:	e648      	b.n	8005b20 <USBH_Process+0x5a>

08005e8e <USBH_LL_SetTimer>:
 8005e8e:	f8c0 13c4 	str.w	r1, [r0, #964]	@ 0x3c4
 8005e92:	4770      	bx	lr

08005e94 <USBH_LL_IncTimer>:
 8005e94:	f8d0 23c4 	ldr.w	r2, [r0, #964]	@ 0x3c4
 8005e98:	3201      	adds	r2, #1
 8005e9a:	f8c0 23c4 	str.w	r2, [r0, #964]	@ 0x3c4
 8005e9e:	7802      	ldrb	r2, [r0, #0]
 8005ea0:	2a0b      	cmp	r2, #11
 8005ea2:	d104      	bne.n	8005eae <USBH_LL_IncTimer+0x1a>
 8005ea4:	f8d0 337c 	ldr.w	r3, [r0, #892]	@ 0x37c
 8005ea8:	b10b      	cbz	r3, 8005eae <USBH_LL_IncTimer+0x1a>
 8005eaa:	699b      	ldr	r3, [r3, #24]
 8005eac:	4718      	bx	r3
 8005eae:	4770      	bx	lr

08005eb0 <USBH_LL_PortEnabled>:
 8005eb0:	2301      	movs	r3, #1
 8005eb2:	f880 3323 	strb.w	r3, [r0, #803]	@ 0x323
 8005eb6:	4770      	bx	lr

08005eb8 <USBH_LL_PortDisabled>:
 8005eb8:	2300      	movs	r3, #0
 8005eba:	f880 3323 	strb.w	r3, [r0, #803]	@ 0x323
 8005ebe:	4770      	bx	lr

08005ec0 <USBH_LL_Connect>:
 8005ec0:	2201      	movs	r2, #1
 8005ec2:	4603      	mov	r3, r0
 8005ec4:	f880 2320 	strb.w	r2, [r0, #800]	@ 0x320
 8005ec8:	2000      	movs	r0, #0
 8005eca:	f883 0321 	strb.w	r0, [r3, #801]	@ 0x321
 8005ece:	f883 0322 	strb.w	r0, [r3, #802]	@ 0x322
 8005ed2:	4770      	bx	lr

08005ed4 <USBH_LL_Disconnect>:
 8005ed4:	b538      	push	{r3, r4, r5, lr}
 8005ed6:	2301      	movs	r3, #1
 8005ed8:	2500      	movs	r5, #0
 8005eda:	4604      	mov	r4, r0
 8005edc:	f880 3321 	strb.w	r3, [r0, #801]	@ 0x321
 8005ee0:	f880 5323 	strb.w	r5, [r0, #803]	@ 0x323
 8005ee4:	f880 5320 	strb.w	r5, [r0, #800]	@ 0x320
 8005ee8:	f000 fc43 	bl	8006772 <USBH_LL_Stop>
 8005eec:	7921      	ldrb	r1, [r4, #4]
 8005eee:	4620      	mov	r0, r4
 8005ef0:	f000 fb3a 	bl	8006568 <USBH_FreePipe>
 8005ef4:	7961      	ldrb	r1, [r4, #5]
 8005ef6:	4620      	mov	r0, r4
 8005ef8:	f000 fb36 	bl	8006568 <USBH_FreePipe>
 8005efc:	4628      	mov	r0, r5
 8005efe:	bd38      	pop	{r3, r4, r5, pc}

08005f00 <USBH_CtlReq>:
 8005f00:	b573      	push	{r0, r1, r4, r5, r6, lr}
 8005f02:	7885      	ldrb	r5, [r0, #2]
 8005f04:	4604      	mov	r4, r0
 8005f06:	2d01      	cmp	r5, #1
 8005f08:	d005      	beq.n	8005f16 <USBH_CtlReq+0x16>
 8005f0a:	2d02      	cmp	r5, #2
 8005f0c:	d009      	beq.n	8005f22 <USBH_CtlReq+0x22>
 8005f0e:	2501      	movs	r5, #1
 8005f10:	4628      	mov	r0, r5
 8005f12:	b002      	add	sp, #8
 8005f14:	bd70      	pop	{r4, r5, r6, pc}
 8005f16:	2302      	movs	r3, #2
 8005f18:	6081      	str	r1, [r0, #8]
 8005f1a:	8182      	strh	r2, [r0, #12]
 8005f1c:	7605      	strb	r5, [r0, #24]
 8005f1e:	70a3      	strb	r3, [r4, #2]
 8005f20:	e7f5      	b.n	8005f0e <USBH_CtlReq+0xe>
 8005f22:	7e03      	ldrb	r3, [r0, #24]
 8005f24:	2201      	movs	r2, #1
 8005f26:	3b01      	subs	r3, #1
 8005f28:	2b0a      	cmp	r3, #10
 8005f2a:	d8f0      	bhi.n	8005f0e <USBH_CtlReq+0xe>
 8005f2c:	e8df f003 	tbb	[pc, r3]
 8005f30:	33290e06 	.word	0x33290e06
 8005f34:	675d473c 	.word	0x675d473c
 8005f38:	7f74      	.short	0x7f74
 8005f3a:	87          	.byte	0x87
 8005f3b:	00          	.byte	0x00
 8005f3c:	7942      	ldrb	r2, [r0, #5]
 8005f3e:	f100 0110 	add.w	r1, r0, #16
 8005f42:	f000 fa88 	bl	8006456 <USBH_CtlSendSetup>
 8005f46:	2302      	movs	r3, #2
 8005f48:	7623      	strb	r3, [r4, #24]
 8005f4a:	e7e0      	b.n	8005f0e <USBH_CtlReq+0xe>
 8005f4c:	7941      	ldrb	r1, [r0, #5]
 8005f4e:	f000 fbe0 	bl	8006712 <USBH_LL_GetURBState>
 8005f52:	2801      	cmp	r0, #1
 8005f54:	d10f      	bne.n	8005f76 <USBH_CtlReq+0x76>
 8005f56:	8ae2      	ldrh	r2, [r4, #22]
 8005f58:	f994 3010 	ldrsb.w	r3, [r4, #16]
 8005f5c:	b12a      	cbz	r2, 8005f6a <USBH_CtlReq+0x6a>
 8005f5e:	2b00      	cmp	r3, #0
 8005f60:	da01      	bge.n	8005f66 <USBH_CtlReq+0x66>
 8005f62:	2303      	movs	r3, #3
 8005f64:	e7f0      	b.n	8005f48 <USBH_CtlReq+0x48>
 8005f66:	2305      	movs	r3, #5
 8005f68:	e7ee      	b.n	8005f48 <USBH_CtlReq+0x48>
 8005f6a:	2b00      	cmp	r3, #0
 8005f6c:	da01      	bge.n	8005f72 <USBH_CtlReq+0x72>
 8005f6e:	2309      	movs	r3, #9
 8005f70:	e7ea      	b.n	8005f48 <USBH_CtlReq+0x48>
 8005f72:	2307      	movs	r3, #7
 8005f74:	e7e8      	b.n	8005f48 <USBH_CtlReq+0x48>
 8005f76:	2804      	cmp	r0, #4
 8005f78:	d001      	beq.n	8005f7e <USBH_CtlReq+0x7e>
 8005f7a:	2802      	cmp	r0, #2
 8005f7c:	d1c7      	bne.n	8005f0e <USBH_CtlReq+0xe>
 8005f7e:	230b      	movs	r3, #11
 8005f80:	e7e2      	b.n	8005f48 <USBH_CtlReq+0x48>
 8005f82:	f8d0 33c4 	ldr.w	r3, [r0, #964]	@ 0x3c4
 8005f86:	8982      	ldrh	r2, [r0, #12]
 8005f88:	81c3      	strh	r3, [r0, #14]
 8005f8a:	6881      	ldr	r1, [r0, #8]
 8005f8c:	7903      	ldrb	r3, [r0, #4]
 8005f8e:	f000 fa89 	bl	80064a4 <USBH_CtlReceiveData>
 8005f92:	2304      	movs	r3, #4
 8005f94:	e7d8      	b.n	8005f48 <USBH_CtlReq+0x48>
 8005f96:	7901      	ldrb	r1, [r0, #4]
 8005f98:	f000 fbbb 	bl	8006712 <USBH_LL_GetURBState>
 8005f9c:	2801      	cmp	r0, #1
 8005f9e:	d0e6      	beq.n	8005f6e <USBH_CtlReq+0x6e>
 8005fa0:	2805      	cmp	r0, #5
 8005fa2:	d013      	beq.n	8005fcc <USBH_CtlReq+0xcc>
 8005fa4:	2804      	cmp	r0, #4
 8005fa6:	e7e9      	b.n	8005f7c <USBH_CtlReq+0x7c>
 8005fa8:	9200      	str	r2, [sp, #0]
 8005faa:	7943      	ldrb	r3, [r0, #5]
 8005fac:	8982      	ldrh	r2, [r0, #12]
 8005fae:	6881      	ldr	r1, [r0, #8]
 8005fb0:	f000 fa61 	bl	8006476 <USBH_CtlSendData>
 8005fb4:	f8d4 33c4 	ldr.w	r3, [r4, #964]	@ 0x3c4
 8005fb8:	81e3      	strh	r3, [r4, #14]
 8005fba:	2306      	movs	r3, #6
 8005fbc:	e7c4      	b.n	8005f48 <USBH_CtlReq+0x48>
 8005fbe:	7941      	ldrb	r1, [r0, #5]
 8005fc0:	f000 fba7 	bl	8006712 <USBH_LL_GetURBState>
 8005fc4:	2801      	cmp	r0, #1
 8005fc6:	d0d4      	beq.n	8005f72 <USBH_CtlReq+0x72>
 8005fc8:	2805      	cmp	r0, #5
 8005fca:	d105      	bne.n	8005fd8 <USBH_CtlReq+0xd8>
 8005fcc:	2503      	movs	r5, #3
 8005fce:	2301      	movs	r3, #1
 8005fd0:	70a3      	strb	r3, [r4, #2]
 8005fd2:	2300      	movs	r3, #0
 8005fd4:	7623      	strb	r3, [r4, #24]
 8005fd6:	e79b      	b.n	8005f10 <USBH_CtlReq+0x10>
 8005fd8:	2802      	cmp	r0, #2
 8005fda:	d0c4      	beq.n	8005f66 <USBH_CtlReq+0x66>
 8005fdc:	2804      	cmp	r0, #4
 8005fde:	d196      	bne.n	8005f0e <USBH_CtlReq+0xe>
 8005fe0:	230b      	movs	r3, #11
 8005fe2:	7623      	strb	r3, [r4, #24]
 8005fe4:	2301      	movs	r3, #1
 8005fe6:	70a3      	strb	r3, [r4, #2]
 8005fe8:	e792      	b.n	8005f10 <USBH_CtlReq+0x10>
 8005fea:	2200      	movs	r2, #0
 8005fec:	7903      	ldrb	r3, [r0, #4]
 8005fee:	4611      	mov	r1, r2
 8005ff0:	f000 fa58 	bl	80064a4 <USBH_CtlReceiveData>
 8005ff4:	f8d4 33c4 	ldr.w	r3, [r4, #964]	@ 0x3c4
 8005ff8:	81e3      	strh	r3, [r4, #14]
 8005ffa:	2308      	movs	r3, #8
 8005ffc:	e7a4      	b.n	8005f48 <USBH_CtlReq+0x48>
 8005ffe:	7901      	ldrb	r1, [r0, #4]
 8006000:	f000 fb87 	bl	8006712 <USBH_LL_GetURBState>
 8006004:	2801      	cmp	r0, #1
 8006006:	d101      	bne.n	800600c <USBH_CtlReq+0x10c>
 8006008:	2500      	movs	r5, #0
 800600a:	e7e0      	b.n	8005fce <USBH_CtlReq+0xce>
 800600c:	2804      	cmp	r0, #4
 800600e:	d0b6      	beq.n	8005f7e <USBH_CtlReq+0x7e>
 8006010:	2805      	cmp	r0, #5
 8006012:	f47f af7c 	bne.w	8005f0e <USBH_CtlReq+0xe>
 8006016:	e7d9      	b.n	8005fcc <USBH_CtlReq+0xcc>
 8006018:	9200      	str	r2, [sp, #0]
 800601a:	2200      	movs	r2, #0
 800601c:	7943      	ldrb	r3, [r0, #5]
 800601e:	4611      	mov	r1, r2
 8006020:	f000 fa29 	bl	8006476 <USBH_CtlSendData>
 8006024:	f8d4 33c4 	ldr.w	r3, [r4, #964]	@ 0x3c4
 8006028:	81e3      	strh	r3, [r4, #14]
 800602a:	230a      	movs	r3, #10
 800602c:	e78c      	b.n	8005f48 <USBH_CtlReq+0x48>
 800602e:	7941      	ldrb	r1, [r0, #5]
 8006030:	f000 fb6f 	bl	8006712 <USBH_LL_GetURBState>
 8006034:	2801      	cmp	r0, #1
 8006036:	d0e7      	beq.n	8006008 <USBH_CtlReq+0x108>
 8006038:	2802      	cmp	r0, #2
 800603a:	d1b3      	bne.n	8005fa4 <USBH_CtlReq+0xa4>
 800603c:	e797      	b.n	8005f6e <USBH_CtlReq+0x6e>
 800603e:	7e43      	ldrb	r3, [r0, #25]
 8006040:	3301      	adds	r3, #1
 8006042:	b2db      	uxtb	r3, r3
 8006044:	2b02      	cmp	r3, #2
 8006046:	7643      	strb	r3, [r0, #25]
 8006048:	d802      	bhi.n	8006050 <USBH_CtlReq+0x150>
 800604a:	2301      	movs	r3, #1
 800604c:	7603      	strb	r3, [r0, #24]
 800604e:	e766      	b.n	8005f1e <USBH_CtlReq+0x1e>
 8006050:	2600      	movs	r6, #0
 8006052:	f8d0 33d4 	ldr.w	r3, [r0, #980]	@ 0x3d4
 8006056:	2106      	movs	r1, #6
 8006058:	4798      	blx	r3
 800605a:	7961      	ldrb	r1, [r4, #5]
 800605c:	4620      	mov	r0, r4
 800605e:	7666      	strb	r6, [r4, #25]
 8006060:	f000 fa82 	bl	8006568 <USBH_FreePipe>
 8006064:	7921      	ldrb	r1, [r4, #4]
 8006066:	4620      	mov	r0, r4
 8006068:	f000 fa7e 	bl	8006568 <USBH_FreePipe>
 800606c:	7026      	strb	r6, [r4, #0]
 800606e:	e7b9      	b.n	8005fe4 <USBH_CtlReq+0xe4>

08006070 <USBH_GetDescriptor>:
 8006070:	b430      	push	{r4, r5}
 8006072:	460d      	mov	r5, r1
 8006074:	4619      	mov	r1, r3
 8006076:	7883      	ldrb	r3, [r0, #2]
 8006078:	4614      	mov	r4, r2
 800607a:	f8bd 2008 	ldrh.w	r2, [sp, #8]
 800607e:	2b01      	cmp	r3, #1
 8006080:	d10f      	bne.n	80060a2 <USBH_GetDescriptor+0x32>
 8006082:	8244      	strh	r4, [r0, #18]
 8006084:	f404 447f 	and.w	r4, r4, #65280	@ 0xff00
 8006088:	2306      	movs	r3, #6
 800608a:	f065 057f 	orn	r5, r5, #127	@ 0x7f
 800608e:	f5b4 7f40 	cmp.w	r4, #768	@ 0x300
 8006092:	82c2      	strh	r2, [r0, #22]
 8006094:	7443      	strb	r3, [r0, #17]
 8006096:	f240 4309 	movw	r3, #1033	@ 0x409
 800609a:	bf18      	it	ne
 800609c:	2300      	movne	r3, #0
 800609e:	7405      	strb	r5, [r0, #16]
 80060a0:	8283      	strh	r3, [r0, #20]
 80060a2:	bc30      	pop	{r4, r5}
 80060a4:	f7ff bf2c 	b.w	8005f00 <USBH_CtlReq>

080060a8 <USBH_Get_DevDesc>:
 80060a8:	f5b1 7f00 	cmp.w	r1, #512	@ 0x200
 80060ac:	b537      	push	{r0, r1, r2, r4, r5, lr}
 80060ae:	4604      	mov	r4, r0
 80060b0:	460d      	mov	r5, r1
 80060b2:	d860      	bhi.n	8006176 <USBH_Get_DevDesc+0xce>
 80060b4:	9100      	str	r1, [sp, #0]
 80060b6:	f500 738e 	add.w	r3, r0, #284	@ 0x11c
 80060ba:	f44f 7280 	mov.w	r2, #256	@ 0x100
 80060be:	2100      	movs	r1, #0
 80060c0:	f7ff ffd6 	bl	8006070 <USBH_GetDescriptor>
 80060c4:	2800      	cmp	r0, #0
 80060c6:	d148      	bne.n	800615a <USBH_Get_DevDesc+0xb2>
 80060c8:	f894 311c 	ldrb.w	r3, [r4, #284]	@ 0x11c
 80060cc:	f894 231d 	ldrb.w	r2, [r4, #797]	@ 0x31d
 80060d0:	f884 3326 	strb.w	r3, [r4, #806]	@ 0x326
 80060d4:	f894 311d 	ldrb.w	r3, [r4, #285]	@ 0x11d
 80060d8:	2a01      	cmp	r2, #1
 80060da:	f884 3327 	strb.w	r3, [r4, #807]	@ 0x327
 80060de:	f8b4 311e 	ldrh.w	r3, [r4, #286]	@ 0x11e
 80060e2:	f8a4 3328 	strh.w	r3, [r4, #808]	@ 0x328
 80060e6:	f894 3120 	ldrb.w	r3, [r4, #288]	@ 0x120
 80060ea:	f884 332a 	strb.w	r3, [r4, #810]	@ 0x32a
 80060ee:	f894 3121 	ldrb.w	r3, [r4, #289]	@ 0x121
 80060f2:	f884 332b 	strb.w	r3, [r4, #811]	@ 0x32b
 80060f6:	f894 3122 	ldrb.w	r3, [r4, #290]	@ 0x122
 80060fa:	f884 332c 	strb.w	r3, [r4, #812]	@ 0x32c
 80060fe:	f894 3123 	ldrb.w	r3, [r4, #291]	@ 0x123
 8006102:	f884 332d 	strb.w	r3, [r4, #813]	@ 0x32d
 8006106:	d830      	bhi.n	800616a <USBH_Get_DevDesc+0xc2>
 8006108:	2b20      	cmp	r3, #32
 800610a:	d828      	bhi.n	800615e <USBH_Get_DevDesc+0xb6>
 800610c:	2b07      	cmp	r3, #7
 800610e:	d928      	bls.n	8006162 <USBH_Get_DevDesc+0xba>
 8006110:	3b08      	subs	r3, #8
 8006112:	4a1a      	ldr	r2, [pc, #104]	@ (800617c <USBH_Get_DevDesc+0xd4>)
 8006114:	b2db      	uxtb	r3, r3
 8006116:	fa22 f303 	lsr.w	r3, r2, r3
 800611a:	07db      	lsls	r3, r3, #31
 800611c:	d521      	bpl.n	8006162 <USBH_Get_DevDesc+0xba>
 800611e:	2d08      	cmp	r5, #8
 8006120:	d91b      	bls.n	800615a <USBH_Get_DevDesc+0xb2>
 8006122:	f8b4 3124 	ldrh.w	r3, [r4, #292]	@ 0x124
 8006126:	f8a4 332e 	strh.w	r3, [r4, #814]	@ 0x32e
 800612a:	f8b4 3126 	ldrh.w	r3, [r4, #294]	@ 0x126
 800612e:	f8a4 3330 	strh.w	r3, [r4, #816]	@ 0x330
 8006132:	f8b4 3128 	ldrh.w	r3, [r4, #296]	@ 0x128
 8006136:	f8a4 3332 	strh.w	r3, [r4, #818]	@ 0x332
 800613a:	f894 312a 	ldrb.w	r3, [r4, #298]	@ 0x12a
 800613e:	f884 3334 	strb.w	r3, [r4, #820]	@ 0x334
 8006142:	f894 312b 	ldrb.w	r3, [r4, #299]	@ 0x12b
 8006146:	f884 3335 	strb.w	r3, [r4, #821]	@ 0x335
 800614a:	f894 312c 	ldrb.w	r3, [r4, #300]	@ 0x12c
 800614e:	f884 3336 	strb.w	r3, [r4, #822]	@ 0x336
 8006152:	f894 312d 	ldrb.w	r3, [r4, #301]	@ 0x12d
 8006156:	f884 3337 	strb.w	r3, [r4, #823]	@ 0x337
 800615a:	b003      	add	sp, #12
 800615c:	bd30      	pop	{r4, r5, pc}
 800615e:	2b40      	cmp	r3, #64	@ 0x40
 8006160:	d0dd      	beq.n	800611e <USBH_Get_DevDesc+0x76>
 8006162:	2308      	movs	r3, #8
 8006164:	f884 332d 	strb.w	r3, [r4, #813]	@ 0x32d
 8006168:	e7d9      	b.n	800611e <USBH_Get_DevDesc+0x76>
 800616a:	2a02      	cmp	r2, #2
 800616c:	d101      	bne.n	8006172 <USBH_Get_DevDesc+0xca>
 800616e:	2b08      	cmp	r3, #8
 8006170:	e7f6      	b.n	8006160 <USBH_Get_DevDesc+0xb8>
 8006172:	2003      	movs	r0, #3
 8006174:	e7d3      	b.n	800611e <USBH_Get_DevDesc+0x76>
 8006176:	2003      	movs	r0, #3
 8006178:	e7ef      	b.n	800615a <USBH_Get_DevDesc+0xb2>
 800617a:	bf00      	nop
 800617c:	01000101 	.word	0x01000101

08006180 <USBH_Get_CfgDesc>:
 8006180:	f5b1 7f80 	cmp.w	r1, #256	@ 0x100
 8006184:	e92d 4ff0 	stmdb	sp!, {r4, r5, r6, r7, r8, r9, sl, fp, lr}
 8006188:	4605      	mov	r5, r0
 800618a:	b087      	sub	sp, #28
 800618c:	460e      	mov	r6, r1
 800618e:	d903      	bls.n	8006198 <USBH_Get_CfgDesc+0x18>
 8006190:	2003      	movs	r0, #3
 8006192:	b007      	add	sp, #28
 8006194:	e8bd 8ff0 	ldmia.w	sp!, {r4, r5, r6, r7, r8, r9, sl, fp, pc}
 8006198:	f100 041c 	add.w	r4, r0, #28
 800619c:	9100      	str	r1, [sp, #0]
 800619e:	f44f 7200 	mov.w	r2, #512	@ 0x200
 80061a2:	2100      	movs	r1, #0
 80061a4:	4623      	mov	r3, r4
 80061a6:	f7ff ff63 	bl	8006070 <USBH_GetDescriptor>
 80061aa:	2800      	cmp	r0, #0
 80061ac:	d1f1      	bne.n	8006192 <USBH_Get_CfgDesc+0x12>
 80061ae:	7f2b      	ldrb	r3, [r5, #28]
 80061b0:	f8b5 801e 	ldrh.w	r8, [r5, #30]
 80061b4:	2b09      	cmp	r3, #9
 80061b6:	f895 b020 	ldrb.w	fp, [r5, #32]
 80061ba:	bf18      	it	ne
 80061bc:	2309      	movne	r3, #9
 80061be:	f885 b33c 	strb.w	fp, [r5, #828]	@ 0x33c
 80061c2:	bf18      	it	ne
 80061c4:	772b      	strbne	r3, [r5, #28]
 80061c6:	f5b8 7f80 	cmp.w	r8, #256	@ 0x100
 80061ca:	7f2b      	ldrb	r3, [r5, #28]
 80061cc:	bf28      	it	cs
 80061ce:	f44f 7880 	movcs.w	r8, #256	@ 0x100
 80061d2:	2e09      	cmp	r6, #9
 80061d4:	f885 3338 	strb.w	r3, [r5, #824]	@ 0x338
 80061d8:	7f6b      	ldrb	r3, [r5, #29]
 80061da:	f8a5 833a 	strh.w	r8, [r5, #826]	@ 0x33a
 80061de:	f885 3339 	strb.w	r3, [r5, #825]	@ 0x339
 80061e2:	f895 3021 	ldrb.w	r3, [r5, #33]	@ 0x21
 80061e6:	f885 333d 	strb.w	r3, [r5, #829]	@ 0x33d
 80061ea:	f895 3022 	ldrb.w	r3, [r5, #34]	@ 0x22
 80061ee:	f885 333e 	strb.w	r3, [r5, #830]	@ 0x33e
 80061f2:	f895 3023 	ldrb.w	r3, [r5, #35]	@ 0x23
 80061f6:	f885 333f 	strb.w	r3, [r5, #831]	@ 0x33f
 80061fa:	f895 3024 	ldrb.w	r3, [r5, #36]	@ 0x24
 80061fe:	f885 3340 	strb.w	r3, [r5, #832]	@ 0x340
 8006202:	f240 80c5 	bls.w	8006390 <USBH_Get_CfgDesc+0x210>
 8006206:	2000      	movs	r0, #0
 8006208:	462a      	mov	r2, r5
 800620a:	2109      	movs	r1, #9
 800620c:	4684      	mov	ip, r0
 800620e:	f1bc 0f02 	cmp.w	ip, #2
 8006212:	d0be      	beq.n	8006192 <USBH_Get_CfgDesc+0x12>
 8006214:	4588      	cmp	r8, r1
 8006216:	d808      	bhi.n	800622a <USBH_Get_CfgDesc+0xaa>
 8006218:	465b      	mov	r3, fp
 800621a:	fa5f fc8c 	uxtb.w	ip, ip
 800621e:	2b02      	cmp	r3, #2
 8006220:	bf28      	it	cs
 8006222:	2302      	movcs	r3, #2
 8006224:	459c      	cmp	ip, r3
 8006226:	d2b4      	bcs.n	8006192 <USBH_Get_CfgDesc+0x12>
 8006228:	e7b2      	b.n	8006190 <USBH_Get_CfgDesc+0x10>
 800622a:	7823      	ldrb	r3, [r4, #0]
 800622c:	441c      	add	r4, r3
 800622e:	4419      	add	r1, r3
 8006230:	7863      	ldrb	r3, [r4, #1]
 8006232:	b289      	uxth	r1, r1
 8006234:	2b04      	cmp	r3, #4
 8006236:	d1ea      	bne.n	800620e <USBH_Get_CfgDesc+0x8e>
 8006238:	7823      	ldrb	r3, [r4, #0]
 800623a:	f04f 0e00 	mov.w	lr, #0
 800623e:	2b09      	cmp	r3, #9
 8006240:	bf1c      	itt	ne
 8006242:	2309      	movne	r3, #9
 8006244:	7023      	strbne	r3, [r4, #0]
 8006246:	7823      	ldrb	r3, [r4, #0]
 8006248:	f882 3342 	strb.w	r3, [r2, #834]	@ 0x342
 800624c:	7863      	ldrb	r3, [r4, #1]
 800624e:	f882 3343 	strb.w	r3, [r2, #835]	@ 0x343
 8006252:	78a3      	ldrb	r3, [r4, #2]
 8006254:	f882 3344 	strb.w	r3, [r2, #836]	@ 0x344
 8006258:	78e3      	ldrb	r3, [r4, #3]
 800625a:	f882 3345 	strb.w	r3, [r2, #837]	@ 0x345
 800625e:	7923      	ldrb	r3, [r4, #4]
 8006260:	2b02      	cmp	r3, #2
 8006262:	bf28      	it	cs
 8006264:	2302      	movcs	r3, #2
 8006266:	f882 3346 	strb.w	r3, [r2, #838]	@ 0x346
 800626a:	9302      	str	r3, [sp, #8]
 800626c:	7963      	ldrb	r3, [r4, #5]
 800626e:	f882 3347 	strb.w	r3, [r2, #839]	@ 0x347
 8006272:	f894 a006 	ldrb.w	sl, [r4, #6]
 8006276:	9303      	str	r3, [sp, #12]
 8006278:	f882 a348 	strb.w	sl, [r2, #840]	@ 0x348
 800627c:	79e3      	ldrb	r3, [r4, #7]
 800627e:	9304      	str	r3, [sp, #16]
 8006280:	f882 3349 	strb.w	r3, [r2, #841]	@ 0x349
 8006284:	7a23      	ldrb	r3, [r4, #8]
 8006286:	f882 334a 	strb.w	r3, [r2, #842]	@ 0x34a
 800628a:	231a      	movs	r3, #26
 800628c:	fb03 f30c 	mul.w	r3, r3, ip
 8006290:	9305      	str	r3, [sp, #20]
 8006292:	9b02      	ldr	r3, [sp, #8]
 8006294:	459e      	cmp	lr, r3
 8006296:	d277      	bcs.n	8006388 <USBH_Get_CfgDesc+0x208>
 8006298:	4588      	cmp	r8, r1
 800629a:	f67f af79 	bls.w	8006190 <USBH_Get_CfgDesc+0x10>
 800629e:	7823      	ldrb	r3, [r4, #0]
 80062a0:	441c      	add	r4, r3
 80062a2:	4419      	add	r1, r3
 80062a4:	7863      	ldrb	r3, [r4, #1]
 80062a6:	b289      	uxth	r1, r1
 80062a8:	2b05      	cmp	r3, #5
 80062aa:	d1f2      	bne.n	8006292 <USBH_Get_CfgDesc+0x112>
 80062ac:	9b03      	ldr	r3, [sp, #12]
 80062ae:	2b01      	cmp	r3, #1
 80062b0:	d13a      	bne.n	8006328 <USBH_Get_CfgDesc+0x1a8>
 80062b2:	f1aa 0302 	sub.w	r3, sl, #2
 80062b6:	2b01      	cmp	r3, #1
 80062b8:	d836      	bhi.n	8006328 <USBH_Get_CfgDesc+0x1a8>
 80062ba:	9b04      	ldr	r3, [sp, #16]
 80062bc:	b923      	cbnz	r3, 80062c8 <USBH_Get_CfgDesc+0x148>
 80062be:	7823      	ldrb	r3, [r4, #0]
 80062c0:	2b09      	cmp	r3, #9
 80062c2:	d001      	beq.n	80062c8 <USBH_Get_CfgDesc+0x148>
 80062c4:	2309      	movs	r3, #9
 80062c6:	7023      	strb	r3, [r4, #0]
 80062c8:	9e05      	ldr	r6, [sp, #20]
 80062ca:	f10e 0001 	add.w	r0, lr, #1
 80062ce:	7823      	ldrb	r3, [r4, #0]
 80062d0:	eb06 00c0 	add.w	r0, r6, r0, lsl #3
 80062d4:	4428      	add	r0, r5
 80062d6:	f880 3344 	strb.w	r3, [r0, #836]	@ 0x344
 80062da:	7863      	ldrb	r3, [r4, #1]
 80062dc:	f880 3345 	strb.w	r3, [r0, #837]	@ 0x345
 80062e0:	78a3      	ldrb	r3, [r4, #2]
 80062e2:	f880 3346 	strb.w	r3, [r0, #838]	@ 0x346
 80062e6:	78e3      	ldrb	r3, [r4, #3]
 80062e8:	f880 3347 	strb.w	r3, [r0, #839]	@ 0x347
 80062ec:	88a6      	ldrh	r6, [r4, #4]
 80062ee:	f8a0 6348 	strh.w	r6, [r0, #840]	@ 0x348
 80062f2:	79a7      	ldrb	r7, [r4, #6]
 80062f4:	f880 734a 	strb.w	r7, [r0, #842]	@ 0x34a
 80062f8:	1e70      	subs	r0, r6, #1
 80062fa:	f895 931d 	ldrb.w	r9, [r5, #797]	@ 0x31d
 80062fe:	f5b0 7f00 	cmp.w	r0, #512	@ 0x200
 8006302:	bf34      	ite	cc
 8006304:	2000      	movcc	r0, #0
 8006306:	2003      	movcs	r0, #3
 8006308:	f1b9 0f00 	cmp.w	r9, #0
 800630c:	d117      	bne.n	800633e <USBH_Get_CfgDesc+0x1be>
 800630e:	f003 0303 	and.w	r3, r3, #3
 8006312:	2b02      	cmp	r3, #2
 8006314:	d10b      	bne.n	800632e <USBH_Get_CfgDesc+0x1ae>
 8006316:	f5b6 7f00 	cmp.w	r6, #512	@ 0x200
 800631a:	bf88      	it	hi
 800631c:	2003      	movhi	r0, #3
 800631e:	f10e 0e01 	add.w	lr, lr, #1
 8006322:	fa5f fe8e 	uxtb.w	lr, lr
 8006326:	e7b4      	b.n	8006292 <USBH_Get_CfgDesc+0x112>
 8006328:	f04f 0307 	mov.w	r3, #7
 800632c:	e7cb      	b.n	80062c6 <USBH_Get_CfgDesc+0x146>
 800632e:	b91b      	cbnz	r3, 8006338 <USBH_Get_CfgDesc+0x1b8>
 8006330:	2e41      	cmp	r6, #65	@ 0x41
 8006332:	bf28      	it	cs
 8006334:	2003      	movcs	r0, #3
 8006336:	e7f2      	b.n	800631e <USBH_Get_CfgDesc+0x19e>
 8006338:	3f01      	subs	r7, #1
 800633a:	2f0f      	cmp	r7, #15
 800633c:	e7ed      	b.n	800631a <USBH_Get_CfgDesc+0x19a>
 800633e:	f1b9 0f01 	cmp.w	r9, #1
 8006342:	d110      	bne.n	8006366 <USBH_Get_CfgDesc+0x1e6>
 8006344:	f013 0f01 	tst.w	r3, #1
 8006348:	d0f2      	beq.n	8006330 <USBH_Get_CfgDesc+0x1b0>
 800634a:	f003 0303 	and.w	r3, r3, #3
 800634e:	2b01      	cmp	r3, #1
 8006350:	d104      	bne.n	800635c <USBH_Get_CfgDesc+0x1dc>
 8006352:	3f01      	subs	r7, #1
 8006354:	2f0f      	cmp	r7, #15
 8006356:	d9eb      	bls.n	8006330 <USBH_Get_CfgDesc+0x1b0>
 8006358:	2003      	movs	r0, #3
 800635a:	e7e0      	b.n	800631e <USBH_Get_CfgDesc+0x19e>
 800635c:	2f00      	cmp	r7, #0
 800635e:	d0fb      	beq.n	8006358 <USBH_Get_CfgDesc+0x1d8>
 8006360:	f5b6 6f80 	cmp.w	r6, #1024	@ 0x400
 8006364:	e7e5      	b.n	8006332 <USBH_Get_CfgDesc+0x1b2>
 8006366:	f1b9 0f02 	cmp.w	r9, #2
 800636a:	d1f5      	bne.n	8006358 <USBH_Get_CfgDesc+0x1d8>
 800636c:	f013 0303 	ands.w	r3, r3, #3
 8006370:	d103      	bne.n	800637a <USBH_Get_CfgDesc+0x1fa>
 8006372:	2e08      	cmp	r6, #8
 8006374:	bf18      	it	ne
 8006376:	2003      	movne	r0, #3
 8006378:	e7d1      	b.n	800631e <USBH_Get_CfgDesc+0x19e>
 800637a:	2b03      	cmp	r3, #3
 800637c:	d1ec      	bne.n	8006358 <USBH_Get_CfgDesc+0x1d8>
 800637e:	b10f      	cbz	r7, 8006384 <USBH_Get_CfgDesc+0x204>
 8006380:	2e09      	cmp	r6, #9
 8006382:	e7d6      	b.n	8006332 <USBH_Get_CfgDesc+0x1b2>
 8006384:	4618      	mov	r0, r3
 8006386:	e7ca      	b.n	800631e <USBH_Get_CfgDesc+0x19e>
 8006388:	f10c 0c01 	add.w	ip, ip, #1
 800638c:	321a      	adds	r2, #26
 800638e:	e73e      	b.n	800620e <USBH_Get_CfgDesc+0x8e>
 8006390:	2000      	movs	r0, #0
 8006392:	e6fe      	b.n	8006192 <USBH_Get_CfgDesc+0x12>

08006394 <USBH_Get_StringDesc>:
 8006394:	f5b3 7f00 	cmp.w	r3, #512	@ 0x200
 8006398:	b573      	push	{r0, r1, r4, r5, r6, lr}
 800639a:	4604      	mov	r4, r0
 800639c:	4615      	mov	r5, r2
 800639e:	461e      	mov	r6, r3
 80063a0:	d823      	bhi.n	80063ea <USBH_Get_StringDesc+0x56>
 80063a2:	b312      	cbz	r2, 80063ea <USBH_Get_StringDesc+0x56>
 80063a4:	f441 7240 	orr.w	r2, r1, #768	@ 0x300
 80063a8:	9300      	str	r3, [sp, #0]
 80063aa:	2100      	movs	r1, #0
 80063ac:	f500 738e 	add.w	r3, r0, #284	@ 0x11c
 80063b0:	f7ff fe5e 	bl	8006070 <USBH_GetDescriptor>
 80063b4:	b990      	cbnz	r0, 80063dc <USBH_Get_StringDesc+0x48>
 80063b6:	f894 311d 	ldrb.w	r3, [r4, #285]	@ 0x11d
 80063ba:	2b03      	cmp	r3, #3
 80063bc:	d10e      	bne.n	80063dc <USBH_Get_StringDesc+0x48>
 80063be:	f894 311c 	ldrb.w	r3, [r4, #284]	@ 0x11c
 80063c2:	4602      	mov	r2, r0
 80063c4:	f504 748f 	add.w	r4, r4, #286	@ 0x11e
 80063c8:	3b02      	subs	r3, #2
 80063ca:	42b3      	cmp	r3, r6
 80063cc:	bf28      	it	cs
 80063ce:	4633      	movcs	r3, r6
 80063d0:	b29b      	uxth	r3, r3
 80063d2:	b291      	uxth	r1, r2
 80063d4:	428b      	cmp	r3, r1
 80063d6:	d803      	bhi.n	80063e0 <USBH_Get_StringDesc+0x4c>
 80063d8:	2300      	movs	r3, #0
 80063da:	702b      	strb	r3, [r5, #0]
 80063dc:	b002      	add	sp, #8
 80063de:	bd70      	pop	{r4, r5, r6, pc}
 80063e0:	5ca1      	ldrb	r1, [r4, r2]
 80063e2:	3202      	adds	r2, #2
 80063e4:	f805 1b01 	strb.w	r1, [r5], #1
 80063e8:	e7f3      	b.n	80063d2 <USBH_Get_StringDesc+0x3e>
 80063ea:	2003      	movs	r0, #3
 80063ec:	e7f6      	b.n	80063dc <USBH_Get_StringDesc+0x48>

080063ee <USBH_SetAddress>:
 80063ee:	7883      	ldrb	r3, [r0, #2]
 80063f0:	2b01      	cmp	r3, #1
 80063f2:	d105      	bne.n	8006400 <USBH_SetAddress+0x12>
 80063f4:	f44f 63a0 	mov.w	r3, #1280	@ 0x500
 80063f8:	8241      	strh	r1, [r0, #18]
 80063fa:	8203      	strh	r3, [r0, #16]
 80063fc:	2300      	movs	r3, #0
 80063fe:	6143      	str	r3, [r0, #20]
 8006400:	2200      	movs	r2, #0
 8006402:	4611      	mov	r1, r2
 8006404:	f7ff bd7c 	b.w	8005f00 <USBH_CtlReq>

08006408 <USBH_SetCfg>:
 8006408:	7883      	ldrb	r3, [r0, #2]
 800640a:	2b01      	cmp	r3, #1
 800640c:	d105      	bne.n	800641a <USBH_SetCfg+0x12>
 800640e:	f44f 6310 	mov.w	r3, #2304	@ 0x900
 8006412:	8241      	strh	r1, [r0, #18]
 8006414:	8203      	strh	r3, [r0, #16]
 8006416:	2300      	movs	r3, #0
 8006418:	6143      	str	r3, [r0, #20]
 800641a:	2200      	movs	r2, #0
 800641c:	4611      	mov	r1, r2
 800641e:	f7ff bd6f 	b.w	8005f00 <USBH_CtlReq>

08006422 <USBH_SetFeature>:
 8006422:	7883      	ldrb	r3, [r0, #2]
 8006424:	2b01      	cmp	r3, #1
 8006426:	d105      	bne.n	8006434 <USBH_SetFeature+0x12>
 8006428:	f44f 7340 	mov.w	r3, #768	@ 0x300
 800642c:	8241      	strh	r1, [r0, #18]
 800642e:	8203      	strh	r3, [r0, #16]
 8006430:	2300      	movs	r3, #0
 8006432:	6143      	str	r3, [r0, #20]
 8006434:	2200      	movs	r2, #0
 8006436:	4611      	mov	r1, r2
 8006438:	f7ff bd62 	b.w	8005f00 <USBH_CtlReq>

0800643c <USBH_ClrFeature>:
 800643c:	7883      	ldrb	r3, [r0, #2]
 800643e:	2b01      	cmp	r3, #1
 8006440:	d105      	bne.n	800644e <USBH_ClrFeature+0x12>
 8006442:	f44f 7381 	mov.w	r3, #258	@ 0x102
 8006446:	8281      	strh	r1, [r0, #20]
 8006448:	6103      	str	r3, [r0, #16]
 800644a:	2300      	movs	r3, #0
 800644c:	82c3      	strh	r3, [r0, #22]
 800644e:	2200      	movs	r2, #0
 8006450:	4611      	mov	r1, r2
 8006452:	f7ff bd55 	b.w	8005f00 <USBH_CtlReq>

08006456 <USBH_CtlSendSetup>:
 8006456:	b51f      	push	{r0, r1, r2, r3, r4, lr}
 8006458:	2400      	movs	r4, #0
 800645a:	460b      	mov	r3, r1
 800645c:	4611      	mov	r1, r2
 800645e:	2208      	movs	r2, #8
 8006460:	e9cd 4300 	strd	r4, r3, [sp]
 8006464:	e9cd 2402 	strd	r2, r4, [sp, #8]
 8006468:	4623      	mov	r3, r4
 800646a:	4622      	mov	r2, r4
 800646c:	f000 f9af 	bl	80067ce <USBH_LL_SubmitURB>
 8006470:	4620      	mov	r0, r4
 8006472:	b004      	add	sp, #16
 8006474:	bd10      	pop	{r4, pc}

08006476 <USBH_CtlSendData>:
 8006476:	b530      	push	{r4, r5, lr}
 8006478:	f890 531d 	ldrb.w	r5, [r0, #797]	@ 0x31d
 800647c:	b085      	sub	sp, #20
 800647e:	460c      	mov	r4, r1
 8006480:	4619      	mov	r1, r3
 8006482:	2d00      	cmp	r5, #0
 8006484:	f89d 3020 	ldrb.w	r3, [sp, #32]
 8006488:	9401      	str	r4, [sp, #4]
 800648a:	bf18      	it	ne
 800648c:	2300      	movne	r3, #0
 800648e:	e9cd 2302 	strd	r2, r3, [sp, #8]
 8006492:	2301      	movs	r3, #1
 8006494:	9300      	str	r3, [sp, #0]
 8006496:	2300      	movs	r3, #0
 8006498:	461a      	mov	r2, r3
 800649a:	f000 f998 	bl	80067ce <USBH_LL_SubmitURB>
 800649e:	2000      	movs	r0, #0
 80064a0:	b005      	add	sp, #20
 80064a2:	bd30      	pop	{r4, r5, pc}

080064a4 <USBH_CtlReceiveData>:
 80064a4:	b530      	push	{r4, r5, lr}
 80064a6:	2400      	movs	r4, #0
 80064a8:	b085      	sub	sp, #20
 80064aa:	460d      	mov	r5, r1
 80064ac:	4619      	mov	r1, r3
 80064ae:	4623      	mov	r3, r4
 80064b0:	9501      	str	r5, [sp, #4]
 80064b2:	e9cd 2402 	strd	r2, r4, [sp, #8]
 80064b6:	2201      	movs	r2, #1
 80064b8:	9200      	str	r2, [sp, #0]
 80064ba:	f000 f988 	bl	80067ce <USBH_LL_SubmitURB>
 80064be:	4620      	mov	r0, r4
 80064c0:	b005      	add	sp, #20
 80064c2:	bd30      	pop	{r4, r5, pc}

080064c4 <USBH_BulkSendData>:
 80064c4:	b530      	push	{r4, r5, lr}
 80064c6:	f890 531d 	ldrb.w	r5, [r0, #797]	@ 0x31d
 80064ca:	b085      	sub	sp, #20
 80064cc:	460c      	mov	r4, r1
 80064ce:	4619      	mov	r1, r3
 80064d0:	2d00      	cmp	r5, #0
 80064d2:	f89d 3020 	ldrb.w	r3, [sp, #32]
 80064d6:	9401      	str	r4, [sp, #4]
 80064d8:	bf18      	it	ne
 80064da:	2300      	movne	r3, #0
 80064dc:	e9cd 2302 	strd	r2, r3, [sp, #8]
 80064e0:	2301      	movs	r3, #1
 80064e2:	2200      	movs	r2, #0
 80064e4:	9300      	str	r3, [sp, #0]
 80064e6:	2302      	movs	r3, #2
 80064e8:	f000 f971 	bl	80067ce <USBH_LL_SubmitURB>
 80064ec:	2000      	movs	r0, #0
 80064ee:	b005      	add	sp, #20
 80064f0:	bd30      	pop	{r4, r5, pc}

080064f2 <USBH_BulkReceiveData>:
 80064f2:	b530      	push	{r4, r5, lr}
 80064f4:	2400      	movs	r4, #0
 80064f6:	b085      	sub	sp, #20
 80064f8:	460d      	mov	r5, r1
 80064fa:	4619      	mov	r1, r3
 80064fc:	2302      	movs	r3, #2
 80064fe:	9501      	str	r5, [sp, #4]
 8006500:	e9cd 2402 	strd	r2, r4, [sp, #8]
 8006504:	2201      	movs	r2, #1
 8006506:	9200      	str	r2, [sp, #0]
 8006508:	f000 f961 	bl	80067ce <USBH_LL_SubmitURB>
 800650c:	4620      	mov	r0, r4
 800650e:	b005      	add	sp, #20
 8006510:	bd30      	pop	{r4, r5, pc}

08006512 <USBH_OpenPipe>:
 8006512:	b51f      	push	{r0, r1, r2, r3, r4, lr}
 8006514:	f8bd 4020 	ldrh.w	r4, [sp, #32]
 8006518:	9402      	str	r4, [sp, #8]
 800651a:	f89d 401c 	ldrb.w	r4, [sp, #28]
 800651e:	9401      	str	r4, [sp, #4]
 8006520:	f89d 4018 	ldrb.w	r4, [sp, #24]
 8006524:	9400      	str	r4, [sp, #0]
 8006526:	f000 f936 	bl	8006796 <USBH_LL_OpenPipe>
 800652a:	2000      	movs	r0, #0
 800652c:	b004      	add	sp, #16
 800652e:	bd10      	pop	{r4, pc}

08006530 <USBH_ClosePipe>:
 8006530:	b508      	push	{r3, lr}
 8006532:	f000 f943 	bl	80067bc <USBH_LL_ClosePipe>
 8006536:	2000      	movs	r0, #0
 8006538:	bd08      	pop	{r3, pc}

0800653a <USBH_AllocPipe>:
 800653a:	f500 7260 	add.w	r2, r0, #896	@ 0x380
 800653e:	2300      	movs	r3, #0
 8006540:	b510      	push	{r4, lr}
 8006542:	f852 4f04 	ldr.w	r4, [r2, #4]!
 8006546:	0424      	lsls	r4, r4, #16
 8006548:	d408      	bmi.n	800655c <USBH_AllocPipe+0x22>
 800654a:	eb00 0083 	add.w	r0, r0, r3, lsl #2
 800654e:	f441 4100 	orr.w	r1, r1, #32768	@ 0x8000
 8006552:	b2da      	uxtb	r2, r3
 8006554:	f8c0 1384 	str.w	r1, [r0, #900]	@ 0x384
 8006558:	b2d0      	uxtb	r0, r2
 800655a:	bd10      	pop	{r4, pc}
 800655c:	3301      	adds	r3, #1
 800655e:	2b10      	cmp	r3, #16
 8006560:	d1ef      	bne.n	8006542 <USBH_AllocPipe+0x8>
 8006562:	f64f 72ff 	movw	r2, #65535	@ 0xffff
 8006566:	e7f7      	b.n	8006558 <USBH_AllocPipe+0x1e>

08006568 <USBH_FreePipe>:
 8006568:	290f      	cmp	r1, #15
 800656a:	bf9f      	itttt	ls
 800656c:	eb00 0081 	addls.w	r0, r0, r1, lsl #2
 8006570:	f8d0 3384 	ldrls.w	r3, [r0, #900]	@ 0x384
 8006574:	f3c3 030e 	ubfxls	r3, r3, #0, #15
 8006578:	f8c0 3384 	strls.w	r3, [r0, #900]	@ 0x384
 800657c:	2000      	movs	r0, #0
 800657e:	4770      	bx	lr

08006580 <USBH_UserProcess>:
 8006580:	2904      	cmp	r1, #4
 8006582:	d00a      	beq.n	800659a <USBH_UserProcess+0x1a>
 8006584:	2905      	cmp	r1, #5
 8006586:	d004      	beq.n	8006592 <USBH_UserProcess+0x12>
 8006588:	2902      	cmp	r1, #2
 800658a:	d105      	bne.n	8006598 <USBH_UserProcess+0x18>
 800658c:	4b04      	ldr	r3, [pc, #16]	@ (80065a0 <USBH_UserProcess+0x20>)
 800658e:	7019      	strb	r1, [r3, #0]
 8006590:	4770      	bx	lr
 8006592:	4b03      	ldr	r3, [pc, #12]	@ (80065a0 <USBH_UserProcess+0x20>)
 8006594:	2203      	movs	r2, #3
 8006596:	701a      	strb	r2, [r3, #0]
 8006598:	4770      	bx	lr
 800659a:	4b01      	ldr	r3, [pc, #4]	@ (80065a0 <USBH_UserProcess+0x20>)
 800659c:	2201      	movs	r2, #1
 800659e:	e7fa      	b.n	8006596 <USBH_UserProcess+0x16>
 80065a0:	200007bc 	.word	0x200007bc

080065a4 <MX_USB_HOST_Init>:
 80065a4:	b508      	push	{r3, lr}
 80065a6:	2201      	movs	r2, #1
 80065a8:	490b      	ldr	r1, [pc, #44]	@ (80065d8 <MX_USB_HOST_Init+0x34>)
 80065aa:	480c      	ldr	r0, [pc, #48]	@ (80065dc <MX_USB_HOST_Init+0x38>)
 80065ac:	f7ff fa32 	bl	8005a14 <USBH_Init>
 80065b0:	b108      	cbz	r0, 80065b6 <MX_USB_HOST_Init+0x12>
 80065b2:	f7fa fc49 	bl	8000e48 <Error_Handler>
 80065b6:	490a      	ldr	r1, [pc, #40]	@ (80065e0 <MX_USB_HOST_Init+0x3c>)
 80065b8:	4808      	ldr	r0, [pc, #32]	@ (80065dc <MX_USB_HOST_Init+0x38>)
 80065ba:	f7ff fa48 	bl	8005a4e <USBH_RegisterClass>
 80065be:	b108      	cbz	r0, 80065c4 <MX_USB_HOST_Init+0x20>
 80065c0:	f7fa fc42 	bl	8000e48 <Error_Handler>
 80065c4:	4805      	ldr	r0, [pc, #20]	@ (80065dc <MX_USB_HOST_Init+0x38>)
 80065c6:	f7ff fa74 	bl	8005ab2 <USBH_Start>
 80065ca:	b118      	cbz	r0, 80065d4 <MX_USB_HOST_Init+0x30>
 80065cc:	e8bd 4008 	ldmia.w	sp!, {r3, lr}
 80065d0:	f7fa bc3a 	b.w	8000e48 <Error_Handler>
 80065d4:	bd08      	pop	{r3, pc}
 80065d6:	bf00      	nop
 80065d8:	08006581 	.word	0x08006581
 80065dc:	200007c0 	.word	0x200007c0
 80065e0:	20000060 	.word	0x20000060

080065e4 <MX_USB_HOST_Process>:
 80065e4:	4801      	ldr	r0, [pc, #4]	@ (80065ec <MX_USB_HOST_Process+0x8>)
 80065e6:	f7ff ba6e 	b.w	8005ac6 <USBH_Process>
 80065ea:	bf00      	nop
 80065ec:	200007c0 	.word	0x200007c0

080065f0 <HAL_HCD_MspInit>:
 80065f0:	b510      	push	{r4, lr}
 80065f2:	b088      	sub	sp, #32
 80065f4:	4604      	mov	r4, r0
 80065f6:	2214      	movs	r2, #20
 80065f8:	2100      	movs	r1, #0
 80065fa:	a803      	add	r0, sp, #12
 80065fc:	f000 f9c4 	bl	8006988 <memset>
 8006600:	6823      	ldr	r3, [r4, #0]
 8006602:	f1b3 4fa0 	cmp.w	r3, #1342177280	@ 0x50000000
 8006606:	d130      	bne.n	800666a <HAL_HCD_MspInit+0x7a>
 8006608:	4c19      	ldr	r4, [pc, #100]	@ (8006670 <HAL_HCD_MspInit+0x80>)
 800660a:	f44f 52e0 	mov.w	r2, #7168	@ 0x1c00
 800660e:	2103      	movs	r1, #3
 8006610:	4818      	ldr	r0, [pc, #96]	@ (8006674 <HAL_HCD_MspInit+0x84>)
 8006612:	6b23      	ldr	r3, [r4, #48]	@ 0x30
 8006614:	f043 0301 	orr.w	r3, r3, #1
 8006618:	6323      	str	r3, [r4, #48]	@ 0x30
 800661a:	6b23      	ldr	r3, [r4, #48]	@ 0x30
 800661c:	f003 0301 	and.w	r3, r3, #1
 8006620:	9300      	str	r3, [sp, #0]
 8006622:	9b00      	ldr	r3, [sp, #0]
 8006624:	2302      	movs	r3, #2
 8006626:	e9cd 2303 	strd	r2, r3, [sp, #12]
 800662a:	230a      	movs	r3, #10
 800662c:	e9cd 1306 	strd	r1, r3, [sp, #24]
 8006630:	a903      	add	r1, sp, #12
 8006632:	f7fa fff9 	bl	8001628 <HAL_GPIO_Init>
 8006636:	6b63      	ldr	r3, [r4, #52]	@ 0x34
 8006638:	2200      	movs	r2, #0
 800663a:	2043      	movs	r0, #67	@ 0x43
 800663c:	f043 0380 	orr.w	r3, r3, #128	@ 0x80
 8006640:	4611      	mov	r1, r2
 8006642:	6363      	str	r3, [r4, #52]	@ 0x34
 8006644:	6b63      	ldr	r3, [r4, #52]	@ 0x34
 8006646:	f003 0380 	and.w	r3, r3, #128	@ 0x80
 800664a:	9301      	str	r3, [sp, #4]
 800664c:	9b01      	ldr	r3, [sp, #4]
 800664e:	6c63      	ldr	r3, [r4, #68]	@ 0x44
 8006650:	f443 4380 	orr.w	r3, r3, #16384	@ 0x4000
 8006654:	6463      	str	r3, [r4, #68]	@ 0x44
 8006656:	6c63      	ldr	r3, [r4, #68]	@ 0x44
 8006658:	f403 4380 	and.w	r3, r3, #16384	@ 0x4000
 800665c:	9302      	str	r3, [sp, #8]
 800665e:	9b02      	ldr	r3, [sp, #8]
 8006660:	f7fa fe12 	bl	8001288 <HAL_NVIC_SetPriority>
 8006664:	2043      	movs	r0, #67	@ 0x43
 8006666:	f7fa fe41 	bl	80012ec <HAL_NVIC_EnableIRQ>
 800666a:	b008      	add	sp, #32
 800666c:	bd10      	pop	{r4, pc}
 800666e:	bf00      	nop
 8006670:	40023800 	.word	0x40023800
 8006674:	40020000 	.word	0x40020000

08006678 <HAL_HCD_SOF_Callback>:
 8006678:	f8d0 03dc 	ldr.w	r0, [r0, #988]	@ 0x3dc
 800667c:	f7ff bc0a 	b.w	8005e94 <USBH_LL_IncTimer>

08006680 <HAL_HCD_Connect_Callback>:
 8006680:	f8d0 03dc 	ldr.w	r0, [r0, #988]	@ 0x3dc
 8006684:	f7ff bc1c 	b.w	8005ec0 <USBH_LL_Connect>

08006688 <HAL_HCD_Disconnect_Callback>:
 8006688:	f8d0 03dc 	ldr.w	r0, [r0, #988]	@ 0x3dc
 800668c:	f7ff bc22 	b.w	8005ed4 <USBH_LL_Disconnect>

08006690 <HAL_HCD_HC_NotifyURBChange_Callback>:
 8006690:	4770      	bx	lr

08006692 <HAL_HCD_PortEnabled_Callback>:
 8006692:	f8d0 03dc 	ldr.w	r0, [r0, #988]	@ 0x3dc
 8006696:	f7ff bc0b 	b.w	8005eb0 <USBH_LL_PortEnabled>

0800669a <HAL_HCD_PortDisabled_Callback>:
 800669a:	f8d0 03dc 	ldr.w	r0, [r0, #988]	@ 0x3dc
 800669e:	f7ff bc0b 	b.w	8005eb8 <USBH_LL_PortDisabled>
	...

080066a4 <USBH_LL_Init>:
 80066a4:	b510      	push	{r4, lr}
 80066a6:	f890 33cc 	ldrb.w	r3, [r0, #972]	@ 0x3cc
 80066aa:	4604      	mov	r4, r0
 80066ac:	2b01      	cmp	r3, #1
 80066ae:	d11c      	bne.n	80066ea <USBH_LL_Init+0x46>
 80066b0:	480f      	ldr	r0, [pc, #60]	@ (80066f0 <USBH_LL_Init+0x4c>)
 80066b2:	f04f 43a0 	mov.w	r3, #1342177280	@ 0x50000000
 80066b6:	6003      	str	r3, [r0, #0]
 80066b8:	2308      	movs	r3, #8
 80066ba:	f8c0 43dc 	str.w	r4, [r0, #988]	@ 0x3dc
 80066be:	7143      	strb	r3, [r0, #5]
 80066c0:	f44f 7380 	mov.w	r3, #256	@ 0x100
 80066c4:	f8c4 03d0 	str.w	r0, [r4, #976]	@ 0x3d0
 80066c8:	80c3      	strh	r3, [r0, #6]
 80066ca:	2302      	movs	r3, #2
 80066cc:	7243      	strb	r3, [r0, #9]
 80066ce:	2300      	movs	r3, #0
 80066d0:	7283      	strb	r3, [r0, #10]
 80066d2:	f7fb f8a4 	bl	800181e <HAL_HCD_Init>
 80066d6:	b108      	cbz	r0, 80066dc <USBH_LL_Init+0x38>
 80066d8:	f7fa fbb6 	bl	8000e48 <Error_Handler>
 80066dc:	4804      	ldr	r0, [pc, #16]	@ (80066f0 <USBH_LL_Init+0x4c>)
 80066de:	f7fb fdce 	bl	800227e <HAL_HCD_GetCurrentFrame>
 80066e2:	4601      	mov	r1, r0
 80066e4:	4620      	mov	r0, r4
 80066e6:	f7ff fbd2 	bl	8005e8e <USBH_LL_SetTimer>
 80066ea:	2000      	movs	r0, #0
 80066ec:	bd10      	pop	{r4, pc}
 80066ee:	bf00      	nop
 80066f0:	20000b98 	.word	0x20000b98

080066f4 <USBH_LL_GetSpeed>:
 80066f4:	b508      	push	{r3, lr}
 80066f6:	f8d0 03d0 	ldr.w	r0, [r0, #976]	@ 0x3d0
 80066fa:	f7fb fdc3 	bl	8002284 <HAL_HCD_GetCurrentSpeed>
 80066fe:	b118      	cbz	r0, 8006708 <USBH_LL_GetSpeed+0x14>
 8006700:	2802      	cmp	r0, #2
 8006702:	bf0c      	ite	eq
 8006704:	2002      	moveq	r0, #2
 8006706:	2001      	movne	r0, #1
 8006708:	bd08      	pop	{r3, pc}

0800670a <USBH_LL_GetLastXferSize>:
 800670a:	f8d0 03d0 	ldr.w	r0, [r0, #976]	@ 0x3d0
 800670e:	f7fb bdb1 	b.w	8002274 <HAL_HCD_HC_GetXferCount>

08006712 <USBH_LL_GetURBState>:
 8006712:	f8d0 03d0 	ldr.w	r0, [r0, #976]	@ 0x3d0
 8006716:	f7fb bda7 	b.w	8002268 <HAL_HCD_HC_GetURBState>

0800671a <USBH_LL_DriverVBUS>:
 800671a:	b508      	push	{r3, lr}
 800671c:	f890 33cc 	ldrb.w	r3, [r0, #972]	@ 0x3cc
 8006720:	2b01      	cmp	r3, #1
 8006722:	d102      	bne.n	800672a <USBH_LL_DriverVBUS+0x10>
 8006724:	4608      	mov	r0, r1
 8006726:	f000 f867 	bl	80067f8 <MX_DriverVbusFS>
 800672a:	20c8      	movs	r0, #200	@ 0xc8
 800672c:	f7fa fd88 	bl	8001240 <HAL_Delay>
 8006730:	2000      	movs	r0, #0
 8006732:	bd08      	pop	{r3, pc}

08006734 <USBH_LL_SetToggle>:
 8006734:	f8d0 33d0 	ldr.w	r3, [r0, #976]	@ 0x3d0
 8006738:	203c      	movs	r0, #60	@ 0x3c
 800673a:	fb00 3101 	mla	r1, r0, r1, r3
 800673e:	7dcb      	ldrb	r3, [r1, #23]
 8006740:	b11b      	cbz	r3, 800674a <USBH_LL_SetToggle+0x16>
 8006742:	f881 203c 	strb.w	r2, [r1, #60]	@ 0x3c
 8006746:	2000      	movs	r0, #0
 8006748:	4770      	bx	lr
 800674a:	f881 203d 	strb.w	r2, [r1, #61]	@ 0x3d
 800674e:	e7fa      	b.n	8006746 <USBH_LL_SetToggle+0x12>

08006750 <USBH_Delay>:
 8006750:	f7fa bd76 	b.w	8001240 <HAL_Delay>

08006754 <USBH_Get_USB_Status>:
 8006754:	b118      	cbz	r0, 800675e <USBH_Get_USB_Status+0xa>
 8006756:	2802      	cmp	r0, #2
 8006758:	bf0c      	ite	eq
 800675a:	2001      	moveq	r0, #1
 800675c:	2002      	movne	r0, #2
 800675e:	4770      	bx	lr

08006760 <USBH_LL_Start>:
 8006760:	b508      	push	{r3, lr}
 8006762:	f8d0 03d0 	ldr.w	r0, [r0, #976]	@ 0x3d0
 8006766:	f7fb fd55 	bl	8002214 <HAL_HCD_Start>
 800676a:	e8bd 4008 	ldmia.w	sp!, {r3, lr}
 800676e:	f7ff bff1 	b.w	8006754 <USBH_Get_USB_Status>

08006772 <USBH_LL_Stop>:
 8006772:	b508      	push	{r3, lr}
 8006774:	f8d0 03d0 	ldr.w	r0, [r0, #976]	@ 0x3d0
 8006778:	f7fb fd61 	bl	800223e <HAL_HCD_Stop>
 800677c:	e8bd 4008 	ldmia.w	sp!, {r3, lr}
 8006780:	f7ff bfe8 	b.w	8006754 <USBH_Get_USB_Status>

08006784 <USBH_LL_ResetPort>:
 8006784:	b508      	push	{r3, lr}
 8006786:	f8d0 03d0 	ldr.w	r0, [r0, #976]	@ 0x3d0
 800678a:	f7fb fd6a 	bl	8002262 <HAL_HCD_ResetPort>
 800678e:	e8bd 4008 	ldmia.w	sp!, {r3, lr}
 8006792:	f7ff bfdf 	b.w	8006754 <USBH_Get_USB_Status>

08006796 <USBH_LL_OpenPipe>:
 8006796:	b57f      	push	{r0, r1, r2, r3, r4, r5, r6, lr}
 8006798:	f89d 4020 	ldrb.w	r4, [sp, #32]
 800679c:	f89d 5024 	ldrb.w	r5, [sp, #36]	@ 0x24
 80067a0:	f8bd 6028 	ldrh.w	r6, [sp, #40]	@ 0x28
 80067a4:	9400      	str	r4, [sp, #0]
 80067a6:	e9cd 5601 	strd	r5, r6, [sp, #4]
 80067aa:	f8d0 03d0 	ldr.w	r0, [r0, #976]	@ 0x3d0
 80067ae:	f7fb fd73 	bl	8002298 <HAL_HCD_HC_Init>
 80067b2:	b004      	add	sp, #16
 80067b4:	e8bd 4070 	ldmia.w	sp!, {r4, r5, r6, lr}
 80067b8:	f7ff bfcc 	b.w	8006754 <USBH_Get_USB_Status>

080067bc <USBH_LL_ClosePipe>:
 80067bc:	b508      	push	{r3, lr}
 80067be:	f8d0 03d0 	ldr.w	r0, [r0, #976]	@ 0x3d0
 80067c2:	f7fb f81a 	bl	80017fa <HAL_HCD_HC_Halt>
 80067c6:	e8bd 4008 	ldmia.w	sp!, {r3, lr}
 80067ca:	f7ff bfc3 	b.w	8006754 <USBH_Get_USB_Status>

080067ce <USBH_LL_SubmitURB>:
 80067ce:	b57f      	push	{r0, r1, r2, r3, r4, r5, r6, lr}
 80067d0:	f8bd 5028 	ldrh.w	r5, [sp, #40]	@ 0x28
 80067d4:	f89d 602c 	ldrb.w	r6, [sp, #44]	@ 0x2c
 80067d8:	f89d 4020 	ldrb.w	r4, [sp, #32]
 80067dc:	e9cd 5602 	strd	r5, r6, [sp, #8]
 80067e0:	9d09      	ldr	r5, [sp, #36]	@ 0x24
 80067e2:	e9cd 4500 	strd	r4, r5, [sp]
 80067e6:	f8d0 03d0 	ldr.w	r0, [r0, #976]	@ 0x3d0
 80067ea:	f7fb f855 	bl	8001898 <HAL_HCD_HC_SubmitRequest>
 80067ee:	b004      	add	sp, #16
 80067f0:	e8bd 4070 	ldmia.w	sp!, {r4, r5, r6, lr}
 80067f4:	f7ff bfae 	b.w	8006754 <USBH_Get_USB_Status>

080067f8 <MX_DriverVbusFS>:
 80067f8:	1e02      	subs	r2, r0, #0
 80067fa:	f04f 0120 	mov.w	r1, #32
 80067fe:	4802      	ldr	r0, [pc, #8]	@ (8006808 <MX_DriverVbusFS+0x10>)
 8006800:	bf18      	it	ne
 8006802:	2201      	movne	r2, #1
 8006804:	f7fa bff4 	b.w	80017f0 <HAL_GPIO_WritePin>
 8006808:	40020c00 	.word	0x40020c00

0800680c <malloc>:
 800680c:	4b02      	ldr	r3, [pc, #8]	@ (8006818 <malloc+0xc>)
 800680e:	4601      	mov	r1, r0
 8006810:	6818      	ldr	r0, [r3, #0]
 8006812:	f000 b82d 	b.w	8006870 <_malloc_r>
 8006816:	bf00      	nop
 8006818:	20000080 	.word	0x20000080

0800681c <free>:
 800681c:	4b02      	ldr	r3, [pc, #8]	@ (8006828 <free+0xc>)
 800681e:	4601      	mov	r1, r0
 8006820:	6818      	ldr	r0, [r3, #0]
 8006822:	f000 b8f5 	b.w	8006a10 <_free_r>
 8006826:	bf00      	nop
 8006828:	20000080 	.word	0x20000080

0800682c <sbrk_aligned>:
 800682c:	b570      	push	{r4, r5, r6, lr}
 800682e:	4e0f      	ldr	r6, [pc, #60]	@ (800686c <sbrk_aligned+0x40>)
 8006830:	460c      	mov	r4, r1
 8006832:	6831      	ldr	r1, [r6, #0]
 8006834:	4605      	mov	r5, r0
 8006836:	b911      	cbnz	r1, 800683e <sbrk_aligned+0x12>
 8006838:	f000 f8ae 	bl	8006998 <_sbrk_r>
 800683c:	6030      	str	r0, [r6, #0]
 800683e:	4621      	mov	r1, r4
 8006840:	4628      	mov	r0, r5
 8006842:	f000 f8a9 	bl	8006998 <_sbrk_r>
 8006846:	1c43      	adds	r3, r0, #1
 8006848:	d103      	bne.n	8006852 <sbrk_aligned+0x26>
 800684a:	f04f 34ff 	mov.w	r4, #4294967295	@ 0xffffffff
 800684e:	4620      	mov	r0, r4
 8006850:	bd70      	pop	{r4, r5, r6, pc}
 8006852:	1cc4      	adds	r4, r0, #3
 8006854:	f024 0403 	bic.w	r4, r4, #3
 8006858:	42a0      	cmp	r0, r4
 800685a:	d0f8      	beq.n	800684e <sbrk_aligned+0x22>
 800685c:	1a21      	subs	r1, r4, r0
 800685e:	4628      	mov	r0, r5
 8006860:	f000 f89a 	bl	8006998 <_sbrk_r>
 8006864:	3001      	adds	r0, #1
 8006866:	d1f2      	bne.n	800684e <sbrk_aligned+0x22>
 8006868:	e7ef      	b.n	800684a <sbrk_aligned+0x1e>
 800686a:	bf00      	nop
 800686c:	20000f78 	.word	0x20000f78

08006870 <_malloc_r>:
 8006870:	e92d 43f8 	stmdb	sp!, {r3, r4, r5, r6, r7, r8, r9, lr}
 8006874:	1ccd      	adds	r5, r1, #3
 8006876:	f025 0503 	bic.w	r5, r5, #3
 800687a:	3508      	adds	r5, #8
 800687c:	2d0c      	cmp	r5, #12
 800687e:	bf38      	it	cc
 8006880:	250c      	movcc	r5, #12
 8006882:	2d00      	cmp	r5, #0
 8006884:	4606      	mov	r6, r0
 8006886:	db01      	blt.n	800688c <_malloc_r+0x1c>
 8006888:	42a9      	cmp	r1, r5
 800688a:	d904      	bls.n	8006896 <_malloc_r+0x26>
 800688c:	230c      	movs	r3, #12
 800688e:	6033      	str	r3, [r6, #0]
 8006890:	2000      	movs	r0, #0
 8006892:	e8bd 83f8 	ldmia.w	sp!, {r3, r4, r5, r6, r7, r8, r9, pc}
 8006896:	f8df 80d4 	ldr.w	r8, [pc, #212]	@ 800696c <_malloc_r+0xfc>
 800689a:	f000 f869 	bl	8006970 <__malloc_lock>
 800689e:	f8d8 3000 	ldr.w	r3, [r8]
 80068a2:	461c      	mov	r4, r3
 80068a4:	bb44      	cbnz	r4, 80068f8 <_malloc_r+0x88>
 80068a6:	4629      	mov	r1, r5
 80068a8:	4630      	mov	r0, r6
 80068aa:	f7ff ffbf 	bl	800682c <sbrk_aligned>
 80068ae:	1c43      	adds	r3, r0, #1
 80068b0:	4604      	mov	r4, r0
 80068b2:	d158      	bne.n	8006966 <_malloc_r+0xf6>
 80068b4:	f8d8 4000 	ldr.w	r4, [r8]
 80068b8:	4627      	mov	r7, r4
 80068ba:	2f00      	cmp	r7, #0
 80068bc:	d143      	bne.n	8006946 <_malloc_r+0xd6>
 80068be:	2c00      	cmp	r4, #0
 80068c0:	d04b      	beq.n	800695a <_malloc_r+0xea>
 80068c2:	6823      	ldr	r3, [r4, #0]
 80068c4:	4639      	mov	r1, r7
 80068c6:	4630      	mov	r0, r6
 80068c8:	eb04 0903 	add.w	r9, r4, r3
 80068cc:	f000 f864 	bl	8006998 <_sbrk_r>
 80068d0:	4581      	cmp	r9, r0
 80068d2:	d142      	bne.n	800695a <_malloc_r+0xea>
 80068d4:	6821      	ldr	r1, [r4, #0]
 80068d6:	1a6d      	subs	r5, r5, r1
 80068d8:	4629      	mov	r1, r5
 80068da:	4630      	mov	r0, r6
 80068dc:	f7ff ffa6 	bl	800682c <sbrk_aligned>
 80068e0:	3001      	adds	r0, #1
 80068e2:	d03a      	beq.n	800695a <_malloc_r+0xea>
 80068e4:	6823      	ldr	r3, [r4, #0]
 80068e6:	442b      	add	r3, r5
 80068e8:	6023      	str	r3, [r4, #0]
 80068ea:	f8d8 3000 	ldr.w	r3, [r8]
 80068ee:	685a      	ldr	r2, [r3, #4]
 80068f0:	bb62      	cbnz	r2, 800694c <_malloc_r+0xdc>
 80068f2:	f8c8 7000 	str.w	r7, [r8]
 80068f6:	e00f      	b.n	8006918 <_malloc_r+0xa8>
 80068f8:	6822      	ldr	r2, [r4, #0]
 80068fa:	1b52      	subs	r2, r2, r5
 80068fc:	d420      	bmi.n	8006940 <_malloc_r+0xd0>
 80068fe:	2a0b      	cmp	r2, #11
 8006900:	d917      	bls.n	8006932 <_malloc_r+0xc2>
 8006902:	1961      	adds	r1, r4, r5
 8006904:	42a3      	cmp	r3, r4
 8006906:	6025      	str	r5, [r4, #0]
 8006908:	bf18      	it	ne
 800690a:	6059      	strne	r1, [r3, #4]
 800690c:	6863      	ldr	r3, [r4, #4]
 800690e:	bf08      	it	eq
 8006910:	f8c8 1000 	streq.w	r1, [r8]
 8006914:	5162      	str	r2, [r4, r5]
 8006916:	604b      	str	r3, [r1, #4]
 8006918:	4630      	mov	r0, r6
 800691a:	f000 f82f 	bl	800697c <__malloc_unlock>
 800691e:	f104 000b 	add.w	r0, r4, #11
 8006922:	1d23      	adds	r3, r4, #4
 8006924:	f020 0007 	bic.w	r0, r0, #7
 8006928:	1ac2      	subs	r2, r0, r3
 800692a:	bf1c      	itt	ne
 800692c:	1a1b      	subne	r3, r3, r0
 800692e:	50a3      	strne	r3, [r4, r2]
 8006930:	e7af      	b.n	8006892 <_malloc_r+0x22>
 8006932:	6862      	ldr	r2, [r4, #4]
 8006934:	42a3      	cmp	r3, r4
 8006936:	bf0c      	ite	eq
 8006938:	f8c8 2000 	streq.w	r2, [r8]
 800693c:	605a      	strne	r2, [r3, #4]
 800693e:	e7eb      	b.n	8006918 <_malloc_r+0xa8>
 8006940:	4623      	mov	r3, r4
 8006942:	6864      	ldr	r4, [r4, #4]
 8006944:	e7ae      	b.n	80068a4 <_malloc_r+0x34>
 8006946:	463c      	mov	r4, r7
 8006948:	687f      	ldr	r7, [r7, #4]
 800694a:	e7b6      	b.n	80068ba <_malloc_r+0x4a>
 800694c:	461a      	mov	r2, r3
 800694e:	685b      	ldr	r3, [r3, #4]
 8006950:	42a3      	cmp	r3, r4
 8006952:	d1fb      	bne.n	800694c <_malloc_r+0xdc>
 8006954:	2300      	movs	r3, #0
 8006956:	6053      	str	r3, [r2, #4]
 8006958:	e7de      	b.n	8006918 <_malloc_r+0xa8>
 800695a:	230c      	movs	r3, #12
 800695c:	6033      	str	r3, [r6, #0]
 800695e:	4630      	mov	r0, r6
 8006960:	f000 f80c 	bl	800697c <__malloc_unlock>
 8006964:	e794      	b.n	8006890 <_malloc_r+0x20>
 8006966:	6005      	str	r5, [r0, #0]
 8006968:	e7d6      	b.n	8006918 <_malloc_r+0xa8>
 800696a:	bf00      	nop
 800696c:	20000f7c 	.word	0x20000f7c

08006970 <__malloc_lock>:
 8006970:	4801      	ldr	r0, [pc, #4]	@ (8006978 <__malloc_lock+0x8>)
 8006972:	f000 b84b 	b.w	8006a0c <__retarget_lock_acquire_recursive>
 8006976:	bf00      	nop
 8006978:	200010b8 	.word	0x200010b8

0800697c <__malloc_unlock>:
 800697c:	4801      	ldr	r0, [pc, #4]	@ (8006984 <__malloc_unlock+0x8>)
 800697e:	f000 b846 	b.w	8006a0e <__retarget_lock_release_recursive>
 8006982:	bf00      	nop
 8006984:	200010b8 	.word	0x200010b8

08006988 <memset>:
 8006988:	4402      	add	r2, r0
 800698a:	4603      	mov	r3, r0
 800698c:	4293      	cmp	r3, r2
 800698e:	d100      	bne.n	8006992 <memset+0xa>
 8006990:	4770      	bx	lr
 8006992:	f803 1b01 	strb.w	r1, [r3], #1
 8006996:	e7f9      	b.n	800698c <memset+0x4>

08006998 <_sbrk_r>:
 8006998:	b538      	push	{r3, r4, r5, lr}
 800699a:	4d06      	ldr	r5, [pc, #24]	@ (80069b4 <_sbrk_r+0x1c>)
 800699c:	2300      	movs	r3, #0
 800699e:	4604      	mov	r4, r0
 80069a0:	4608      	mov	r0, r1
 80069a2:	602b      	str	r3, [r5, #0]
 80069a4:	f7fa fbdc 	bl	8001160 <_sbrk>
 80069a8:	1c43      	adds	r3, r0, #1
 80069aa:	d102      	bne.n	80069b2 <_sbrk_r+0x1a>
 80069ac:	682b      	ldr	r3, [r5, #0]
 80069ae:	b103      	cbz	r3, 80069b2 <_sbrk_r+0x1a>
 80069b0:	6023      	str	r3, [r4, #0]
 80069b2:	bd38      	pop	{r3, r4, r5, pc}
 80069b4:	200010bc 	.word	0x200010bc

080069b8 <__errno>:
 80069b8:	4b01      	ldr	r3, [pc, #4]	@ (80069c0 <__errno+0x8>)
 80069ba:	6818      	ldr	r0, [r3, #0]
 80069bc:	4770      	bx	lr
 80069be:	bf00      	nop
 80069c0:	20000080 	.word	0x20000080

080069c4 <__libc_init_array>:
 80069c4:	b570      	push	{r4, r5, r6, lr}
 80069c6:	4d0d      	ldr	r5, [pc, #52]	@ (80069fc <__libc_init_array+0x38>)
 80069c8:	4c0d      	ldr	r4, [pc, #52]	@ (8006a00 <__libc_init_array+0x3c>)
 80069ca:	1b64      	subs	r4, r4, r5
 80069cc:	10a4      	asrs	r4, r4, #2
 80069ce:	2600      	movs	r6, #0
 80069d0:	42a6      	cmp	r6, r4
 80069d2:	d109      	bne.n	80069e8 <__libc_init_array+0x24>
 80069d4:	4d0b      	ldr	r5, [pc, #44]	@ (8006a04 <__libc_init_array+0x40>)
 80069d6:	4c0c      	ldr	r4, [pc, #48]	@ (8006a08 <__libc_init_array+0x44>)
 80069d8:	f000 f864 	bl	8006aa4 <_init>
 80069dc:	1b64      	subs	r4, r4, r5
 80069de:	10a4      	asrs	r4, r4, #2
 80069e0:	2600      	movs	r6, #0
 80069e2:	42a6      	cmp	r6, r4
 80069e4:	d105      	bne.n	80069f2 <__libc_init_array+0x2e>
 80069e6:	bd70      	pop	{r4, r5, r6, pc}
 80069e8:	f855 3b04 	ldr.w	r3, [r5], #4
 80069ec:	4798      	blx	r3
 80069ee:	3601      	adds	r6, #1
 80069f0:	e7ee      	b.n	80069d0 <__libc_init_array+0xc>
 80069f2:	f855 3b04 	ldr.w	r3, [r5], #4
 80069f6:	4798      	blx	r3
 80069f8:	3601      	adds	r6, #1
 80069fa:	e7f2      	b.n	80069e2 <__libc_init_array+0x1e>
 80069fc:	08006ae8 	.word	0x08006ae8
 8006a00:	08006ae8 	.word	0x08006ae8
 8006a04:	08006ae8 	.word	0x08006ae8
 8006a08:	08006aec 	.word	0x08006aec

08006a0c <__retarget_lock_acquire_recursive>:
 8006a0c:	4770      	bx	lr

08006a0e <__retarget_lock_release_recursive>:
 8006a0e:	4770      	bx	lr

08006a10 <_free_r>:
 8006a10:	b538      	push	{r3, r4, r5, lr}
 8006a12:	4605      	mov	r5, r0
 8006a14:	2900      	cmp	r1, #0
 8006a16:	d041      	beq.n	8006a9c <_free_r+0x8c>
 8006a18:	f851 3c04 	ldr.w	r3, [r1, #-4]
 8006a1c:	1f0c      	subs	r4, r1, #4
 8006a1e:	2b00      	cmp	r3, #0
 8006a20:	bfb8      	it	lt
 8006a22:	18e4      	addlt	r4, r4, r3
 8006a24:	f7ff ffa4 	bl	8006970 <__malloc_lock>
 8006a28:	4a1d      	ldr	r2, [pc, #116]	@ (8006aa0 <_free_r+0x90>)
 8006a2a:	6813      	ldr	r3, [r2, #0]
 8006a2c:	b933      	cbnz	r3, 8006a3c <_free_r+0x2c>
 8006a2e:	6063      	str	r3, [r4, #4]
 8006a30:	6014      	str	r4, [r2, #0]
 8006a32:	4628      	mov	r0, r5
 8006a34:	e8bd 4038 	ldmia.w	sp!, {r3, r4, r5, lr}
 8006a38:	f7ff bfa0 	b.w	800697c <__malloc_unlock>
 8006a3c:	42a3      	cmp	r3, r4
 8006a3e:	d908      	bls.n	8006a52 <_free_r+0x42>
 8006a40:	6820      	ldr	r0, [r4, #0]
 8006a42:	1821      	adds	r1, r4, r0
 8006a44:	428b      	cmp	r3, r1
 8006a46:	bf01      	itttt	eq
 8006a48:	6819      	ldreq	r1, [r3, #0]
 8006a4a:	685b      	ldreq	r3, [r3, #4]
 8006a4c:	1809      	addeq	r1, r1, r0
 8006a4e:	6021      	streq	r1, [r4, #0]
 8006a50:	e7ed      	b.n	8006a2e <_free_r+0x1e>
 8006a52:	461a      	mov	r2, r3
 8006a54:	685b      	ldr	r3, [r3, #4]
 8006a56:	b10b      	cbz	r3, 8006a5c <_free_r+0x4c>
 8006a58:	42a3      	cmp	r3, r4
 8006a5a:	d9fa      	bls.n	8006a52 <_free_r+0x42>
 8006a5c:	6811      	ldr	r1, [r2, #0]
 8006a5e:	1850      	adds	r0, r2, r1
 8006a60:	42a0      	cmp	r0, r4
 8006a62:	d10b      	bne.n	8006a7c <_free_r+0x6c>
 8006a64:	6820      	ldr	r0, [r4, #0]
 8006a66:	4401      	add	r1, r0
 8006a68:	1850      	adds	r0, r2, r1
 8006a6a:	4283      	cmp	r3, r0
 8006a6c:	6011      	str	r1, [r2, #0]
 8006a6e:	d1e0      	bne.n	8006a32 <_free_r+0x22>
 8006a70:	6818      	ldr	r0, [r3, #0]
 8006a72:	685b      	ldr	r3, [r3, #4]
 8006a74:	6053      	str	r3, [r2, #4]
 8006a76:	4408      	add	r0, r1
 8006a78:	6010      	str	r0, [r2, #0]
 8006a7a:	e7da      	b.n	8006a32 <_free_r+0x22>
 8006a7c:	d902      	bls.n	8006a84 <_free_r+0x74>
 8006a7e:	230c      	movs	r3, #12
 8006a80:	602b      	str	r3, [r5, #0]
 8006a82:	e7d6      	b.n	8006a32 <_free_r+0x22>
 8006a84:	6820      	ldr	r0, [r4, #0]
 8006a86:	1821      	adds	r1, r4, r0
 8006a88:	428b      	cmp	r3, r1
 8006a8a:	bf04      	itt	eq
 8006a8c:	6819      	ldreq	r1, [r3, #0]
 8006a8e:	685b      	ldreq	r3, [r3, #4]
 8006a90:	6063      	str	r3, [r4, #4]
 8006a92:	bf04      	itt	eq
 8006a94:	1809      	addeq	r1, r1, r0
 8006a96:	6021      	streq	r1, [r4, #0]
 8006a98:	6054      	str	r4, [r2, #4]
 8006a9a:	e7ca      	b.n	8006a32 <_free_r+0x22>
 8006a9c:	bd38      	pop	{r3, r4, r5, pc}
 8006a9e:	bf00      	nop
 8006aa0:	20000f7c 	.word	0x20000f7c

08006aa4 <_init>:
 8006aa4:	b5f8      	push	{r3, r4, r5, r6, r7, lr}
 8006aa6:	bf00      	nop
 8006aa8:	bcf8      	pop	{r3, r4, r5, r6, r7}
 8006aaa:	bc08      	pop	{r3}
 8006aac:	469e      	mov	lr, r3
 8006aae:	4770      	bx	lr

08006ab0 <_fini>:
 8006ab0:	b5f8      	push	{r3, r4, r5, r6, r7, lr}
 8006ab2:	bf00      	nop
 8006ab4:	bcf8      	pop	{r3, r4, r5, r6, r7}
 8006ab6:	bc08      	pop	{r3}
 8006ab8:	469e      	mov	lr, r3
 8006aba:	4770      	bx	lr
